MetaWare ELF Dumper 3.0q (C) Copyright 2000-2001, MetaWare Incorporated.
Dump of "flasher_E@0x00008000.out":
ELF header
    ident=<CLASS32,DATA2LSB,EI_VERSION=1>, type=EXEC
    machine=ARC, version=1, entry=0x8000, flags=0
    ehsize=52, phoff=0x34, phentsize=32, phnum=2
    shoff=0x1f1a8, shentsize=40, shnum=17, string_section=16
Program header #0
    type=LOAD, vaddr=0x8000, off=0x74
    paddr=0x0, filesz=0xf726, memsz=0xf726, align=4096, flags=<X,R>
Program header #1
    type=LOAD, vaddr=0x17728, off=0xf79a
    paddr=0x0, filesz=0x197c, memsz=0x81b0, align=4096, flags=<W,R>

Section headers
    Section #1: .ARC, type=PROGBITS, addr=0x8000, off=0x74
	size=688(0x2b0), link=0, info=0, align=8, entsize=1
	flags=<ALLOC,EXECINSTR>
    Section #2: .fini, type=PROGBITS, addr=0x82b0, off=0x324
	size=36(0x24), link=0, info=0, align=4, entsize=1
	flags=<ALLOC,EXECINSTR>
    Section #3: .init, type=PROGBITS, addr=0x82d4, off=0x348
	size=132(0x84), link=0, info=0, align=4, entsize=1
	flags=<ALLOC,EXECINSTR>
    Section #4: .text, type=PROGBITS, addr=0x8360, off=0x3d4
	size=60864(0xedc0), link=0, info=0, align=16, entsize=1
	flags=<ALLOC,EXECINSTR>
    Section #5: .rodata, type=PROGBITS, addr=0x17120, off=0xf194
	size=1542(0x606), link=0, info=0, align=4, entsize=1
	flags=<ALLOC>
    Section #6: .sdata, type=NOBITS, addr=0x17728, off=0xf79a
	size=0(0x0), link=0, info=0, align=1, entsize=1
	flags=<WRITE,ALLOC>
    Section #7: .data, type=PROGBITS, addr=0x17728, off=0xf79a
	size=6519(0x1977), link=0, info=0, align=4, entsize=1
	flags=<WRITE,ALLOC>
    Section #8: .tls, type=PROGBITS, addr=0x190a0, off=0x11112
	size=4(0x4), link=0, info=0, align=4, entsize=1
	flags=<WRITE,ALLOC>
    Section #9: .bss, type=NOBITS, addr=0x190a4, off=0x11116
	size=2100(0x834), link=0, info=0, align=4, entsize=1
	flags=<WRITE,ALLOC>
    Section #10: .stack, type=NOBITS, addr=0x198d8, off=0x11116
	size=16384(0x4000), link=0, info=0, align=4, entsize=1
	flags=<WRITE,ALLOC>
    Section #11: .heap, type=NOBITS, addr=0x1d8d8, off=0x11116
	size=8192(0x2000), link=0, info=0, align=4, entsize=1
	flags=<WRITE,ALLOC>
    Section #12: .comment, type=PROGBITS, addr=0x0, off=0x11116
	size=7139(0x1be3), link=0, info=0, align=1, entsize=1
	flags=0
    Section #13: .arcextmap, type=PROGBITS, addr=0x0, off=0x12cf9
	size=153(0x99), link=0, info=0, align=1, entsize=1
	flags=0
    Section #14: .strtab, type=STRTAB, addr=0x0, off=0x12d92
	size=23471(0x5baf), link=0, info=0, align=1, entsize=1
	flags=0
    Section #15: .symtab, type=SYMTAB, addr=0x0, off=0x18944
	size=26608(0x67f0), link=14, info=718, align=4, entsize=16
	flags=0
    Section #16: .shstrtab, type=STRTAB, addr=0x0, off=0x1f134
	size=114(0x72), link=0, info=0, align=1, entsize=1
	flags=0

Symbol table ".symtab"
     Value      Size Bind Type Sect     Name
     -----      ---- ---- ---- ----     ----
  1  0x8000      688 LOC  SECT .ARC     
  2  0x82b0       36 LOC  SECT .fini    
  3  0x82d4      132 LOC  SECT .init    
  4  0x8360    60864 LOC  SECT .text    
  5  0x17120    1542 LOC  SECT .rodata  
  6  0x17728    6519 LOC  SECT .data    
  7  0x190a0       4 LOC  SECT .tls     
  8  0x190a4    2100 LOC  SECT .bss     
  9  0x198d8   16384 LOC  SECT .stack   
 10  0x1d8d8    8192 LOC  SECT .heap    
 11  0x0           0 LOC  FILE ABS      smartmpeg_crt0.s
 12  0x8080        0 LOC  NULL .ARC     IRQ_VECT_0
 13  0x8180        0 LOC  NULL .ARC     IRQ_FUNC_0
 14  0x8088        0 LOC  NULL .ARC     IRQ_VECT_1
 15  0x8188        0 LOC  NULL .ARC     IRQ_FUNC_1
 16  0x8090        0 LOC  NULL .ARC     IRQ_VECT_2
 17  0x8190        0 LOC  NULL .ARC     IRQ_FUNC_2
 18  0x8098        0 LOC  NULL .ARC     IRQ_VECT_3
 19  0x8198        0 LOC  NULL .ARC     IRQ_FUNC_3
 20  0x80a0        0 LOC  NULL .ARC     IRQ_VECT_4
 21  0x81a0        0 LOC  NULL .ARC     IRQ_FUNC_4
 22  0x80a8        0 LOC  NULL .ARC     IRQ_VECT_5
 23  0x81a8        0 LOC  NULL .ARC     IRQ_FUNC_5
 24  0x80b0        0 LOC  NULL .ARC     IRQ_VECT_6
 25  0x81b0        0 LOC  NULL .ARC     IRQ_FUNC_6
 26  0x80b8        0 LOC  NULL .ARC     IRQ_VECT_7
 27  0x81b8        0 LOC  NULL .ARC     IRQ_FUNC_7
 28  0x80c0        0 LOC  NULL .ARC     IRQ_VECT_8
 29  0x81c0        0 LOC  NULL .ARC     IRQ_FUNC_8
 30  0x80c8        0 LOC  NULL .ARC     IRQ_VECT_9
 31  0x81c8        0 LOC  NULL .ARC     IRQ_FUNC_9
 32  0x80d0        0 LOC  NULL .ARC     IRQ_VECT_10
 33  0x81d0        0 LOC  NULL .ARC     IRQ_FUNC_10
 34  0x80d8        0 LOC  NULL .ARC     IRQ_VECT_11
 35  0x81d8        0 LOC  NULL .ARC     IRQ_FUNC_11
 36  0x80e0        0 LOC  NULL .ARC     IRQ_VECT_12
 37  0x81e0        0 LOC  NULL .ARC     IRQ_FUNC_12
 38  0x80e8        0 LOC  NULL .ARC     IRQ_VECT_13
 39  0x81e8        0 LOC  NULL .ARC     IRQ_FUNC_13
 40  0x80f0        0 LOC  NULL .ARC     IRQ_VECT_14
 41  0x81f0        0 LOC  NULL .ARC     IRQ_FUNC_14
 42  0x80f8        0 LOC  NULL .ARC     IRQ_VECT_15
 43  0x81f8        0 LOC  NULL .ARC     IRQ_FUNC_15
 44  0x8100        0 LOC  NULL .ARC     IRQ_VECT_16
 45  0x8200        0 LOC  NULL .ARC     IRQ_FUNC_16
 46  0x8108        0 LOC  NULL .ARC     IRQ_VECT_17
 47  0x8208        0 LOC  NULL .ARC     IRQ_FUNC_17
 48  0x8110        0 LOC  NULL .ARC     IRQ_VECT_18
 49  0x8210        0 LOC  NULL .ARC     IRQ_FUNC_18
 50  0x8118        0 LOC  NULL .ARC     IRQ_VECT_19
 51  0x8218        0 LOC  NULL .ARC     IRQ_FUNC_19
 52  0x8120        0 LOC  NULL .ARC     IRQ_VECT_20
 53  0x8220        0 LOC  NULL .ARC     IRQ_FUNC_20
 54  0x8128        0 LOC  NULL .ARC     IRQ_VECT_21
 55  0x8228        0 LOC  NULL .ARC     IRQ_FUNC_21
 56  0x8130        0 LOC  NULL .ARC     IRQ_VECT_22
 57  0x8230        0 LOC  NULL .ARC     IRQ_FUNC_22
 58  0x8138        0 LOC  NULL .ARC     IRQ_VECT_23
 59  0x8238        0 LOC  NULL .ARC     IRQ_FUNC_23
 60  0x8140        0 LOC  NULL .ARC     IRQ_VECT_24
 61  0x8240        0 LOC  NULL .ARC     IRQ_FUNC_24
 62  0x8148        0 LOC  NULL .ARC     IRQ_VECT_25
 63  0x8248        0 LOC  NULL .ARC     IRQ_FUNC_25
 64  0x8150        0 LOC  NULL .ARC     IRQ_VECT_26
 65  0x8250        0 LOC  NULL .ARC     IRQ_FUNC_26
 66  0x8158        0 LOC  NULL .ARC     IRQ_VECT_27
 67  0x8258        0 LOC  NULL .ARC     IRQ_FUNC_27
 68  0x8160        0 LOC  NULL .ARC     IRQ_VECT_28
 69  0x8260        0 LOC  NULL .ARC     IRQ_FUNC_28
 70  0x8168        0 LOC  NULL .ARC     IRQ_VECT_29
 71  0x8268        0 LOC  NULL .ARC     IRQ_FUNC_29
 72  0x8170        0 LOC  NULL .ARC     IRQ_VECT_30
 73  0x8270        0 LOC  NULL .ARC     IRQ_FUNC_30
 74  0x8178        0 LOC  NULL .ARC     IRQ_VECT_31
 75  0x8278        0 LOC  NULL .ARC     IRQ_FUNC_31
 76  0x8000        0 LOC  FUNC .ARC     $t
 77  0x1c000003    0 LOC  NULL ABS      .regmask_lo
 78  0x0           0 LOC  FILE ABS      crti.s
 79  0x82c0        0 LOC  FUNC .fini    $t
 80  0x82b0        0 LOC  FUNC .fini    $t
 81  0x8344        0 LOC  FUNC .init    $t
 82  0x82d4        0 LOC  FUNC .init    $t
 83  0x98000000    0 LOC  NULL ABS      .regmask_lo
 84  0x0           0 LOC  FILE ABS      flasher.c
 85  0x17728       4 LOC  OBJ  .data    __version_string
 86  0x190a4      16 LOC  OBJ  .bss     __version_number
 87  0x190b4      16 LOC  OBJ  .bss     __version_date
 88  0x1772c      48 LOC  OBJ  .data    __version_months
 89  0x177c4       4 LOC  OBJ  .data    FLASHER_cvs_version
 90  0x15b14     280 LOC  FUNC .text    FlasherInit
 91  0x15c2c     116 LOC  FUNC .text    FlasherPrintf
 92  0x1629c    1476 LOC  FUNC .text    FlasherProgram8
 93  0x15ca0    1532 LOC  FUNC .text    FlasherProgram16
 94  0x16860    1428 LOC  FUNC .text    FlasherReport
 95  0x190c4     128 LOC  OBJ  .bss     buffer.L68
 96  0x15af0      36 LOC  FUNC .text    FlasherDelay
 97  0x15af0       0 LOC  FUNC .text    $t
 98  0x16860       0 LOC  FUNC .text    $t
 99  0x1629c       0 LOC  FUNC .text    $t
100  0x15ca0       0 LOC  FUNC .text    $t
101  0x15c2c       0 LOC  FUNC .text    $t
102  0x15b14       0 LOC  FUNC .text    $t
103  0x16f9c       0 LOC  FUNC .text    $t
104  0x16df4       0 LOC  FUNC .text    $t
105  0x16eec       0 LOC  FUNC .text    $t
106  0x9bffffff    0 LOC  NULL ABS      .regmask_lo
107  0xa000000     0 LOC  NULL ABS      .regmask_hi
108  0x0           0 LOC  FILE ABS      src/fm_debug.c
109  0x8c3c      132 LOC  FUNC .text    TxByte
110  0x1841c       1 LOC  OBJ  .data    TxByteCalled.L53
111  0x8efc       88 LOC  FUNC .text    Bin32ToHex
112  0x8360        0 LOC  FUNC .text    $t
113  0x87d4        0 LOC  OBJ  .text    $dl
114  0x88b0        0 LOC  FUNC .text    $t
115  0x9801f0ff    0 LOC  NULL ABS      .regmask_lo
116  0x8000000     0 LOC  NULL ABS      .regmask_hi
117  0x0           0 LOC  FILE ABS      src/gpio/fd_gpio.c
118  0x19144     448 LOC  OBJ  .bss     handles
119  0x18420       4 LOC  OBJ  .data    intHandle
120  0x18424      12 LOC  OBJ  .data    intData.L77
121  0x9110        0 LOC  FUNC .text    $t
122  0xf803ffff    0 LOC  NULL ABS      .regmask_lo
123  0x1a000000    0 LOC  NULL ABS      .regmask_hi
124  0x0           0 LOC  FILE ABS      src/uart/fd_uart.c
125  0x18430       4 LOC  OBJ  .data    uartData.L50
126  0x18434      12 LOC  OBJ  .data    intData.L51
127  0x18440      18 LOC  OBJ  .data    CvsVersion
128  0x18454       4 LOC  OBJ  .data    NotifyFunction
129  0x18458       4 LOC  OBJ  .data    RealBaudRate
130  0x1845c       1 LOC  OBJ  .data    InitDone
131  0x19304      20 LOC  OBJ  .bss     SetParamsData
132  0x19318      12 LOC  OBJ  .bss     UartStatics
133  0x18460       4 LOC  OBJ  .data    GpioRtsHandle
134  0x18464       4 LOC  OBJ  .data    GpioCtsHandle
135  0x18468       4 LOC  OBJ  .data    GpioTxHandle
136  0x1846c       4 LOC  OBJ  .data    GpioRxHandle
137  0x17120     212 LOC  OBJ  .rodata  BaudRateTable
138  0xa438      292 LOC  FUNC .text    getDataRateMode
139  0x9cfc        0 LOC  FUNC .text    $t
140  0xb803ffff    0 LOC  NULL ABS      .regmask_lo
141  0x1a000000    0 LOC  NULL ABS      .regmask_hi
142  0x0           0 LOC  FILE ABS      src/gpio/fd_gpio_priv.c
143  0xa6e4        0 LOC  FUNC .text    $t
144  0x9800601f    0 LOC  NULL ABS      .regmask_lo
145  0x0           0 LOC  FILE ABS      src/int/fd_int.c
146  0xabcc        0 LOC  FUNC .text    $t
147  0x9800e01f    0 LOC  NULL ABS      .regmask_lo
148  0x0           0 LOC  FILE ABS      src/int/fd_int_handler.c
149  0xaf3c        0 LOC  FUNC .text    $t
150  0x80000007    0 LOC  NULL ABS      .regmask_lo
151  0x0           0 LOC  FILE ABS      src/int/fd_int_priv.c
152  0x0           0 LOC  NULL ABS      .regmask_lo
153  0x0           0 LOC  FILE ABS      src_E/fh_arc.c
154  0xaf8c        0 LOC  FUNC .text    $t
155  0x90000003    0 LOC  NULL ABS      .regmask_lo
156  0x0           0 LOC  FILE ABS      src_E/fh_uart.c
157  0xb390        0 LOC  FUNC .text    $t
158  0x80000007    0 LOC  NULL ABS      .regmask_lo
159  0x0           0 LOC  FILE ABS      src_E/fh_gpio.c
160  0xb8f8        0 LOC  FUNC .text    $t
161  0x80000007    0 LOC  NULL ABS      .regmask_lo
162  0x0           0 LOC  FILE ABS      src_E/fh_upi.c
163  0xbd60        0 LOC  FUNC .text    $t
164  0x80000007    0 LOC  NULL ABS      .regmask_lo
165  0x0           0 LOC  FILE ABS      src_E/fh_ve.c
166  0xc380        0 LOC  FUNC .text    $t
167  0x8000000f    0 LOC  NULL ABS      .regmask_lo
168  0x0           0 LOC  FILE ABS      xcheckno.s
169  0x80000000    0 LOC  NULL ABS      .regmask_lo
170  0x0           0 LOC  FILE ABS      ../../../../c/std_g/pfnoflt.c
171  0xdb7c        0 LOC  FUNC .text    $t
172  0x0           0 LOC  NULL ABS      .regmask_lo
173  0x0           0 LOC  FILE ABS      ../../../../c/startup_g/arc_main.c
174  0xdb80        0 LOC  FUNC .text    $t
175  0x900fe003    0 LOC  NULL ABS      .regmask_lo
176  0x0           0 LOC  FILE ABS      ../../../../c/fio_g/sprintf.c
177  0xdd70       48 LOC  FUNC .text    prstr
178  0xdcdc        0 LOC  FUNC .text    $t
179  0x9800f01f    0 LOC  NULL ABS      .regmask_lo
180  0x0           0 LOC  FILE ABS      ../../../../c/fio_g/_iob.c
181  0x0           0 LOC  NULL ABS      .regmask_lo
182  0x0           0 LOC  FILE ABS      ../../../../c/fio_g/freopen.c
183  0xdda0        0 LOC  FUNC .text    $t
184  0x18          0 LOC  NULL ABS      .regmask_lo
185  0x0           0 LOC  FILE ABS      ../../../../c/fio_g/vfprintf.c
186  0xddf0       48 LOC  FUNC .text    prfile
187  0xddac        0 LOC  FUNC .text    $t
188  0x9000e00f    0 LOC  NULL ABS      .regmask_lo
189  0x0           0 LOC  FILE ABS      ../../../../c/fio_g/scanf.c
190  0xdf60       24 LOC  FUNC .text    _fscan
191  0xde20        0 LOC  FUNC .text    $t
192  0x9800e00f    0 LOC  NULL ABS      .regmask_lo
193  0x0           0 LOC  FILE ABS      strcmp.s
194  0xdf80        0 LOC  FUNC .text    $t
195  0x80001c0f    0 LOC  NULL ABS      .regmask_lo
196  0x0           0 LOC  FILE ABS      ../../../../c/std_g/nofloatp.c
197  0xe084      196 LOC  FUNC .text    uni_to_asc
198  0xe148       76 LOC  FUNC .text    _doprintnf.getnum
199  0x18c94       8 LOC  OBJ  .data    b.L64
200  0xe194      136 LOC  FUNC .text    _doprintnf.pad
201  0xe084        0 LOC  FUNC .text    $t
202  0xe330        0 LOC  OBJ  .text    $dh
203  0xe34c        0 LOC  FUNC .text    $t
204  0xe494        0 LOC  OBJ  .text    $dh
205  0xe4fc        0 LOC  FUNC .text    $t
206  0x9bfff83f    0 LOC  NULL ABS      .regmask_lo
207  0x10000000    0 LOC  NULL ABS      .regmask_hi
208  0x0           0 LOC  FILE ABS      ../../../../c/std_g/atexit.c
209  0x19324     144 LOC  OBJ  .bss     _atexit_list
210  0x18ce4       4 LOC  OBJ  .data    _atexit_count
211  0x18ce8       4 LOC  OBJ  .data    _atexit_lock
212  0xebe0       12 LOC  FUNC .text    __mod_I__cstdgatexitc0____________c_stdg_atexit_c_121
213  0xeb88       88 LOC  FUNC .text    doexit
214  0xeb14        0 LOC  FUNC .text    $t
215  0x82e4        0 LOC  FUNC .init    $t
216  0x9000e007    0 LOC  NULL ABS      .regmask_lo
217  0x0           0 LOC  FILE ABS      _enable.s
218  0xebec        0 LOC  FUNC .text    $t
219  0x80000000    0 LOC  NULL ABS      .regmask_lo
220  0x0           0 LOC  FILE ABS      ../../../../c/str_g/strlen.c
221  0xec10        0 LOC  FUNC .text    $t
222  0x90002007    0 LOC  NULL ABS      .regmask_lo
223  0x0           0 LOC  FILE ABS      ../../../../c/str_g/strcpy.c
224  0xec30        0 LOC  FUNC .text    $t
225  0x90006007    0 LOC  NULL ABS      .regmask_lo
226  0x0           0 LOC  FILE ABS      ../../../../c/std_g/exit.c
227  0x18cf8       4 LOC  OBJ  .data    called.L4
228  0xec6c        0 LOC  FUNC .text    $t
229  0x90002003    0 LOC  NULL ABS      .regmask_lo
230  0x0           0 LOC  FILE ABS      ../../../../c/std_g/initcopy.c
231  0xeca8       44 LOC  FUNC .text    _initdatCopy
232  0xeca4        0 LOC  FUNC .text    $t
233  0x9800f01f    0 LOC  NULL ABS      .regmask_lo
234  0x0           0 LOC  FILE ABS      invcache.s
235  0xee0c        0 LOC  NULL .text    dcache_wait
236  0xede0        0 LOC  FUNC .text    $t
237  0x80000003    0 LOC  NULL ABS      .regmask_lo
238  0x0           0 LOC  FILE ABS      memcpy.s
239  0xee30        0 LOC  FUNC .text    $t
240  0x800000ff    0 LOC  NULL ABS      .regmask_lo
241  0x10000000    0 LOC  NULL ABS      .regmask_hi
242  0x0           0 LOC  FILE ABS      ../../../../c/fio_g/_dofopen.c
243  0x18cfc       4 LOC  OBJ  .data    _iob_lock
244  0xf1e0       12 LOC  FUNC .text    __mod_D__cfiogdofopenc0____________c_fiog_dofopen_c_120
245  0xf1ec       12 LOC  FUNC .text    __mod_I__cfiogdofopenc0____________c_fiog_dofopen_c_120
246  0xeeec        0 LOC  FUNC .text    $t
247  0x82f4        0 LOC  FUNC .init    $t
248  0x980ff1ff    0 LOC  NULL ABS      .regmask_lo
249  0x10000000    0 LOC  NULL ABS      .regmask_hi
250  0x0           0 LOC  FILE ABS      ../../../../c/fio_g/filelock.c
251  0xf2e0       80 LOC  FUNC .text    __mod_D__cfiogfilelockc0____________c_fiog_filelock_c_120
252  0xf330       44 LOC  FUNC .text    __mod_I__cfiogfilelockc0____________c_fiog_filelock_c_120
253  0xf1f8        0 LOC  FUNC .text    $t
254  0x8314        0 LOC  FUNC .init    $t
255  0x90006003    0 LOC  NULL ABS      .regmask_lo
256  0x0           0 LOC  FILE ABS      ../../../../c/fio_g/fwrite.c
257  0xf35c        0 LOC  FUNC .text    $t
258  0x900ff80f    0 LOC  NULL ABS      .regmask_lo
259  0x10000000    0 LOC  NULL ABS      .regmask_hi
260  0x0           0 LOC  FILE ABS      ../../../../c/std_g/_doscan.c
261  0xf63c       52 LOC  FUNC .text    g
262  0xf670       36 LOC  FUNC .text    p
263  0xf694       96 LOC  FUNC .text    skip
264  0xf6f4      560 LOC  FUNC .text    gstr
265  0xf63c        0 LOC  FUNC .text    $t
266  0xfaa4        0 LOC  OBJ  .text    $dh
267  0xfb0c        0 LOC  FUNC .text    $t
268  0xff60        0 LOC  OBJ  .text    $db
269  0xff68        0 LOC  FUNC .text    $t
270  0x9bfff83f    0 LOC  NULL ABS      .regmask_lo
271  0x10000000    0 LOC  NULL ABS      .regmask_hi
272  0x0           0 LOC  FILE ABS      ../../../../c/fio_g/ungetc.c
273  0x10130       0 LOC  FUNC .text    $t
274  0x9003e007    0 LOC  NULL ABS      .regmask_lo
275  0x0           0 LOC  FILE ABS      ../../../../c/fio_g/fgetc.c
276  0x10284       0 LOC  FUNC .text    $t
277  0x9800100f    0 LOC  NULL ABS      .regmask_lo
278  0x0           0 LOC  FILE ABS      ../../../../c/std_g/wctomb.c
279  0x102bc       0 LOC  FUNC .text    $t
280  0x80000003    0 LOC  NULL ABS      .regmask_lo
281  0x0           0 LOC  FILE ABS      ../../../../c/std_g/wcstombs.c
282  0x102d4       0 LOC  FUNC .text    $t
283  0x8000100f    0 LOC  NULL ABS      .regmask_lo
284  0x10000000    0 LOC  NULL ABS      .regmask_hi
285  0x0           0 LOC  FILE ABS      ../../../../c/std_g/_stoi.c
286  0x10308       0 LOC  FUNC .text    $t
287  0x10458       0 LOC  OBJ  .text    $dh
288  0x10478       0 LOC  FUNC .text    $t
289  0x9007ffff    0 LOC  NULL ABS      .regmask_lo
290  0x10000000    0 LOC  NULL ABS      .regmask_hi
291  0x0           0 LOC  FILE ABS      ../../../../c/str_g/memchr.c
292  0x105c0       0 LOC  FUNC .text    $t
293  0x8000000f    0 LOC  NULL ABS      .regmask_lo
294  0x0           0 LOC  FILE ABS      ../../../../c/std_g/ctype.c
295  0x0           0 LOC  NULL ABS      .regmask_lo
296  0x0           0 LOC  FILE ABS      ../../../../c/str_g/_uchrchr.c
297  0x105f0       0 LOC  FUNC .text    $t
298  0x8000000f    0 LOC  NULL ABS      .regmask_lo
299  0x0           0 LOC  FILE ABS      ../../../../c/std_g/_lltos.c
300  0x1061c       0 LOC  FUNC .text    $t
301  0x10664       0 LOC  OBJ  .text    $dh
302  0x10684       0 LOC  FUNC .text    $t
303  0x983ff07f    0 LOC  NULL ABS      .regmask_lo
304  0x10000000    0 LOC  NULL ABS      .regmask_hi
305  0x0           0 LOC  FILE ABS      ../../../../c/std_g/_itos.c
306  0x10798       0 LOC  FUNC .text    $t
307  0x107dc       0 LOC  OBJ  .text    $dh
308  0x107fc       0 LOC  FUNC .text    $t
309  0x981ff01f    0 LOC  NULL ABS      .regmask_lo
310  0x10000000    0 LOC  NULL ABS      .regmask_hi
311  0x0           0 LOC  FILE ABS      ../../../../c/std_g/_cleanup.c
312  0x10990       0 LOC  FUNC .text    $t
313  0x90002001    0 LOC  NULL ABS      .regmask_lo
314  0x0           0 LOC  FILE ABS      ../../../../c/fio_g/_stdiolk.c
315  0x109d4       0 LOC  FUNC .text    $t
316  0x80000001    0 LOC  NULL ABS      .regmask_lo
317  0x0           0 LOC  FILE ABS      ../../../../c/fio_g/fclose.c
318  0x109e8      24 LOC  FUNC .text    free_mem
319  0x109e8       0 LOC  FUNC .text    $t
320  0x9003e003    0 LOC  NULL ABS      .regmask_lo
321  0x0           0 LOC  FILE ABS      ../../../../c/fio_g/_fd_shrd.c
322  0x10b54       0 LOC  FUNC .text    $t
323  0x80000001    0 LOC  NULL ABS      .regmask_lo
324  0x0           0 LOC  FILE ABS      ../../../../c/fio_g/locks.c
325  0x0           0 LOC  NULL ABS      .regmask_lo
326  0x0           0 LOC  FILE ABS      ../../../../c/fio_g/_finit.c
327  0x10b5c       0 LOC  FUNC .text    $t
328  0x9000600f    0 LOC  NULL ABS      .regmask_lo
329  0x0           0 LOC  FILE ABS      ../../../../c/fio_g/fflush.c
330  0x10c38       0 LOC  FUNC .text    $t
331  0x90006007    0 LOC  NULL ABS      .regmask_lo
332  0x0           0 LOC  FILE ABS      ../../../../c/str_g/f_memset.c
333  0x10d0c       0 LOC  FUNC .text    $t
334  0x8000101f    0 LOC  NULL ABS      .regmask_lo
335  0x10000000    0 LOC  NULL ABS      .regmask_hi
336  0x0           0 LOC  FILE ABS      ../../../../c/std_g/_doatofd.c
337  0x18d38      80 LOC  OBJ  .data    shf10
338  0x10da8       0 LOC  FUNC .text    $t
339  0x9bfff1ff    0 LOC  NULL ABS      .regmask_lo
340  0x0           0 LOC  FILE ABS      ../../../../c/std_g/_doatof.c
341  0x18d88      80 LOC  OBJ  .data    shf10
342  0x1115c       0 LOC  FUNC .text    $t
343  0x9bfff1ff    0 LOC  NULL ABS      .regmask_lo
344  0x0           0 LOC  FILE ABS      ../../../../c/std_g/_smalloc.c
345  0x11510       0 LOC  FUNC .text    $t
346  0x0           0 LOC  NULL ABS      .regmask_lo
347  0x0           0 LOC  FILE ABS      ../../../../c/std_g/malloc2.c
348  0x18ddc       1 LOC  OBJ  .data    _mwhbest_fit
349  0x18de8       4 LOC  OBJ  .data    _mwhitem_header_size
350  0x18dec       4 LOC  OBJ  .data    _mwhsegment_header_size
351  0x18df0       1 LOC  OBJ  .data    _mwh_corrupt_flag
352  0x18df8       4 LOC  OBJ  .data    checking
353  0x12960      12 LOC  FUNC .text    __mod_I__cstdgmalloc2c0____________c_stdg_malloc2_c_128
354  0x11518      40 LOC  FUNC .text    bad_free
355  0x11540     204 LOC  FUNC .text    bucket_for
356  0x1160c     112 LOC  FUNC .text    print_item
357  0x1167c      80 LOC  FUNC .text    print_segment
358  0x116cc      36 LOC  FUNC .text    display_item
359  0x116f0      16 LOC  FUNC .text    _dump_heap._Yield_2
360  0x1291c      68 LOC  FUNC .text    display_segment
361  0x1296c     128 LOC  FUNC .text    each_segment
362  0x11824     156 LOC  FUNC .text    corrupt
363  0x118c0     212 LOC  FUNC .text    search_free_chain
364  0x11994      64 LOC  FUNC .text    __find_heap_item._Yield_5._Yield_6
365  0x119d4      72 LOC  FUNC .text    __find_heap_item._Yield_5
366  0x1280c     244 LOC  FUNC .text    each_item
367  0x11a1c      52 LOC  FUNC .text    __find_heap_item
368  0x18e08      52 LOC  OBJ  .data    blen.L62
369  0x11a50      48 LOC  FUNC .text    _check_heap._Yield_3._Yield_4
370  0x11a80      36 LOC  FUNC .text    _check_heap._Yield_3
371  0x11be8      36 LOC  FUNC .text    remove_from_free_chain
372  0x11c0c     260 LOC  FUNC .text    add_to_free_chain
373  0x11d10      40 LOC  FUNC .text    free._Yield_7._Yield_8
374  0x11d38      36 LOC  FUNC .text    free._Yield_7
375  0x11e90     280 LOC  FUNC .text    init_malloc
376  0x11fa8     372 LOC  FUNC .text    alloc_segment
377  0x18e3c       1 LOC  OBJ  .data    _mwhfirst_time.L75
378  0x12900      28 LOC  FUNC .text    display_segment._Yield_1
379  0x11518       0 LOC  FUNC .text    $t
380  0x8334        0 LOC  FUNC .init    $t
381  0x9a3ffb7f    0 LOC  NULL ABS      .regmask_lo
382  0x10000000    0 LOC  NULL ABS      .regmask_hi
383  0x0           0 LOC  FILE ABS      ../../../../c/fio_g/fread.c
384  0x129ec       0 LOC  FUNC .text    $t
385  0x9007f80f    0 LOC  NULL ABS      .regmask_lo
386  0x10000000    0 LOC  NULL ABS      .regmask_hi
387  0x0           0 LOC  FILE ABS      ../../../../c/fio_g/_fclosfp.c
388  0x0           0 LOC  NULL ABS      .regmask_lo
389  0x0           0 LOC  FILE ABS      ../../../../c/fio_g/_fclosal.c
390  0x12d14     188 LOC  FUNC .text    close_files
391  0x12d14       0 LOC  FUNC .text    $t
392  0x9807f003    0 LOC  NULL ABS      .regmask_lo
393  0x0           0 LOC  FILE ABS      ../../../../c/fio_g/setvbuf.c
394  0x12de0       0 LOC  FUNC .text    $t
395  0x9001e00f    0 LOC  NULL ABS      .regmask_lo
396  0x0           0 LOC  FILE ABS      ../../../../c/fio_g/_flushal.c
397  0x12ee4       0 LOC  FUNC .text    $t
398  0x9807f003    0 LOC  NULL ABS      .regmask_lo
399  0x0           0 LOC  FILE ABS      ../../../../c/ieee_g/float.c
400  0x18efc       4 LOC  OBJ  .data    fpnan
401  0x18f00       4 LOC  OBJ  .data    fpinf
402  0x12f94       0 LOC  FUNC .text    $t
403  0x9800003f    0 LOC  NULL ABS      .regmask_lo
404  0x10000000    0 LOC  NULL ABS      .regmask_hi
405  0x0           0 LOC  FILE ABS      ../../../../c/std_g/_pow10d.c
406  0x18f10      80 LOC  OBJ  .data    scale
407  0x133f0       0 LOC  FUNC .text    $t
408  0x9001e00f    0 LOC  NULL ABS      .regmask_lo
409  0x0           0 LOC  FILE ABS      ../../../../c/std_g/_pow10.c
410  0x18f60      80 LOC  OBJ  .data    scale
411  0x13468       0 LOC  FUNC .text    $t
412  0x9001e00f    0 LOC  NULL ABS      .regmask_lo
413  0x0           0 LOC  FILE ABS      ../../../../c/misc_g/_rterr.c
414  0x13540     236 LOC  FUNC .text    local_vprintf
415  0x134e0      40 LOC  FUNC .text    putch
416  0x13508      56 LOC  FUNC .text    putstr
417  0x134e0       0 LOC  FUNC .text    $t
418  0x135b0       0 LOC  OBJ  .text    $dh
419  0x135dc       0 LOC  FUNC .text    $t
420  0x98007007    0 LOC  NULL ABS      .regmask_lo
421  0x0           0 LOC  FILE ABS      ../../../../c/std_g/abort.c
422  0x13660       0 LOC  FUNC .text    $t
423  0x90000001    0 LOC  NULL ABS      .regmask_lo
424  0x0           0 LOC  FILE ABS      ../../../../c/fio_g/_fill.c
425  0x13678       0 LOC  FUNC .text    $t
426  0x90006007    0 LOC  NULL ABS      .regmask_lo
427  0x0           0 LOC  FILE ABS      ../../../../c/std_g/_ultoa.c
428  0x13790       0 LOC  FUNC .text    $t
429  0x900fe03f    0 LOC  NULL ABS      .regmask_lo
430  0x0           0 LOC  FILE ABS      ../../../../c/std_g/signal.c
431  0x18fd0       4 LOC  OBJ  .data    flag.L13
432  0x13850       0 LOC  FUNC .text    $t
433  0x9003e00f    0 LOC  NULL ABS      .regmask_lo
434  0x0           0 LOC  FILE ABS      ../../../../c/std_g/_strrev.c
435  0x13a44       0 LOC  FUNC .text    $t
436  0x9000200f    0 LOC  NULL ABS      .regmask_lo
437  0x0           0 LOC  FILE ABS      ../../../../mw/misc_g/mwdctor.c
438  0x18fd4      16 LOC  OBJ  .data    cdtor
439  0x13a98     128 LOC  FUNC .text    priority_enq
440  0x18fe4       4 LOC  OBJ  .data    called.L16
441  0x13a98       0 LOC  FUNC .text    $t
442  0x9000207f    0 LOC  NULL ABS      .regmask_lo
443  0x0           0 LOC  FILE ABS      divnorm.s
444  0x13c70       0 LOC  NULL .text    _divide_normbs
445  0x13cc4       0 LOC  NULL .text    divloop_end
446  0x13c4c       0 LOC  FUNC .text    $t
447  0x800001ef    0 LOC  NULL ABS      .regmask_lo
448  0x10000000    0 LOC  NULL ABS      .regmask_hi
449  0x0           0 LOC  FILE ABS      mc_pro.s
450  0x0           0 LOC  NULL ABS      FASTER_PROLOG
451  0x13cdc       0 LOC  FUNC .text    $t
452  0x9ffff400    0 LOC  NULL ABS      .regmask_lo
453  0x0           0 LOC  FILE ABS      mc_epic.s
454  0x0           0 LOC  NULL ABS      FASTER_EPILOG
455  0x13e4c       0 LOC  FUNC .text    $t
456  0x9ffff000    0 LOC  NULL ABS      .regmask_lo
457  0x0           0 LOC  FILE ABS      ../../../../mw/stub_g/argv.c
458  0x18fe8       8 LOC  OBJ  .data    tmp_argv
459  0x13f04       0 LOC  FUNC .text    $t
460  0x80000001    0 LOC  NULL ABS      .regmask_lo
461  0x0           0 LOC  FILE ABS      ../../../../mw/str_g/_memclr.c
462  0x13f20       0 LOC  FUNC .text    $t
463  0x13f90       0 LOC  OBJ  .text    $dh
464  0x13fa0       0 LOC  FUNC .text    $t
465  0x8000100f    0 LOC  NULL ABS      .regmask_lo
466  0x0           0 LOC  FILE ABS      ../../../../mw/mw_g/startk.c
467  0x1402c       0 LOC  FUNC .text    $t
468  0x80000000    0 LOC  NULL ABS      .regmask_lo
469  0x0           0 LOC  FILE ABS      mc_va.s
470  0x14030       0 LOC  FUNC .text    $t
471  0x900000ff    0 LOC  NULL ABS      .regmask_lo
472  0x0           0 LOC  FILE ABS      mc_ldst.s
473  0x14054       0 LOC  FUNC .text    $t
474  0x97ffe000    0 LOC  NULL ABS      .regmask_lo
475  0x0           0 LOC  FILE ABS      ../../../../mw/misc_g/errnog.c
476  0x140cc       0 LOC  FUNC .text    $t
477  0x90000001    0 LOC  NULL ABS      .regmask_lo
478  0x0           0 LOC  FILE ABS      ../../../../mw/misc_g/mutexg.c
479  0x140e4       0 LOC  FUNC .text    $t
480  0x80000000    0 LOC  NULL ABS      .regmask_lo
481  0x0           0 LOC  FILE ABS      ../../../../mw/stub_g/_exit.c
482  0x140f4       0 LOC  FUNC .text    $t
483  0x0           0 LOC  NULL ABS      .regmask_lo
484  0x0           0 LOC  FILE ABS      ../../../../mw/stub_g/close.c
485  0x140f8       0 LOC  FUNC .text    $t
486  0x90002001    0 LOC  NULL ABS      .regmask_lo
487  0x0           0 LOC  FILE ABS      ../../../../mw/hl_g/remove.c
488  0x14114       0 LOC  FUNC .text    $t
489  0x0           0 LOC  NULL ABS      .regmask_lo
490  0x0           0 LOC  FILE ABS      ../../../../mw/stub_g/lseek.c
491  0x14118       0 LOC  FUNC .text    $t
492  0x90002001    0 LOC  NULL ABS      .regmask_lo
493  0x0           0 LOC  FILE ABS      div.s
494  0x14134       0 LOC  FUNC .text    $t
495  0x800000e7    0 LOC  NULL ABS      .regmask_lo
496  0x10000000    0 LOC  NULL ABS      .regmask_hi
497  0x0           0 LOC  FILE ABS      cvtdf.s
498  0x800000      0 LOC  NULL ABS      FHIDDEN_BIT
499  0x100000      0 LOC  NULL ABS      DHIDDEN_BIT
500  0x1000000     0 LOC  NULL ABS      FOVF_BIT
501  0x200000      0 LOC  NULL ABS      DOVF_BIT
502  0xff          0 LOC  NULL ABS      FEXP_MAX
503  0x7ff         0 LOC  NULL ABS      DEXP_MAX
504  0x7f          0 LOC  NULL ABS      FEXP_BIAS
505  0x3ff         0 LOC  NULL ABS      DEXP_BIAS
506  0x2           0 LOC  NULL ABS      GB
507  0x18          0 LOC  NULL ABS      FMANT_BITS
508  0x35          0 LOC  NULL ABS      DMANT_BITS
509  0x14484       0 LOC  NULL .text    zero_hi
510  0x1424c       0 LOC  NULL .text    extract
511  0x1444c       0 LOC  NULL .text    nan_or_inf
512  0x1439c       0 LOC  NULL .text    denormal
513  0x14344       0 LOC  NULL .text    normalize
514  0x14328       0 LOC  NULL .text    round_up
515  0x1443c       0 LOC  NULL .text    exp_ovf
516  0x1435c       0 LOC  NULL .text    untrans
517  0x14408       0 LOC  NULL .text    no_denormal_round
518  0x143e4       0 LOC  NULL .text    no_denormal_sticky
519  0x1440c       0 LOC  NULL .text    round_denormal
520  0x1442c       0 LOC  NULL .text    shift_denormal
521  0x14474       0 LOC  NULL .text    NaN
522  0x14240       0 LOC  FUNC .text    $t
523  0x80001557    0 LOC  NULL ABS      .regmask_lo
524  0x10000000    0 LOC  NULL ABS      .regmask_hi
525  0x0           0 LOC  FILE ABS      lmpy.s
526  0x14498       0 LOC  FUNC .text    $t
527  0x8000180f    0 LOC  NULL ABS      .regmask_lo
528  0x10000000    0 LOC  NULL ABS      .regmask_hi
529  0x0           0 LOC  FILE ABS      lsrl.s
530  0x14514       0 LOC  FUNC .text    $t
531  0x80000007    0 LOC  NULL ABS      .regmask_lo
532  0x10000000    0 LOC  NULL ABS      .regmask_hi
533  0x0           0 LOC  FILE ABS      ldiv.s
534  0x14660       0 LOC  NULL .text    _div0
535  0x1452c       0 LOC  FUNC .text    $t
536  0x80001c3f    0 LOC  NULL ABS      .regmask_lo
537  0x10000000    0 LOC  NULL ABS      .regmask_hi
538  0x0           0 LOC  FILE ABS      dmul.s
539  0x800000      0 LOC  NULL ABS      FHIDDEN_BIT
540  0x100000      0 LOC  NULL ABS      DHIDDEN_BIT
541  0x1000000     0 LOC  NULL ABS      FOVF_BIT
542  0x200000      0 LOC  NULL ABS      DOVF_BIT
543  0xff          0 LOC  NULL ABS      FEXP_MAX
544  0x7ff         0 LOC  NULL ABS      DEXP_MAX
545  0x7f          0 LOC  NULL ABS      FEXP_BIAS
546  0x3ff         0 LOC  NULL ABS      DEXP_BIAS
547  0x2           0 LOC  NULL ABS      GB
548  0x18          0 LOC  NULL ABS      FMANT_BITS
549  0x35          0 LOC  NULL ABS      DMANT_BITS
550  0x14674       0 LOC  NULL .text    full_entry
551  0x14ad4       0 LOC  NULL .text    opd2_0
552  0x14aa8       0 LOC  NULL .text    opd1_0
553  0x14a34       0 LOC  NULL .text    nan_or_inf_1
554  0x14a7c       0 LOC  NULL .text    nan_or_inf_2
555  0x14894       0 LOC  NULL .text    noround
556  0x1488c       0 LOC  NULL .text    inc_mantissa
557  0x14a0c       0 LOC  NULL .text    exp_ovf
558  0x14908       0 LOC  NULL .text    denormal
559  0x148c0       0 LOC  NULL .text    untrans
560  0x14a24       0 LOC  NULL .text    underflow
561  0x149c8       0 LOC  NULL .text    shift_left_once
562  0x149d0       0 LOC  NULL .text    round_denormal
563  0x149f4       0 LOC  NULL .text    shift_denormal
564  0x14aec       0 LOC  NULL .text    return_NAN
565  0x14abc       0 LOC  NULL .text    return_zero
566  0x14674       0 LOC  FUNC .text    $t
567  0x80001fff    0 LOC  NULL ABS      .regmask_lo
568  0x10000000    0 LOC  NULL ABS      .regmask_hi
569  0x0           0 LOC  FILE ABS      dflt.s
570  0x800000      0 LOC  NULL ABS      FHIDDEN_BIT
571  0x100000      0 LOC  NULL ABS      DHIDDEN_BIT
572  0x1000000     0 LOC  NULL ABS      FOVF_BIT
573  0x200000      0 LOC  NULL ABS      DOVF_BIT
574  0xff          0 LOC  NULL ABS      FEXP_MAX
575  0x7ff         0 LOC  NULL ABS      DEXP_MAX
576  0x7f          0 LOC  NULL ABS      FEXP_BIAS
577  0x3ff         0 LOC  NULL ABS      DEXP_BIAS
578  0x2           0 LOC  NULL ABS      GB
579  0x18          0 LOC  NULL ABS      FMANT_BITS
580  0x35          0 LOC  NULL ABS      DMANT_BITS
581  0x14bd4       0 LOC  NULL .text    zero
582  0x14bb8       0 LOC  NULL .text    big_int
583  0x14b70       0 LOC  NULL .text    untrans
584  0x14afc       0 LOC  FUNC .text    $t
585  0x80000057    0 LOC  NULL ABS      .regmask_lo
586  0x0           0 LOC  FILE ABS      dadd.s
587  0x800000      0 LOC  NULL ABS      FHIDDEN_BIT
588  0x100000      0 LOC  NULL ABS      DHIDDEN_BIT
589  0x1000000     0 LOC  NULL ABS      FOVF_BIT
590  0x200000      0 LOC  NULL ABS      DOVF_BIT
591  0xff          0 LOC  NULL ABS      FEXP_MAX
592  0x7ff         0 LOC  NULL ABS      DEXP_MAX
593  0x7f          0 LOC  NULL ABS      FEXP_BIAS
594  0x3ff         0 LOC  NULL ABS      DEXP_BIAS
595  0x2           0 LOC  NULL ABS      GB
596  0x18          0 LOC  NULL ABS      FMANT_BITS
597  0x35          0 LOC  NULL ABS      DMANT_BITS
598  0x14ebc       0 LOC  NULL .text    opd1_upper_zero
599  0x14c00       0 LOC  NULL .text    opd1_not_zero
600  0x14ef4       0 LOC  NULL .text    opd2_upper_zero
601  0x14c0c       0 LOC  NULL .text    opd2_not_zero
602  0x14c3c       0 LOC  NULL .text    noswap
603  0x15114       0 LOC  NULL .text    nan_or_inf_1
604  0x15184       0 LOC  NULL .text    nan_or_inf_2
605  0x14e74       0 LOC  NULL .text    untrans
606  0x14db8       0 LOC  NULL .text    noshift
607  0x14d9c       0 LOC  NULL .text    shift
608  0x15030       0 LOC  NULL .text    signs_differ
609  0x14ddc       0 LOC  NULL .text    check_overflow
610  0x14e00       0 LOC  NULL .text    check_rounding
611  0x14e58       0 LOC  NULL .text    normalize
612  0x14f0c       0 LOC  NULL .text    denormal
613  0x15008       0 LOC  NULL .text    exp_ovf
614  0x14eec       0 LOC  NULL .text    return_opd2
615  0x14fc4       0 LOC  NULL .text    shift_left_once
616  0x14fcc       0 LOC  NULL .text    round_denormal
617  0x14ff0       0 LOC  NULL .text    shift_denormal
618  0x15020       0 LOC  NULL .text    underflow
619  0x15094       0 LOC  NULL .text    droundup
620  0x150d8       0 LOC  NULL .text    fix_mantissa
621  0x150ec       0 LOC  NULL .text    loop
622  0x15130       0 LOC  NULL .text    return_NAN
623  0x15174       0 LOC  NULL .text    return_INF
624  0x14be0       0 LOC  FUNC .text    $t
625  0x80001dff    0 LOC  NULL ABS      .regmask_lo
626  0x10000000    0 LOC  NULL ABS      .regmask_hi
627  0x0           0 LOC  FILE ABS      ddiv.s
628  0x800000      0 LOC  NULL ABS      FHIDDEN_BIT
629  0x100000      0 LOC  NULL ABS      DHIDDEN_BIT
630  0x1000000     0 LOC  NULL ABS      FOVF_BIT
631  0x200000      0 LOC  NULL ABS      DOVF_BIT
632  0xff          0 LOC  NULL ABS      FEXP_MAX
633  0x7ff         0 LOC  NULL ABS      DEXP_MAX
634  0x7f          0 LOC  NULL ABS      FEXP_BIAS
635  0x3ff         0 LOC  NULL ABS      DEXP_BIAS
636  0x2           0 LOC  NULL ABS      GB
637  0x18          0 LOC  NULL ABS      FMANT_BITS
638  0x35          0 LOC  NULL ABS      DMANT_BITS
639  0x151a8       0 LOC  NULL .text    full_entry
640  0x151a8       0 LOC  NULL .text    old_entry_for_slow_divide
641  0x15568       0 LOC  NULL .text    divide_by_zero
642  0x155a8       0 LOC  NULL .text    dividend_zero
643  0x155e4       0 LOC  NULL .text    nan_or_inf_1
644  0x15628       0 LOC  NULL .text    nan_or_inf_2
645  0x15418       0 LOC  NULL .text    denormal_
646  0x153b0       0 LOC  NULL .text    noround
647  0x1538c       0 LOC  NULL .text    roundup
648  0x15540       0 LOC  NULL .text    exp_ovf
649  0x153d0       0 LOC  NULL .text    untrans
650  0x15438       0 LOC  NULL .text    denormal
651  0x15558       0 LOC  NULL .text    underflow
652  0x154fc       0 LOC  NULL .text    shift_left_once
653  0x15504       0 LOC  NULL .text    round_denormal
654  0x15528       0 LOC  NULL .text    shift_denormal
655  0x15604       0 LOC  NULL .text    return_NAN
656  0x15614       0 LOC  NULL .text    return_INF
657  0x15190       0 LOC  FUNC .text    $t
658  0x80001fff    0 LOC  NULL ABS      .regmask_lo
659  0x10000000    0 LOC  NULL ABS      .regmask_hi
660  0x0           0 LOC  FILE ABS      ../../../../mw/386em_g/a5_dcmp.s
661  0x800000      0 LOC  NULL ABS      FHIDDEN_BIT
662  0x100000      0 LOC  NULL ABS      DHIDDEN_BIT
663  0x1000000     0 LOC  NULL ABS      FOVF_BIT
664  0x200000      0 LOC  NULL ABS      DOVF_BIT
665  0xff          0 LOC  NULL ABS      FEXP_MAX
666  0x7ff         0 LOC  NULL ABS      DEXP_MAX
667  0x7f          0 LOC  NULL ABS      FEXP_BIAS
668  0x3ff         0 LOC  NULL ABS      DEXP_BIAS
669  0x2           0 LOC  NULL ABS      GB
670  0x18          0 LOC  NULL ABS      FMANT_BITS
671  0x35          0 LOC  NULL ABS      DMANT_BITS
672  0x15684       0 LOC  NULL .text    dcmp_nan
673  0x156a8       0 LOC  NULL .text    dcmp_ret
674  0x156a4       0 LOC  NULL .text    dcmp_ret0
675  0x15700       0 LOC  NULL .text    test_0
676  0x1564c       0 LOC  FUNC .text    $t
677  0x9000100f    0 LOC  NULL ABS      .regmask_lo
678  0x0           0 LOC  FILE ABS      mc_epi4c.s
679  0x0           0 LOC  NULL ABS      FASTER_EPILOG
680  0x15720       0 LOC  FUNC .text    $t
681  0x9ffff000    0 LOC  NULL ABS      .regmask_lo
682  0x0           0 LOC  FILE ABS      ../../../../mw/hl_g/sbrk.c
683  0x19000       1 LOC  OBJ  .data    __mwheap_init
684  0x19004       4 LOC  OBJ  .data    __mwheap_end
685  0x19008       4 LOC  OBJ  .data    __mwheap_cur
686  0x157dc       0 LOC  FUNC .text    $t
687  0x8000001f    0 LOC  NULL ABS      .regmask_lo
688  0x0           0 LOC  FILE ABS      ../../../../mw/stub_g/getenv.c
689  0x15888     148 LOC  FUNC .text    getenv_common
690  0x19694     128 LOC  OBJ  .bss     buf.L12
691  0x19714     128 LOC  OBJ  .bss     buf.L10
692  0x15888       0 LOC  FUNC .text    $t
693  0x9003e007    0 LOC  NULL ABS      .regmask_lo
694  0x0           0 LOC  FILE ABS      div0.s
695  0x15934       0 LOC  FUNC .text    $t
696  0x80000001    0 LOC  NULL ABS      .regmask_lo
697  0x0           0 LOC  FILE ABS      ../../../../mw/misc_g/tlsctorg.c
698  0x1900c       4 LOC  OBJ  .data    first.L5
699  0x15954       0 LOC  FUNC .text    $t
700  0x90000003    0 LOC  NULL ABS      .regmask_lo
701  0x0           0 LOC  FILE ABS      ../../../../mw/stub_g/unlink.c
702  0x15988       0 LOC  FUNC .text    $t
703  0x90002001    0 LOC  NULL ABS      .regmask_lo
704  0x0           0 LOC  FILE ABS      ../../../../mw/hl_g/environ.c
705  0x19010     128 LOC  OBJ  .data    settings
706  0x159a4       0 LOC  FUNC .text    $t
707  0x80000000    0 LOC  NULL ABS      .regmask_lo
708  0x0           0 LOC  FILE ABS      ../../../../c/str_g/strncmp.c
709  0x159a8       0 LOC  FUNC .text    $t
710  0x9000e007    0 LOC  NULL ABS      .regmask_lo
711  0x0           0 LOC  FILE ABS      mc_epic.s
712  0x0           0 LOC  NULL ABS      FASTER_EPILOG
713  0x159e8       0 LOC  FUNC .text    $t
714  0x9ffff000    0 LOC  NULL ABS      .regmask_lo
715  0x0           0 LOC  FILE ABS      ../../../../c/str_g/memcmp.c
716  0x15aa0       0 LOC  FUNC .text    $t
717  0x8000001f    0 LOC  NULL ABS      .regmask_lo
718  0x8000        0 GLOB NULL .ARC     _codestart
719  0x8000        0 GLOB FUNC .ARC     _start
720  0x8064        0 GLOB FUNC .ARC     _exit_halt
721  0x8298        0 GLOB NULL .ARC     MemError
722  0x8280        0 GLOB NULL .ARC     InstError
723  0x8080        0 GLOB NULL .ARC     IntBaseVectTable
724  0x8180        0 GLOB NULL .ARC     IntBaseVectTableEnd
725  0x8180        0 GLOB NULL .ARC     IntBaseFuncTable
726  0x8280        0 GLOB NULL .ARC     IntBaseFuncTableEnd
727  0x0           0 WEAK NULL ABS      _fsbss
728  0x0           0 WEAK NULL ABS      _esbss
729  0x82d4        0 GLOB NULL .init    _init
730  0x82b0        0 GLOB NULL .fini    _fini
731  0x0           0 GLOB NULL ABS      .CC_I
732  0x16eec     176 GLOB FUNC .text    VersionGetNumber
733  0x16df4     248 GLOB FUNC .text    VersionGetDate
734  0x16f9c     388 GLOB FUNC .text    main
735  0x1841b       1 GLOB OBJ  .data    OutputDevice
736  0x8360      292 GLOB FUNC .text    FM_DEBUG_Init
737  0x8484      124 GLOB FUNC .text    FM_Printf
738  0x8500      128 GLOB FUNC .text    FM_Scanf
739  0x8580      224 GLOB FUNC .text    FM_ScanStr
740  0x8660      240 GLOB FUNC .text    FM_LimScanStr
741  0x8750      600 GLOB FUNC .text    FM_ScanNum
742  0x89a8      172 GLOB FUNC .text    FM_DEBUG_SetOutputDevice
743  0x8a54       16 GLOB FUNC .text    FM_DEBUG_GetOutputDevice
744  0x8a64       56 GLOB FUNC .text    FM_DEBUG_ReadChar
745  0x8a9c       52 GLOB FUNC .text    FM_DEBUG_CheckRxBuffer
746  0x8ad0      120 GLOB FUNC .text    _write
747  0x8b48      108 GLOB FUNC .text    _read
748  0x8bb4      128 GLOB FUNC .text    _open
749  0x8c34        8 GLOB FUNC .text    _isatty
750  0x8cc0      132 GLOB FUNC .text    FM_PrStr
751  0x8d44       32 GLOB FUNC .text    FM_PrintChar
752  0x8d64       56 GLOB FUNC .text    FM_ReceiveChar
753  0x8d9c       52 GLOB FUNC .text    FM_PrStrStr
754  0x8dd0       60 GLOB FUNC .text    FM_PrHex
755  0x8e0c       80 GLOB FUNC .text    FM_PrCStrHex2
756  0x8e5c       80 GLOB FUNC .text    FM_PrCStrHex4
757  0x8eac       80 GLOB FUNC .text    FM_PrCStrHex8
758  0x8f54      252 GLOB FUNC .text    FM_PrInt
759  0x9050      192 GLOB FUNC .text    FM_PrU32
760  0x9110      332 GLOB FUNC .text    FD_GPIO_Init
761  0x9a44      240 GLOB FUNC .text    FD_GPIO_LOW_ISR
762  0x9b34      240 GLOB FUNC .text    FD_GPIO_MID_ISR
763  0x9c24      216 GLOB FUNC .text    FD_GPIO_Handler
764  0x925c      240 GLOB FUNC .text    FD_GPIO_Terminate
765  0x95d8      244 GLOB FUNC .text    FD_GPIO_Close
766  0x934c      604 GLOB FUNC .text    FD_GPIO_Open
767  0x95a8       48 GLOB FUNC .text    FD_GPIO_OpenFunctionMode
768  0x9a1c       40 GLOB FUNC .text    checkHandle
769  0x96cc      264 GLOB FUNC .text    FD_GPIO_SetType
770  0x97d4      176 GLOB FUNC .text    FD_GPIO_Read
771  0x9884      148 GLOB FUNC .text    FD_GPIO_Write
772  0x9918      120 GLOB FUNC .text    FD_GPIO_EnableInterrupt
773  0x9990      140 GLOB FUNC .text    FD_GPIO_DisableInterrupt
774  0xa68c       88 GLOB FUNC .text    FD_UART_Processor
775  0x9cfc      108 GLOB FUNC .text    FD_UART_CheckRxBuffer
776  0x9d68      192 GLOB FUNC .text    FD_UART_Close
777  0x9e28       80 GLOB FUNC .text    FD_UART_Flush
778  0x9e78       72 GLOB FUNC .text    FD_UART_GetParams
779  0x9ec0       40 GLOB FUNC .text    FD_UART_GetRealBaudRate
780  0x9ee8       12 GLOB FUNC .text    FD_UART_GetRevisionString
781  0x9ef4       56 GLOB FUNC .text    FD_UART_GetStatistics
782  0x9f2c      196 GLOB FUNC .text    FD_UART_Init
783  0xa1b4      492 GLOB FUNC .text    FD_UART_SetParams
784  0x9ff0      300 GLOB FUNC .text    FD_UART_Open
785  0xa11c      152 GLOB FUNC .text    FD_UART_Read
786  0xa3a0      152 GLOB FUNC .text    FD_UART_Write
787  0xa55c      240 GLOB FUNC .text    uartISR
788  0xa64c       64 GLOB FUNC .text    FD_UART_Handler
789  0xa6e4       28 GLOB FUNC .text    fd_gpio_setbit
790  0xa700       92 GLOB FUNC .text    fd_gpio_getDataInReg
791  0xa75c      368 GLOB FUNC .text    fd_gpio_setDataReg
792  0xa8cc      128 GLOB FUNC .text    fd_gpio_setDirectionReg
793  0xa94c      128 GLOB FUNC .text    fd_gpio_setOpenDrainReg
794  0xa9cc      128 GLOB FUNC .text    fd_gpio_setMuxSelectReg
795  0xaa4c      128 GLOB FUNC .text    fd_gpio_setIRQLevelReg
796  0xaacc      128 GLOB FUNC .text    fd_gpio_setIRQPolarityReg
797  0xab4c      128 GLOB FUNC .text    fd_gpio_setIRQEnableReg
798  0xabcc      264 GLOB FUNC .text    FD_INT_Init
799  0xaee0       56 GLOB FUNC .text    FD_INT_SetVector
800  0xacd4      372 GLOB FUNC .text    FD_INT_Open
801  0xae48      152 GLOB FUNC .text    FD_INT_Close
802  0xaf18       36 GLOB FUNC .text    FD_INT_InvalidateInstructionCache
803  0xaf3c       36 GLOB FUNC .text    FD_INT_SetHandler
804  0xaf60       44 GLOB FUNC .text    FD_INT_GetHandler
805  0x18470       4 GLOB OBJ  .data    IrqPrioRegister
806  0x18474       4 GLOB OBJ  .data    IrqSensRegister
807  0x18478       4 GLOB OBJ  .data    IrqsInUse
808  0xaf8c        8 GLOB FUNC .text    FH_ARC_set_AuxStatus
809  0xaf94        8 GLOB FUNC .text    FH_ARC_get_AuxStatus
810  0xaf9c        8 GLOB FUNC .text    FH_ARC_set_AuxSemaphore
811  0xafa4        8 GLOB FUNC .text    FH_ARC_get_AuxSemaphore
812  0xafac        8 GLOB FUNC .text    FH_ARC_set_AuxLoopStart
813  0xafb4        8 GLOB FUNC .text    FH_ARC_get_AuxLoopStart
814  0xafbc        8 GLOB FUNC .text    FH_ARC_set_AuxLoopStop
815  0xafc4        8 GLOB FUNC .text    FH_ARC_get_AuxLoopStop
816  0xafcc        8 GLOB FUNC .text    FH_ARC_get_AuxIdentity
817  0xafd4        8 GLOB FUNC .text    FH_ARC_get_AuxDebug
818  0xafdc        8 GLOB FUNC .text    FH_ARC_set_AuxInvalidateICache
819  0xafe4        8 GLOB FUNC .text    FH_ARC_get_AuxInvalidateICache
820  0xafec        8 GLOB FUNC .text    FH_ARC_set_AuxCacheControl
821  0xaff4        8 GLOB FUNC .text    FH_ARC_get_AuxCacheControl
822  0xaffc       20 GLOB FUNC .text    FH_ARC_set_AuxMulHigh
823  0xb010       16 GLOB FUNC .text    FH_ARC_getm_AuxMulHigh
824  0xb020        8 GLOB FUNC .text    FH_ARC_set_AuxTimer1
825  0xb028        8 GLOB FUNC .text    FH_ARC_get_AuxTimer1
826  0xb030       32 GLOB FUNC .text    FH_ARC_set_AuxTimer1_M
827  0xb050       24 GLOB FUNC .text    FH_ARC_get_AuxTimer1_M
828  0xb068       32 GLOB FUNC .text    FH_ARC_set_AuxTimer1_N
829  0xb088       24 GLOB FUNC .text    FH_ARC_get_AuxTimer1_N
830  0xb0a0        8 GLOB FUNC .text    FH_ARC_set_AuxTimer2
831  0xb0a8        8 GLOB FUNC .text    FH_ARC_get_AuxTimer2
832  0xb0b0       32 GLOB FUNC .text    FH_ARC_set_AuxTimer2_M
833  0xb0d0       24 GLOB FUNC .text    FH_ARC_get_AuxTimer2_M
834  0xb0e8       32 GLOB FUNC .text    FH_ARC_set_AuxTimer2_N
835  0xb108       24 GLOB FUNC .text    FH_ARC_get_AuxTimer2_N
836  0xb120        8 GLOB FUNC .text    FH_ARC_set_AuxTimeStampTimer
837  0xb128        8 GLOB FUNC .text    FH_ARC_get_AuxTimeStampTimer
838  0xb130        8 GLOB FUNC .text    FH_ARC_set_AuxInvalidateDCache
839  0xb138        8 GLOB FUNC .text    FH_ARC_get_AuxInvalidateDCache
840  0xb140       12 GLOB FUNC .text    FH_ARC_set_AuxIRQLevel
841  0xb14c       12 GLOB FUNC .text    FH_ARC_get_AuxIRQLevel
842  0xb158       24 GLOB FUNC .text    FH_ARC_set_AuxIRQHint
843  0xb170       16 GLOB FUNC .text    FH_ARC_getm_AuxIRQHint
844  0xb180       12 GLOB FUNC .text    FH_ARC_set_AuxIRQMask
845  0xb18c       12 GLOB FUNC .text    FH_ARC_get_AuxIRQMask
846  0xb198       12 GLOB FUNC .text    FH_ARC_set_AuxIRQBaseAddress
847  0xb1a4       12 GLOB FUNC .text    FH_ARC_get_AuxIRQBaseAddress
848  0xb1b0       16 GLOB FUNC .text    FH_ARC_set_IRQInvert
849  0xb1c0       16 GLOB FUNC .text    FH_ARC_get_IRQInvert
850  0xb1d0       16 GLOB FUNC .text    FH_ARC_set_IRQEdge
851  0xb1e0       16 GLOB FUNC .text    FH_ARC_get_IRQEdge
852  0xb1f0       16 GLOB FUNC .text    FH_ARC_set_IRQClear
853  0xb200       16 GLOB FUNC .text    FH_ARC_get_IRQClear
854  0xb210       16 GLOB FUNC .text    FH_ARC_set_IRQEnable
855  0xb220       16 GLOB FUNC .text    FH_ARC_get_IRQEnable
856  0xb230       28 GLOB FUNC .text    FH_ARC_set_IRQCombineEnable
857  0xb24c       16 GLOB FUNC .text    FH_ARC_getm_IRQCombineEnable
858  0xb25c       16 GLOB FUNC .text    FH_ARC_get_IRQStatus
859  0xb26c       16 GLOB FUNC .text    FH_ARC_get_IRQInputValue
860  0xb27c       16 GLOB FUNC .text    FH_ARC_set_IRQ24
861  0xb28c       16 GLOB FUNC .text    FH_ARC_get_IRQ24
862  0xb29c       16 GLOB FUNC .text    FH_ARC_get_ChipID
863  0xb2ac       28 GLOB FUNC .text    FH_ARC_set_DebugPortDisable
864  0xb2c8       16 GLOB FUNC .text    FH_ARC_getm_DebugPortDisable
865  0xb2d8       28 GLOB FUNC .text    FH_ARC_set_CompareStream
866  0xb2f4       16 GLOB FUNC .text    FH_ARC_getm_CompareStream
867  0xb304       28 GLOB FUNC .text    FH_ARC_set_SearchCompare
868  0xb320       16 GLOB FUNC .text    FH_ARC_getm_SearchCompare
869  0xb330       28 GLOB FUNC .text    FH_ARC_set_MaskCompare
870  0xb34c       16 GLOB FUNC .text    FH_ARC_getm_MaskCompare
871  0xb35c       16 GLOB FUNC .text    FH_ARC_set_TimerConfig
872  0xb36c       16 GLOB FUNC .text    FH_ARC_get_TimerValue
873  0xb37c       16 GLOB FUNC .text    FH_ARC_set_TimerPrescaler
874  0xb38c        4 GLOB FUNC .text    FH_ARC_init
875  0xb390       16 GLOB FUNC .text    FH_UART_set_Data
876  0xb3a0       16 GLOB FUNC .text    FH_UART_get_Data
877  0xb3b0       16 GLOB FUNC .text    FH_UART_set_LineControl
878  0xb3c0       16 GLOB FUNC .text    FH_UART_get_LineControl
879  0xb3d0       32 GLOB FUNC .text    FH_UART_set_LineControl_STOP_BITS
880  0xb3f0       24 GLOB FUNC .text    FH_UART_get_LineControl_STOP_BITS
881  0xb408       36 GLOB FUNC .text    FH_UART_set_LineControl_POLARITY
882  0xb42c       28 GLOB FUNC .text    FH_UART_get_LineControl_POLARITY
883  0xb448       36 GLOB FUNC .text    FH_UART_set_LineControl_PARITY
884  0xb46c       28 GLOB FUNC .text    FH_UART_get_LineControl_PARITY
885  0xb488       36 GLOB FUNC .text    FH_UART_set_LineControl_ORDER
886  0xb4ac       28 GLOB FUNC .text    FH_UART_get_LineControl_ORDER
887  0xb4c8       36 GLOB FUNC .text    FH_UART_set_LineControl_LENGTH
888  0xb4ec       24 GLOB FUNC .text    FH_UART_get_LineControl_LENGTH
889  0xb504       16 GLOB FUNC .text    FH_UART_set_Control
890  0xb514       16 GLOB FUNC .text    FH_UART_get_Control
891  0xb524       32 GLOB FUNC .text    FH_UART_set_Control_ENABLE_TX
892  0xb544       24 GLOB FUNC .text    FH_UART_get_Control_ENABLE_TX
893  0xb55c       36 GLOB FUNC .text    FH_UART_set_Control_ENABLE_RX
894  0xb580       28 GLOB FUNC .text    FH_UART_get_Control_ENABLE_RX
895  0xb59c       36 GLOB FUNC .text    FH_UART_set_Control_CLK_EDGE_POL
896  0xb5c0       28 GLOB FUNC .text    FH_UART_get_Control_CLK_EDGE_POL
897  0xb5dc       16 GLOB FUNC .text    FH_UART_set_Delta1
898  0xb5ec       16 GLOB FUNC .text    FH_UART_get_Delta1
899  0xb5fc       16 GLOB FUNC .text    FH_UART_set_DiffDelta
900  0xb60c       16 GLOB FUNC .text    FH_UART_get_DiffDelta
901  0xb61c       16 GLOB FUNC .text    FH_UART_set_ClockBound
902  0xb62c       16 GLOB FUNC .text    FH_UART_get_ClockBound
903  0xb63c       16 GLOB FUNC .text    FH_UART_get_IRQStatus
904  0xb64c       24 GLOB FUNC .text    FH_UART_get_IRQStatus_RX_PARITY_IRQ
905  0xb664       28 GLOB FUNC .text    FH_UART_get_IRQStatus_RX_IRQ
906  0xb680       28 GLOB FUNC .text    FH_UART_set_IRQClear
907  0xb69c       16 GLOB FUNC .text    FH_UART_getm_IRQClear
908  0xb6ac       44 GLOB FUNC .text    FH_UART_set_IRQClear_RX_PARITY_IRQ
909  0xb6d8       24 GLOB FUNC .text    FH_UART_getm_IRQClear_RX_PARITY_IRQ
910  0xb6f0       48 GLOB FUNC .text    FH_UART_set_IRQClear_RX_IRQ
911  0xb720       28 GLOB FUNC .text    FH_UART_getm_IRQClear_RX_IRQ
912  0xb73c       16 GLOB FUNC .text    FH_UART_set_IRQMask
913  0xb74c       16 GLOB FUNC .text    FH_UART_get_IRQMask
914  0xb75c       32 GLOB FUNC .text    FH_UART_set_IRQMask_RX_PARITY_IRQ
915  0xb77c       24 GLOB FUNC .text    FH_UART_get_IRQMask_RX_PARITY_IRQ
916  0xb794       36 GLOB FUNC .text    FH_UART_set_IRQMask_RX_IRQ
917  0xb7b8       28 GLOB FUNC .text    FH_UART_get_IRQMask_RX_IRQ
918  0xb7d4       16 GLOB FUNC .text    FH_UART_get_TXRXControl
919  0xb7e4       24 GLOB FUNC .text    FH_UART_get_TXRXControl_RX_BUSY
920  0xb7fc       28 GLOB FUNC .text    FH_UART_get_TXRXControl_RX_EMPTY
921  0xb818       28 GLOB FUNC .text    FH_UART_get_TXRXControl_RX_FULL
922  0xb834       28 GLOB FUNC .text    FH_UART_get_TXRXControl_RX_LEVEL
923  0xb850       24 GLOB FUNC .text    FH_UART_get_TXRXControl_TX_BUSY
924  0xb868       28 GLOB FUNC .text    FH_UART_get_TXRXControl_TX_EMPTY
925  0xb884       28 GLOB FUNC .text    FH_UART_get_TXRXControl_TX_FULL
926  0xb8a0       28 GLOB FUNC .text    FH_UART_get_TXRXControl_TX_LEVEL
927  0xb8bc       60 GLOB FUNC .text    FH_UART_init
928  0xb8f8       16 GLOB FUNC .text    FH_GPIO_get_DataInLower
929  0xb908       16 GLOB FUNC .text    FH_GPIO_get_DataInUpper
930  0xb918       28 GLOB FUNC .text    FH_GPIO_get_IRQStatusLower
931  0xb934       16 GLOB FUNC .text    FH_GPIO_getm_IRQStatusLower
932  0xb944       28 GLOB FUNC .text    FH_GPIO_get_IRQStatusUpper
933  0xb960       16 GLOB FUNC .text    FH_GPIO_getm_IRQStatusUpper
934  0xb970       28 GLOB FUNC .text    FH_GPIO_set_DirectionLower
935  0xb98c       16 GLOB FUNC .text    FH_GPIO_getm_DirectionLower
936  0xb99c       28 GLOB FUNC .text    FH_GPIO_set_DirectionUpper
937  0xb9b8       16 GLOB FUNC .text    FH_GPIO_getm_DirectionUpper
938  0xb9c8       28 GLOB FUNC .text    FH_GPIO_set_IRQEnableLower
939  0xb9e4       16 GLOB FUNC .text    FH_GPIO_getm_IRQEnableLower
940  0xb9f4       28 GLOB FUNC .text    FH_GPIO_set_IRQEnableUpper
941  0xba10       16 GLOB FUNC .text    FH_GPIO_getm_IRQEnableUpper
942  0xba20       28 GLOB FUNC .text    FH_GPIO_set_IRQLevelLower
943  0xba3c       16 GLOB FUNC .text    FH_GPIO_getm_IRQLevelLower
944  0xba4c       28 GLOB FUNC .text    FH_GPIO_set_IRQLevelUpper
945  0xba68       16 GLOB FUNC .text    FH_GPIO_getm_IRQLevelUpper
946  0xba78       28 GLOB FUNC .text    FH_GPIO_set_IRQPolarityLower
947  0xba94       16 GLOB FUNC .text    FH_GPIO_getm_IRQPolarityLower
948  0xbaa4       28 GLOB FUNC .text    FH_GPIO_set_IRQPolarityUpper
949  0xbac0       16 GLOB FUNC .text    FH_GPIO_getm_IRQPolarityUpper
950  0xbad0       28 GLOB FUNC .text    FH_GPIO_set_OpenDrainLower
951  0xbaec       16 GLOB FUNC .text    FH_GPIO_getm_OpenDrainLower
952  0xbafc       28 GLOB FUNC .text    FH_GPIO_set_OpenDrainUpper
953  0xbb18       16 GLOB FUNC .text    FH_GPIO_getm_OpenDrainUpper
954  0xbb28       28 GLOB FUNC .text    FH_GPIO_set_Data0
955  0xbb44       16 GLOB FUNC .text    FH_GPIO_getm_Data0
956  0xbb54       28 GLOB FUNC .text    FH_GPIO_set_Data1
957  0xbb70       16 GLOB FUNC .text    FH_GPIO_getm_Data1
958  0xbb80       28 GLOB FUNC .text    FH_GPIO_set_Data2
959  0xbb9c       16 GLOB FUNC .text    FH_GPIO_getm_Data2
960  0xbbac       28 GLOB FUNC .text    FH_GPIO_set_Data3
961  0xbbc8       16 GLOB FUNC .text    FH_GPIO_getm_Data3
962  0xbbd8       28 GLOB FUNC .text    FH_GPIO_set_MuxSelectLower
963  0xbbf4       16 GLOB FUNC .text    FH_GPIO_getm_MuxSelectLower
964  0xbc04       28 GLOB FUNC .text    FH_GPIO_set_MuxSelectUpper
965  0xbc20       16 GLOB FUNC .text    FH_GPIO_getm_MuxSelectUpper
966  0xbc30      304 GLOB FUNC .text    FH_GPIO_init
967  0xbd60       20 GLOB FUNC .text    FH_UPI_set_Mode
968  0xbd74       20 GLOB FUNC .text    FH_UPI_get_Mode
969  0xbd88       20 GLOB FUNC .text    FH_UPI_set_TALS
970  0xbd9c       20 GLOB FUNC .text    FH_UPI_get_TALS
971  0xbdb0       20 GLOB FUNC .text    FH_UPI_set_TALH
972  0xbdc4       20 GLOB FUNC .text    FH_UPI_get_TALH
973  0xbdd8       20 GLOB FUNC .text    FH_UPI_set_TRS
974  0xbdec       20 GLOB FUNC .text    FH_UPI_get_TRS
975  0xbe00       20 GLOB FUNC .text    FH_UPI_set_TRDS
976  0xbe14       20 GLOB FUNC .text    FH_UPI_get_TRDS
977  0xbe28       20 GLOB FUNC .text    FH_UPI_set_TRDH
978  0xbe3c       20 GLOB FUNC .text    FH_UPI_get_TRDH
979  0xbe50       20 GLOB FUNC .text    FH_UPI_set_TRR
980  0xbe64       20 GLOB FUNC .text    FH_UPI_get_TRR
981  0xbe78       20 GLOB FUNC .text    FH_UPI_set_TWS
982  0xbe8c       20 GLOB FUNC .text    FH_UPI_get_TWS
983  0xbea0       20 GLOB FUNC .text    FH_UPI_set_TWP
984  0xbeb4       20 GLOB FUNC .text    FH_UPI_get_TWP
985  0xbec8       20 GLOB FUNC .text    FH_UPI_set_TWR
986  0xbedc       20 GLOB FUNC .text    FH_UPI_get_TWR
987  0xbef0       20 GLOB FUNC .text    FH_UPI_set_WaitMask
988  0xbf04       20 GLOB FUNC .text    FH_UPI_get_WaitMask
989  0xbf18       20 GLOB FUNC .text    FH_UPI_set_BufferEnable
990  0xbf2c       20 GLOB FUNC .text    FH_UPI_get_BufferEnable
991  0xbf40       16 GLOB FUNC .text    FH_UPI_set_WaitTime
992  0xbf50       16 GLOB FUNC .text    FH_UPI_get_WaitTime
993  0xbf60       16 GLOB FUNC .text    FH_UPI_set_WaitTimerEnable
994  0xbf70       16 GLOB FUNC .text    FH_UPI_get_WaitTimerEnable
995  0xbf80       16 GLOB FUNC .text    FH_UPI_get_LastWaitTime
996  0xbf90       16 GLOB FUNC .text    FH_UPI_get_WaitTimerStatus
997  0xbfa0       24 GLOB FUNC .text    FH_UPI_get_WaitTimerStatus_ACTIVATED
998  0xbfb8       28 GLOB FUNC .text    FH_UPI_get_WaitTimerStatus_LINE_STATUS
999  0xbfd4       28 GLOB FUNC .text    FH_UPI_set_AddrExt
1000  0xbff0       16 GLOB FUNC .text    FH_UPI_getm_AddrExt
1001  0xc000       44 GLOB FUNC .text    FH_UPI_set_AddrExt_EXT_ADDR_0
1002  0xc02c       24 GLOB FUNC .text    FH_UPI_getm_AddrExt_EXT_ADDR_0
1003  0xc044       48 GLOB FUNC .text    FH_UPI_set_AddrExt_EXT_ADDR_1
1004  0xc074       28 GLOB FUNC .text    FH_UPI_getm_AddrExt_EXT_ADDR_1
1005  0xc090       48 GLOB FUNC .text    FH_UPI_set_AddrExt_EXT_ADDR_2
1006  0xc0c0       28 GLOB FUNC .text    FH_UPI_getm_AddrExt_EXT_ADDR_2
1007  0xc0dc       48 GLOB FUNC .text    FH_UPI_set_AddrExt_LIN_MODE_0
1008  0xc10c       28 GLOB FUNC .text    FH_UPI_getm_AddrExt_LIN_MODE_0
1009  0xc128       48 GLOB FUNC .text    FH_UPI_set_AddrExt_LIN_MODE_1
1010  0xc158       28 GLOB FUNC .text    FH_UPI_getm_AddrExt_LIN_MODE_1
1011  0xc174       48 GLOB FUNC .text    FH_UPI_set_AddrExt_LIN_MODE_2
1012  0xc1a4       28 GLOB FUNC .text    FH_UPI_getm_AddrExt_LIN_MODE_2
1013  0xc1c0       28 GLOB FUNC .text    FH_UPI_set_CSSel
1014  0xc1dc       16 GLOB FUNC .text    FH_UPI_getm_CSSel
1015  0xc1ec       28 GLOB FUNC .text    FH_UPI_set_CSMode
1016  0xc208       16 GLOB FUNC .text    FH_UPI_getm_CSMode
1017  0xc218       44 GLOB FUNC .text    FH_UPI_set_CSMode_CS1_INVERT
1018  0xc244       24 GLOB FUNC .text    FH_UPI_getm_CSMode_CS1_INVERT
1019  0xc25c       48 GLOB FUNC .text    FH_UPI_set_CSMode_CS2_INVERT
1020  0xc28c       28 GLOB FUNC .text    FH_UPI_getm_CSMode_CS2_INVERT
1021  0xc2a8       48 GLOB FUNC .text    FH_UPI_set_CSMode_CS1_WEMODE
1022  0xc2d8       28 GLOB FUNC .text    FH_UPI_getm_CSMode_CS1_WEMODE
1023  0xc2f4       48 GLOB FUNC .text    FH_UPI_set_CSMode_CS2_WEMODE
1024  0xc324       28 GLOB FUNC .text    FH_UPI_getm_CSMode_CS2_WEMODE
1025  0xc340       64 GLOB FUNC .text    FH_UPI_init
1026  0xc380       28 GLOB FUNC .text    FH_VE_set_RGBConf
1027  0xc39c       16 GLOB FUNC .text    FH_VE_getm_RGBConf
1028  0xc3ac       48 GLOB FUNC .text    FH_VE_set_RGBConf_RGB_DELAY_ENABLE
1029  0xc3dc       28 GLOB FUNC .text    FH_VE_getm_RGBConf_RGB_DELAY_ENABLE
1030  0xc3f8       48 GLOB FUNC .text    FH_VE_set_RGBConf_SYNCON_RED
1031  0xc428       28 GLOB FUNC .text    FH_VE_getm_RGBConf_SYNCON_RED
1032  0xc444       48 GLOB FUNC .text    FH_VE_set_RGBConf_SYNCON_GREEN
1033  0xc474       28 GLOB FUNC .text    FH_VE_getm_RGBConf_SYNCON_GREEN
1034  0xc490       52 GLOB FUNC .text    FH_VE_set_RGBConf_SYNCON_BLUE
1035  0xc4c4       28 GLOB FUNC .text    FH_VE_getm_RGBConf_SYNCON_BLUE
1036  0xc4e0       52 GLOB FUNC .text    FH_VE_set_RGBConf_BLK_ON
1037  0xc514       28 GLOB FUNC .text    FH_VE_getm_RGBConf_BLK_ON
1038  0xc530       52 GLOB FUNC .text    FH_VE_set_RGBConf_NTSC_ON
1039  0xc564       28 GLOB FUNC .text    FH_VE_getm_RGBConf_NTSC_ON
1040  0xc580       52 GLOB FUNC .text    FH_VE_set_RGBConf_YCRCB
1041  0xc5b4       28 GLOB FUNC .text    FH_VE_getm_RGBConf_YCRCB
1042  0xc5d0       52 GLOB FUNC .text    FH_VE_set_RGBConf_COLBAR
1043  0xc604       28 GLOB FUNC .text    FH_VE_getm_RGBConf_COLBAR
1044  0xc620       28 GLOB FUNC .text    FH_VE_set_RGBLum
1045  0xc63c       16 GLOB FUNC .text    FH_VE_getm_RGBLum
1046  0xc64c       44 GLOB FUNC .text    FH_VE_set_RGBLum_YVAL
1047  0xc678       24 GLOB FUNC .text    FH_VE_getm_RGBLum_YVAL
1048  0xc690       32 GLOB FUNC .text    FH_VE_set_RGBLum_YOFF
1049  0xc6b0       16 GLOB FUNC .text    FH_VE_getm_RGBLum_YOFF
1050  0xc6c0       28 GLOB FUNC .text    FH_VE_set_RGBChrom
1051  0xc6dc       16 GLOB FUNC .text    FH_VE_getm_RGBChrom
1052  0xc6ec       44 GLOB FUNC .text    FH_VE_set_RGBChrom_CBVAL
1053  0xc718       24 GLOB FUNC .text    FH_VE_getm_RGBChrom_CBVAL
1054  0xc730       52 GLOB FUNC .text    FH_VE_set_RGBChrom_CRVAL
1055  0xc764       28 GLOB FUNC .text    FH_VE_getm_RGBChrom_CRVAL
1056  0xc780       28 GLOB FUNC .text    FH_VE_set_CEConf
1057  0xc79c       16 GLOB FUNC .text    FH_VE_getm_CEConf
1058  0xc7ac       44 GLOB FUNC .text    FH_VE_set_CEConf_PSLEV
1059  0xc7d8       24 GLOB FUNC .text    FH_VE_getm_CEConf_PSLEV
1060  0xc7f0       48 GLOB FUNC .text    FH_VE_set_CEConf_M1M0
1061  0xc820       28 GLOB FUNC .text    FH_VE_getm_CEConf_M1M0
1062  0xc83c       48 GLOB FUNC .text    FH_VE_set_CEConf_PAL
1063  0xc86c       28 GLOB FUNC .text    FH_VE_getm_CEConf_PAL
1064  0xc888       48 GLOB FUNC .text    FH_VE_set_CEConf_PAL525
1065  0xc8b8       28 GLOB FUNC .text    FH_VE_getm_CEConf_PAL525
1066  0xc8d4       48 GLOB FUNC .text    FH_VE_set_CEConf_M3DB
1067  0xc904       28 GLOB FUNC .text    FH_VE_getm_CEConf_M3DB
1068  0xc920       48 GLOB FUNC .text    FH_VE_set_CEConf_CYSEL
1069  0xc950       28 GLOB FUNC .text    FH_VE_getm_CEConf_CYSEL
1070  0xc96c       52 GLOB FUNC .text    FH_VE_set_CEConf_CYDLY
1071  0xc9a0       28 GLOB FUNC .text    FH_VE_getm_CEConf_CYDLY
1072  0xc9bc       52 GLOB FUNC .text    FH_VE_set_CEConf_XSYNCMX
1073  0xc9f0       28 GLOB FUNC .text    FH_VE_getm_CEConf_XSYNCMX
1074  0xca0c       52 GLOB FUNC .text    FH_VE_set_CEConf_BWGUI
1075  0xca40       28 GLOB FUNC .text    FH_VE_getm_CEConf_BWGUI
1076  0xca5c       52 GLOB FUNC .text    FH_VE_set_CEConf_IPCE1SEL
1077  0xca90       28 GLOB FUNC .text    FH_VE_getm_CEConf_IPCE1SEL
1078  0xcaac       52 GLOB FUNC .text    FH_VE_set_CEConf_TTXEN
1079  0xcae0       28 GLOB FUNC .text    FH_VE_getm_CEConf_TTXEN
1080  0xcafc       52 GLOB FUNC .text    FH_VE_set_CEConf_SECAM
1081  0xcb30       28 GLOB FUNC .text    FH_VE_getm_CEConf_SECAM
1082  0xcb4c       28 GLOB FUNC .text    FH_VE_set_CEBurstInt
1083  0xcb68       16 GLOB FUNC .text    FH_VE_getm_CEBurstInt
1084  0xcb78       52 GLOB FUNC .text    FH_VE_set_CEBurstInt_FSCINT
1085  0xcbac       28 GLOB FUNC .text    FH_VE_getm_CEBurstInt_FSCINT
1086  0xcbc8       52 GLOB FUNC .text    FH_VE_set_CEBurstInt_ENABLE_PAL_CORRECTION
1087  0xcbfc       28 GLOB FUNC .text    FH_VE_getm_CEBurstInt_ENABLE_PAL_CORRECTION
1088  0xcc18       28 GLOB FUNC .text    FH_VE_set_CEBurstFra1
1089  0xcc34       16 GLOB FUNC .text    FH_VE_getm_CEBurstFra1
1090  0xcc44       28 GLOB FUNC .text    FH_VE_set_CEBurstFra2
1091  0xcc60       16 GLOB FUNC .text    FH_VE_getm_CEBurstFra2
1092  0xcc70       28 GLOB FUNC .text    FH_VE_set_MuxDacConf1
1093  0xcc8c       16 GLOB FUNC .text    FH_VE_getm_MuxDacConf1
1094  0xcc9c       44 GLOB FUNC .text    FH_VE_set_MuxDacConf1_SEL1
1095  0xccc8       24 GLOB FUNC .text    FH_VE_getm_MuxDacConf1_SEL1
1096  0xcce0       48 GLOB FUNC .text    FH_VE_set_MuxDacConf1_SEL2
1097  0xcd10       28 GLOB FUNC .text    FH_VE_getm_MuxDacConf1_SEL2
1098  0xcd2c       52 GLOB FUNC .text    FH_VE_set_MuxDacConf1_SEL3
1099  0xcd60       28 GLOB FUNC .text    FH_VE_getm_MuxDacConf1_SEL3
1100  0xcd7c       52 GLOB FUNC .text    FH_VE_set_MuxDacConf1_SEL4
1101  0xcdb0       28 GLOB FUNC .text    FH_VE_getm_MuxDacConf1_SEL4
1102  0xcdcc       52 GLOB FUNC .text    FH_VE_set_MuxDacConf1_SEL5
1103  0xce00       28 GLOB FUNC .text    FH_VE_getm_MuxDacConf1_SEL5
1104  0xce1c       52 GLOB FUNC .text    FH_VE_set_MuxDacConf1_PDREF1
1105  0xce50       28 GLOB FUNC .text    FH_VE_getm_MuxDacConf1_PDREF1
1106  0xce6c       52 GLOB FUNC .text    FH_VE_set_MuxDacConf1_PDREF2
1107  0xcea0       28 GLOB FUNC .text    FH_VE_getm_MuxDacConf1_PDREF2
1108  0xcebc       28 GLOB FUNC .text    FH_VE_set_MuxDacConf2
1109  0xced8       16 GLOB FUNC .text    FH_VE_getm_MuxDacConf2
1110  0xcee8       52 GLOB FUNC .text    FH_VE_set_MuxDacConf2_CONSTVAL1
1111  0xcf1c       28 GLOB FUNC .text    FH_VE_getm_MuxDacConf2_CONSTVAL1
1112  0xcf38       52 GLOB FUNC .text    FH_VE_set_MuxDacConf2_PDDAC1
1113  0xcf6c       28 GLOB FUNC .text    FH_VE_getm_MuxDacConf2_PDDAC1
1114  0xcf88       52 GLOB FUNC .text    FH_VE_set_MuxDacConf2_PDDAC2
1115  0xcfbc       28 GLOB FUNC .text    FH_VE_getm_MuxDacConf2_PDDAC2
1116  0xcfd8       52 GLOB FUNC .text    FH_VE_set_MuxDacConf2_PDDAC3
1117  0xd00c       28 GLOB FUNC .text    FH_VE_getm_MuxDacConf2_PDDAC3
1118  0xd028       52 GLOB FUNC .text    FH_VE_set_MuxDacConf2_PDDAC4
1119  0xd05c       28 GLOB FUNC .text    FH_VE_getm_MuxDacConf2_PDDAC4
1120  0xd078       52 GLOB FUNC .text    FH_VE_set_MuxDacConf2_PDDAC5
1121  0xd0ac       28 GLOB FUNC .text    FH_VE_getm_MuxDacConf2_PDDAC5
1122  0xd0c8       28 GLOB FUNC .text    FH_VE_set_MuxDacConf3
1123  0xd0e4       16 GLOB FUNC .text    FH_VE_getm_MuxDacConf3
1124  0xd0f4       52 GLOB FUNC .text    FH_VE_set_MuxDacConf3_CONSTVAL2
1125  0xd128       28 GLOB FUNC .text    FH_VE_getm_MuxDacConf3_CONSTVAL2
1126  0xd144       52 GLOB FUNC .text    FH_VE_set_MuxDacConf3_INVOP1
1127  0xd178       28 GLOB FUNC .text    FH_VE_getm_MuxDacConf3_INVOP1
1128  0xd194       52 GLOB FUNC .text    FH_VE_set_MuxDacConf3_INVOP2
1129  0xd1c8       28 GLOB FUNC .text    FH_VE_getm_MuxDacConf3_INVOP2
1130  0xd1e4       52 GLOB FUNC .text    FH_VE_set_MuxDacConf3_INVOP3
1131  0xd218       28 GLOB FUNC .text    FH_VE_getm_MuxDacConf3_INVOP3
1132  0xd234       52 GLOB FUNC .text    FH_VE_set_MuxDacConf3_INVOP4
1133  0xd268       28 GLOB FUNC .text    FH_VE_getm_MuxDacConf3_INVOP4
1134  0xd284       52 GLOB FUNC .text    FH_VE_set_MuxDacConf3_INVOP5
1135  0xd2b8       28 GLOB FUNC .text    FH_VE_getm_MuxDacConf3_INVOP5
1136  0xd2d4       28 GLOB FUNC .text    FH_VE_set_Enc656WSS
1137  0xd2f0       16 GLOB FUNC .text    FH_VE_getm_Enc656WSS
1138  0xd300       44 GLOB FUNC .text    FH_VE_set_Enc656WSS_IP656SEL
1139  0xd32c       24 GLOB FUNC .text    FH_VE_getm_Enc656WSS_IP656SEL
1140  0xd344       48 GLOB FUNC .text    FH_VE_set_Enc656WSS_TSDOPSEL
1141  0xd374       28 GLOB FUNC .text    FH_VE_getm_Enc656WSS_TSDOPSEL
1142  0xd390       48 GLOB FUNC .text    FH_VE_set_Enc656WSS_CC_M
1143  0xd3c0       28 GLOB FUNC .text    FH_VE_getm_Enc656WSS_CC_M
1144  0xd3dc       52 GLOB FUNC .text    FH_VE_set_Enc656WSS_VBID_EN
1145  0xd410       28 GLOB FUNC .text    FH_VE_getm_Enc656WSS_VBID_EN
1146  0xd42c       52 GLOB FUNC .text    FH_VE_set_Enc656WSS_CCMASK
1147  0xd460       28 GLOB FUNC .text    FH_VE_getm_Enc656WSS_CCMASK
1148  0xd47c       52 GLOB FUNC .text    FH_VE_set_Enc656WSS_WSS_MODE
1149  0xd4b0       28 GLOB FUNC .text    FH_VE_getm_Enc656WSS_WSS_MODE
1150  0xd4cc       52 GLOB FUNC .text    FH_VE_set_Enc656WSS_WSS_BYPASS
1151  0xd500       28 GLOB FUNC .text    FH_VE_getm_Enc656WSS_WSS_BYPASS
1152  0xd51c       52 GLOB FUNC .text    FH_VE_set_Enc656WSS_ITU_R656_EN0
1153  0xd550       28 GLOB FUNC .text    FH_VE_getm_Enc656WSS_ITU_R656_EN0
1154  0xd56c       52 GLOB FUNC .text    FH_VE_set_Enc656WSS_ITU_R656_EN1
1155  0xd5a0       28 GLOB FUNC .text    FH_VE_getm_Enc656WSS_ITU_R656_EN1
1156  0xd5bc       52 GLOB FUNC .text    FH_VE_set_Enc656WSS_CLK27_INV
1157  0xd5f0       28 GLOB FUNC .text    FH_VE_getm_Enc656WSS_CLK27_INV
1158  0xd60c       28 GLOB FUNC .text    FH_VE_set_CCLine21
1159  0xd628       16 GLOB FUNC .text    FH_VE_getm_CCLine21
1160  0xd638       44 GLOB FUNC .text    FH_VE_set_CCLine21_L21C1
1161  0xd664       24 GLOB FUNC .text    FH_VE_getm_CCLine21_L21C1
1162  0xd67c       52 GLOB FUNC .text    FH_VE_set_CCLine21_L21C2
1163  0xd6b0       28 GLOB FUNC .text    FH_VE_getm_CCLine21_L21C2
1164  0xd6cc       28 GLOB FUNC .text    FH_VE_set_CCLine284
1165  0xd6e8       16 GLOB FUNC .text    FH_VE_getm_CCLine284
1166  0xd6f8       44 GLOB FUNC .text    FH_VE_set_CCLine284_L284C1
1167  0xd724       24 GLOB FUNC .text    FH_VE_getm_CCLine284_L284C1
1168  0xd73c       52 GLOB FUNC .text    FH_VE_set_CCLine284_L284C2
1169  0xd770       28 GLOB FUNC .text    FH_VE_getm_CCLine284_L284C2
1170  0xd78c       28 GLOB FUNC .text    FH_VE_set_VBIDWords
1171  0xd7a8       16 GLOB FUNC .text    FH_VE_getm_VBIDWords
1172  0xd7b8       44 GLOB FUNC .text    FH_VE_set_VBIDWords_VBIDW0
1173  0xd7e4       24 GLOB FUNC .text    FH_VE_getm_VBIDWords_VBIDW0
1174  0xd7fc       48 GLOB FUNC .text    FH_VE_set_VBIDWords_VBIDW1
1175  0xd82c       28 GLOB FUNC .text    FH_VE_getm_VBIDWords_VBIDW1
1176  0xd848       52 GLOB FUNC .text    FH_VE_set_VBIDWords_VBIDW2
1177  0xd87c       24 GLOB FUNC .text    FH_VE_getm_VBIDWords_VBIDW2
1178  0xd894       52 GLOB FUNC .text    FH_VE_set_VBIDWords_EN_SECAM_TTX
1179  0xd8c8       28 GLOB FUNC .text    FH_VE_getm_VBIDWords_EN_SECAM_TTX
1180  0xd8e4       28 GLOB FUNC .text    FH_VE_set_WSSData
1181  0xd900       16 GLOB FUNC .text    FH_VE_getm_WSSData
1182  0xd910       28 GLOB FUNC .text    FH_VE_set_ITRU656DirData
1183  0xd92c       16 GLOB FUNC .text    FH_VE_getm_ITRU656DirData
1184  0xd93c       28 GLOB FUNC .text    FH_VE_set_Macrovision
1185  0xd958       16 GLOB FUNC .text    FH_VE_getm_Macrovision
1186  0xd968       44 GLOB FUNC .text    FH_VE_set_Macrovision_AGC
1187  0xd994       24 GLOB FUNC .text    FH_VE_getm_Macrovision_AGC
1188  0xd9ac       32 GLOB FUNC .text    FH_VE_set_Macrovision_BP
1189  0xd9cc       16 GLOB FUNC .text    FH_VE_getm_Macrovision_BP
1190  0xd9dc       28 GLOB FUNC .text    FH_VE_set_CCIREnable
1191  0xd9f8       16 GLOB FUNC .text    FH_VE_getm_CCIREnable
1192  0xda08      372 GLOB FUNC .text    FH_VE_init
1193  0x17120       0 GLOB NULL .text    __Xbarrel_shifter_check
1194  0x17120       0 GLOB NULL .text    __Xnorm_check
1195  0xdb7c        4 GLOB FUNC .text    _doprint
1196  0x1847c       1 GLOB OBJ  .data    __enable_prof_interrupt
1197  0x18480       4 GLOB OBJ  .data    __INITBSS__
1198  0x18484       4 GLOB OBJ  .data    __main_at
1199  0xdb80       32 GLOB FUNC .text    _mwrtl_init
1200  0xdba0      196 GLOB FUNC .text    _mwcall_main
1201  0xdc64      120 GLOB FUNC .text    __arc_main
1202  0xdcdc       64 GLOB FUNC .text    vsprintf
1203  0xdd1c       84 GLOB FUNC .text    sprintf
1204  0x18488     200 GLOB OBJ  .data    _bufendtab
1205  0x18550     800 GLOB OBJ  .data    __iob
1206  0x18870       4 GLOB OBJ  .data    _fopen_max
1207  0x18874       4 GLOB OBJ  .data    _bufsiz_dflt
1208  0x18878     200 GLOB OBJ  .data    _iob_tmpnam
1209  0x18940      50 GLOB OBJ  .data    _iob_fioflag
1210  0x18974     800 GLOB OBJ  .data    _iob_unget
1211  0xdda0       12 GLOB FUNC .text    freopen
1212  0xddac       68 GLOB FUNC .text    vfprintf
1213  0xde20       92 GLOB FUNC .text    fscanf
1214  0xde7c       84 GLOB FUNC .text    scanf
1215  0xded0       68 GLOB FUNC .text    _vfscanf
1216  0xdf14       76 GLOB FUNC .text    _vscanf
1217  0xdf80        0 GLOB FUNC .text    strcmp
1218  0xe21c     2296 GLOB FUNC .text    _doprintnf
1219  0xeb14      116 GLOB FUNC .text    atexit
1220  0xebec        0 GLOB FUNC .text    _enable
1221  0xebf8        0 GLOB FUNC .text    _enable1
1222  0xec04        0 GLOB FUNC .text    _enable2
1223  0xec10       32 GLOB FUNC .text    strlen
1224  0xec30       60 GLOB FUNC .text    strcpy
1225  0xec6c       56 GLOB FUNC .text    exit
1226  0xeca4        4 GLOB FUNC .text    _initcopy_exit
1227  0xecd4      268 GLOB FUNC .text    _initcopy
1228  0xede0        0 GLOB FUNC .text    _invalidate_icache
1229  0xede8        0 GLOB FUNC .text    _invalidate_dcache
1230  0xee30        0 GLOB FUNC .text    memcpy
1231  0xeeec      756 GLOB FUNC .text    _dofopen
1232  0xf1f8       64 GLOB FUNC .text    _mwinit_file_lock
1233  0xf238       64 GLOB FUNC .text    _mwdelete_file_lock
1234  0xf278       52 GLOB FUNC .text    _mwlock_file
1235  0xf2ac       52 GLOB FUNC .text    _mwunlock_file
1236  0xf35c      736 GLOB FUNC .text    fwrite
1237  0xf924     2060 GLOB FUNC .text    _doscan
1238  0x10130     340 GLOB FUNC .text    ungetc
1239  0x10284      56 GLOB FUNC .text    fgetc
1240  0x102bc      24 GLOB FUNC .text    wctomb
1241  0x102d4      52 GLOB FUNC .text    wcstombs
1242  0x10308     144 GLOB FUNC .text    _cnvs2u
1243  0x10398     128 GLOB FUNC .text    _cnvs2i
1244  0x10418     404 GLOB FUNC .text    _cnvs2n
1245  0x105ac      20 GLOB FUNC .text    _cnvs2p
1246  0x105c0      48 GLOB FUNC .text    memchr
1247  0x171f4     521 GLOB OBJ  .rodata  __ctype
1248  0x171f4     521 WEAK OBJ  .rodata  _ctype
1249  0x105f0      44 GLOB FUNC .text    _uchrchr
1250  0x1061c     348 GLOB FUNC .text    _cnvll2s
1251  0x10778      32 GLOB FUNC .text    _cnvull2s
1252  0x10798     348 GLOB FUNC .text    _cnvn2s
1253  0x108f4      24 GLOB FUNC .text    _cnvu2s
1254  0x1090c     108 GLOB FUNC .text    _cnvi2s
1255  0x10978      24 GLOB FUNC .text    _cnvp2s
1256  0x18d34       4 GLOB OBJ  .data    _exitv
1257  0x10990      60 GLOB FUNC .text    __cleanup
1258  0x109cc       4 GLOB FUNC .text    _cexit
1259  0x109d0       4 GLOB FUNC .text    _c_exit
1260  0x109d4      20 GLOB FUNC .text    _stdio_linked
1261  0x10a00     284 GLOB FUNC .text    _ifclose
1262  0x10b1c       4 GLOB FUNC .text    _freefp
1263  0x10b20      52 GLOB FUNC .text    fclose
1264  0x10b54       8 GLOB FUNC .text    _fd_shrd
1265  0x193b4     200 GLOB OBJ  .bss     _mwfile_locks
1266  0x1947c     200 GLOB OBJ  .bss     _mwhandle_locks
1267  0x10b5c     220 GLOB FUNC .text    _finit
1268  0x10c38     204 GLOB FUNC .text    _ifflush
1269  0x10d04       8 GLOB FUNC .text    fflush
1270  0x10d0c     156 GLOB FUNC .text    memset
1271  0x10da8     948 GLOB FUNC .text    _doatofd
1272  0x1115c     948 GLOB FUNC .text    _doatof
1273  0x11510       4 GLOB FUNC .text    _smalloc
1274  0x11514       4 GLOB FUNC .text    _sfree
1275  0x18dd8       4 GLOB OBJ  .data    _alignment_offset
1276  0x18de0       4 GLOB OBJ  .data    _mwhsegment_chain
1277  0x18de4       4 GLOB OBJ  .data    _malloc_level
1278  0x19544     208 GLOB OBJ  .bss     _mwhbucket
1279  0x18df4       4 GLOB OBJ  .data    _mwheap_lock
1280  0x11700     292 GLOB FUNC .text    _dump_heap
1281  0x11aa4     324 GLOB FUNC .text    _check_heap
1282  0x11d5c     308 GLOB FUNC .text    free
1283  0x1211c      76 GLOB FUNC .text    _find_heap_item
1284  0x12168     664 GLOB FUNC .text    malloc
1285  0x12400     940 GLOB FUNC .text    realloc
1286  0x127ac      96 GLOB FUNC .text    _msize
1287  0x129ec     808 GLOB FUNC .text    fread
1288  0x18e40       4 GLOB OBJ  .data    _fclose_exit_p
1289  0x12dd0       8 GLOB FUNC .text    _fcloseall
1290  0x12dd8       8 GLOB FUNC .text    _fclose_exit
1291  0x12de0     260 GLOB FUNC .text    setvbuf
1292  0x12ee4     176 GLOB FUNC .text    _flushall
1293  0x18e44      16 GLOB OBJ  .data    _fphuge
1294  0x18e54       4 GLOB OBJ  .data    _fphugef
1295  0x18e58      16 GLOB OBJ  .data    _fpepsf
1296  0x18e68      16 GLOB OBJ  .data    _fpepsd
1297  0x18e78      16 GLOB OBJ  .data    _fpepsl
1298  0x18e88      16 GLOB OBJ  .data    _fpminf
1299  0x18e98      16 GLOB OBJ  .data    _fpmind
1300  0x18ea8      16 GLOB OBJ  .data    _fpminl
1301  0x18eb8      16 GLOB OBJ  .data    _fpmaxf
1302  0x18ec8      16 GLOB OBJ  .data    _fpmaxd
1303  0x18ed8      16 GLOB OBJ  .data    _fpmaxl
1304  0x18ee8      16 GLOB OBJ  .data    _fpqnan
1305  0x18ef8       4 GLOB OBJ  .data    _fpqnanf
1306  0x12f94     208 GLOB FUNC .text    _fpecvt
1307  0x13064     208 GLOB FUNC .text    _fpecvtd
1308  0x13134      44 GLOB FUNC .text    _fpexpo
1309  0x13160      44 GLOB FUNC .text    _fpexpod
1310  0x1318c     104 GLOB FUNC .text    _fpoddf
1311  0x131f4     176 GLOB FUNC .text    _fpodd
1312  0x132a4     132 GLOB FUNC .text    _fptrnf
1313  0x13328     200 GLOB FUNC .text    _fptrn
1314  0x133f0     120 GLOB FUNC .text    _pow10d
1315  0x13468     120 GLOB FUNC .text    _pow10
1316  0x18fb0       4 GLOB OBJ  .data    _rterr_vprintf
1317  0x1362c      52 GLOB FUNC .text    _rterr_printf
1318  0x13660      24 GLOB FUNC .text    abort
1319  0x13678     280 GLOB FUNC .text    _fill
1320  0x13790     160 GLOB FUNC .text    _mwdo_ultoa
1321  0x13830      16 GLOB FUNC .text    _ultoa
1322  0x13840      16 GLOB FUNC .text    _utoa
1323  0x19614     128 GLOB OBJ  .bss     _sigtbl
1324  0x18fb4       4 GLOB OBJ  .data    _sig_code
1325  0x18fb8       4 GLOB OBJ  .data    _sig_subcode
1326  0x18fbc       4 GLOB OBJ  .data    _sig_flag
1327  0x18fc0       4 GLOB OBJ  .data    _sig_exit
1328  0x18fc4       4 GLOB OBJ  .data    _sig_fail
1329  0x18fc8       4 GLOB OBJ  .data    _sig_info
1330  0x18fcc       4 GLOB OBJ  .data    _sig_func
1331  0x13850      72 GLOB FUNC .text    signal
1332  0x13898      64 GLOB FUNC .text    _sigfail
1333  0x138d8      76 GLOB FUNC .text    _sigexit
1334  0x13924     236 GLOB FUNC .text    _raise
1335  0x13a10      52 GLOB FUNC .text    raise
1336  0x13a44      84 GLOB FUNC .text    _strrev
1337  0x13b18      28 GLOB FUNC .text    __mw_register_ctor
1338  0x13b34      36 GLOB FUNC .text    __mw_register_dtor
1339  0x13b58      52 GLOB FUNC .text    __mw_run_tls_ctor
1340  0x13b8c      52 GLOB FUNC .text    __mw_run_tls_dtor
1341  0x13bc0      80 GLOB FUNC .text    __mw_cpp_exit
1342  0x13c10      60 GLOB FUNC .text    __mw_cpp_init
1343  0x13c58       0 GLOB FUNC .text    _divmod_normbs
1344  0x13c4c       0 GLOB FUNC .text    _udivmod_normbs
1345  0x13cdc       0 GLOB FUNC .text    __prolog_save0sp_sub4
1346  0x13ce8       0 GLOB FUNC .text    __prolog_save0sp
1347  0x13ce0       0 GLOB FUNC .text    __prolog_save0_sub4
1348  0x13ce4       0 GLOB FUNC .text    __prolog_save0
1349  0x13e3c       0 GLOB FUNC .text    __prolog_store0
1350  0x13cf0       0 GLOB FUNC .text    __prolog_save13sp_sub4
1351  0x13cfc       0 GLOB FUNC .text    __prolog_save13sp
1352  0x13cf4       0 GLOB FUNC .text    __prolog_save13_sub4
1353  0x13cf8       0 GLOB FUNC .text    __prolog_save13
1354  0x13e38       0 GLOB FUNC .text    __prolog_store13
1355  0x13d04       0 GLOB FUNC .text    __prolog_save14sp_sub4
1356  0x13d10       0 GLOB FUNC .text    __prolog_save14sp
1357  0x13d08       0 GLOB FUNC .text    __prolog_save14_sub4
1358  0x13d0c       0 GLOB FUNC .text    __prolog_save14
1359  0x13e34       0 GLOB FUNC .text    __prolog_store14
1360  0x13d18       0 GLOB FUNC .text    __prolog_save15sp_sub4
1361  0x13d24       0 GLOB FUNC .text    __prolog_save15sp
1362  0x13d1c       0 GLOB FUNC .text    __prolog_save15_sub4
1363  0x13d20       0 GLOB FUNC .text    __prolog_save15
1364  0x13e30       0 GLOB FUNC .text    __prolog_store15
1365  0x13d2c       0 GLOB FUNC .text    __prolog_save16sp_sub4
1366  0x13d38       0 GLOB FUNC .text    __prolog_save16sp
1367  0x13d30       0 GLOB FUNC .text    __prolog_save16_sub4
1368  0x13d34       0 GLOB FUNC .text    __prolog_save16
1369  0x13e2c       0 GLOB FUNC .text    __prolog_store16
1370  0x13d40       0 GLOB FUNC .text    __prolog_save17sp_sub4
1371  0x13d4c       0 GLOB FUNC .text    __prolog_save17sp
1372  0x13d44       0 GLOB FUNC .text    __prolog_save17_sub4
1373  0x13d48       0 GLOB FUNC .text    __prolog_save17
1374  0x13e28       0 GLOB FUNC .text    __prolog_store17
1375  0x13d54       0 GLOB FUNC .text    __prolog_save18sp_sub4
1376  0x13d60       0 GLOB FUNC .text    __prolog_save18sp
1377  0x13d58       0 GLOB FUNC .text    __prolog_save18_sub4
1378  0x13d5c       0 GLOB FUNC .text    __prolog_save18
1379  0x13e24       0 GLOB FUNC .text    __prolog_store18
1380  0x13d68       0 GLOB FUNC .text    __prolog_save19sp_sub4
1381  0x13d74       0 GLOB FUNC .text    __prolog_save19sp
1382  0x13d6c       0 GLOB FUNC .text    __prolog_save19_sub4
1383  0x13d70       0 GLOB FUNC .text    __prolog_save19
1384  0x13e20       0 GLOB FUNC .text    __prolog_store19
1385  0x13d7c       0 GLOB FUNC .text    __prolog_save20sp_sub4
1386  0x13d88       0 GLOB FUNC .text    __prolog_save20sp
1387  0x13d80       0 GLOB FUNC .text    __prolog_save20_sub4
1388  0x13d84       0 GLOB FUNC .text    __prolog_save20
1389  0x13e1c       0 GLOB FUNC .text    __prolog_store20
1390  0x13d90       0 GLOB FUNC .text    __prolog_save21sp_sub4
1391  0x13d9c       0 GLOB FUNC .text    __prolog_save21sp
1392  0x13d94       0 GLOB FUNC .text    __prolog_save21_sub4
1393  0x13d98       0 GLOB FUNC .text    __prolog_save21
1394  0x13e18       0 GLOB FUNC .text    __prolog_store21
1395  0x13da4       0 GLOB FUNC .text    __prolog_save22sp_sub4
1396  0x13db0       0 GLOB FUNC .text    __prolog_save22sp
1397  0x13da8       0 GLOB FUNC .text    __prolog_save22_sub4
1398  0x13dac       0 GLOB FUNC .text    __prolog_save22
1399  0x13e14       0 GLOB FUNC .text    __prolog_store22
1400  0x13db8       0 GLOB FUNC .text    __prolog_save23sp_sub4
1401  0x13dc4       0 GLOB FUNC .text    __prolog_save23sp
1402  0x13dbc       0 GLOB FUNC .text    __prolog_save23_sub4
1403  0x13dc0       0 GLOB FUNC .text    __prolog_save23
1404  0x13e10       0 GLOB FUNC .text    __prolog_store23
1405  0x13dcc       0 GLOB FUNC .text    __prolog_save24sp_sub4
1406  0x13dd8       0 GLOB FUNC .text    __prolog_save24sp
1407  0x13dd0       0 GLOB FUNC .text    __prolog_save24_sub4
1408  0x13dd4       0 GLOB FUNC .text    __prolog_save24
1409  0x13e0c       0 GLOB FUNC .text    __prolog_store24
1410  0x13de0       0 GLOB FUNC .text    __prolog_save25sp_sub4
1411  0x13dec       0 GLOB FUNC .text    __prolog_save25sp
1412  0x13de4       0 GLOB FUNC .text    __prolog_save25_sub4
1413  0x13de8       0 GLOB FUNC .text    __prolog_save25
1414  0x13e08       0 GLOB FUNC .text    __prolog_store25
1415  0x13df4       0 GLOB FUNC .text    __prolog_save26sp_sub4
1416  0x13e00       0 GLOB FUNC .text    __prolog_save26sp
1417  0x13df8       0 GLOB FUNC .text    __prolog_save26_sub4
1418  0x13dfc       0 GLOB FUNC .text    __prolog_save26
1419  0x13e04       0 GLOB FUNC .text    __prolog_store26
1420  0x13e4c       0 GLOB FUNC .text    __epilog_restore0
1421  0x13ef8       0 GLOB FUNC .text    __epilog_load0
1422  0x13e54       0 GLOB FUNC .text    __epilog_restore13
1423  0x13ef4       0 GLOB FUNC .text    __epilog_load13
1424  0x13e5c       0 GLOB FUNC .text    __epilog_restore14
1425  0x13ef0       0 GLOB FUNC .text    __epilog_load14
1426  0x13e64       0 GLOB FUNC .text    __epilog_restore15
1427  0x13eec       0 GLOB FUNC .text    __epilog_load15
1428  0x13e6c       0 GLOB FUNC .text    __epilog_restore16
1429  0x13ee8       0 GLOB FUNC .text    __epilog_load16
1430  0x13e74       0 GLOB FUNC .text    __epilog_restore17
1431  0x13ee4       0 GLOB FUNC .text    __epilog_load17
1432  0x13e7c       0 GLOB FUNC .text    __epilog_restore18
1433  0x13ee0       0 GLOB FUNC .text    __epilog_load18
1434  0x13e84       0 GLOB FUNC .text    __epilog_restore19
1435  0x13edc       0 GLOB FUNC .text    __epilog_load19
1436  0x13e8c       0 GLOB FUNC .text    __epilog_restore20
1437  0x13ed8       0 GLOB FUNC .text    __epilog_load20
1438  0x13e94       0 GLOB FUNC .text    __epilog_restore21
1439  0x13ed4       0 GLOB FUNC .text    __epilog_load21
1440  0x13e9c       0 GLOB FUNC .text    __epilog_restore22
1441  0x13ed0       0 GLOB FUNC .text    __epilog_load22
1442  0x13ea4       0 GLOB FUNC .text    __epilog_restore23
1443  0x13ecc       0 GLOB FUNC .text    __epilog_load23
1444  0x13eac       0 GLOB FUNC .text    __epilog_restore24
1445  0x13ec8       0 GLOB FUNC .text    __epilog_load24
1446  0x13eb4       0 GLOB FUNC .text    __epilog_restore25
1447  0x13ec4       0 GLOB FUNC .text    __epilog_load25
1448  0x13ebc       0 GLOB FUNC .text    __epilog_restore26
1449  0x13ec0       0 GLOB FUNC .text    __epilog_load26
1450  0x13f04       8 GLOB FUNC .text    __argc
1451  0x13f0c      20 GLOB FUNC .text    __argv
1452  0x13f20     268 GLOB FUNC .text    _memclr
1453  0x1402c       4 GLOB FUNC .text    __start_kernel
1454  0x14030       0 GLOB FUNC .text    __store_va
1455  0x14054       0 GLOB FUNC .text    __store13to26
1456  0x14058       0 GLOB FUNC .text    __store13to25
1457  0x1405c       0 GLOB FUNC .text    __store13to24
1458  0x14060       0 GLOB FUNC .text    __store13to23
1459  0x14064       0 GLOB FUNC .text    __store13to22
1460  0x14068       0 GLOB FUNC .text    __store13to21
1461  0x1406c       0 GLOB FUNC .text    __store13to20
1462  0x14070       0 GLOB FUNC .text    __store13to19
1463  0x14074       0 GLOB FUNC .text    __store13to18
1464  0x14078       0 GLOB FUNC .text    __store13to17
1465  0x1407c       0 GLOB FUNC .text    __store13to16
1466  0x14080       0 GLOB FUNC .text    __store13to15
1467  0x14084       0 GLOB FUNC .text    __store13to14
1468  0x14088       0 GLOB FUNC .text    __store13to13
1469  0x14090       0 GLOB FUNC .text    __load13to26
1470  0x14094       0 GLOB FUNC .text    __load13to25
1471  0x14098       0 GLOB FUNC .text    __load13to24
1472  0x1409c       0 GLOB FUNC .text    __load13to23
1473  0x140a0       0 GLOB FUNC .text    __load13to22
1474  0x140a4       0 GLOB FUNC .text    __load13to21
1475  0x140a8       0 GLOB FUNC .text    __load13to20
1476  0x140ac       0 GLOB FUNC .text    __load13to19
1477  0x140b0       0 GLOB FUNC .text    __load13to18
1478  0x140b4       0 GLOB FUNC .text    __load13to17
1479  0x140b8       0 GLOB FUNC .text    __load13to16
1480  0x140bc       0 GLOB FUNC .text    __load13to15
1481  0x140c0       0 GLOB FUNC .text    __load13to14
1482  0x140c4       0 GLOB FUNC .text    __load13to13
1483  0x190a0       4 GLOB OBJ  .tls     errno
1484  0x140cc      24 WEAK FUNC .text    ___errno
1485  0x140e4       4 WEAK FUNC .text    _mwmutex_create
1486  0x140e8       4 WEAK FUNC .text    _mwmutex_delete
1487  0x140ec       4 WEAK FUNC .text    _mwmutex_lock
1488  0x140f0       4 WEAK FUNC .text    _mwmutex_unlock
1489  0x140f4       4 GLOB FUNC .text    _exit
1490  0x140f8      28 WEAK FUNC .text    close
1491  0x140f8      28 GLOB FUNC .text    _close
1492  0x14114       4 GLOB FUNC .text    remove
1493  0x14118      28 WEAK FUNC .text    lseek
1494  0x14118      28 GLOB FUNC .text    _lseek
1495  0x14144     252 GLOB FUNC .text    _divmod
1496  0x14134       0 GLOB FUNC .text    _udivmod
1497  0x14240     600 GLOB FUNC .text    _mwcvtdf
1498  0x14498       0 GLOB NULL .text    _Lmpy
1499  0x14514       0 GLOB NULL .text    _Lsrl
1500  0x1452c       0 GLOB NULL .text    _Ldiv
1501  0x1455c       0 GLOB NULL .text    _Ludiv
1502  0x14674    1160 GLOB FUNC .text    _mwdmul_
1503  0x14afc     228 GLOB FUNC .text    _mwdfltu_
1504  0x14b10     208 GLOB FUNC .text    _mwdflt_
1505  0x14bec    1444 GLOB FUNC .text    _mwdsub_
1506  0x14be0       0 GLOB NULL .text    _mwdrsub_
1507  0x14bf4    1436 GLOB FUNC .text    _mwdadd_
1508  0x151a8    1188 GLOB FUNC .text    _mwddiv_
1509  0x15190       0 GLOB NULL .text    _mwdrdiv_
1510  0x1564c       0 GLOB NULL .text    __deq0
1511  0x1565c       0 GLOB NULL .text    __deq
1512  0x156b0       0 GLOB NULL .text    __dcmpr
1513  0x156d0       0 GLOB NULL .text    __dcmp
1514  0x15720       0 GLOB FUNC .text    __epilog_restore0_add4
1515  0x157cc       0 GLOB FUNC .text    __epilog_load0_add4
1516  0x15728       0 GLOB FUNC .text    __epilog_restore13_add4
1517  0x157c8       0 GLOB FUNC .text    __epilog_load13_add4
1518  0x15730       0 GLOB FUNC .text    __epilog_restore14_add4
1519  0x157c4       0 GLOB FUNC .text    __epilog_load14_add4
1520  0x15738       0 GLOB FUNC .text    __epilog_restore15_add4
1521  0x157c0       0 GLOB FUNC .text    __epilog_load15_add4
1522  0x15740       0 GLOB FUNC .text    __epilog_restore16_add4
1523  0x157bc       0 GLOB FUNC .text    __epilog_load16_add4
1524  0x15748       0 GLOB FUNC .text    __epilog_restore17_add4
1525  0x157b8       0 GLOB FUNC .text    __epilog_load17_add4
1526  0x15750       0 GLOB FUNC .text    __epilog_restore18_add4
1527  0x157b4       0 GLOB FUNC .text    __epilog_load18_add4
1528  0x15758       0 GLOB FUNC .text    __epilog_restore19_add4
1529  0x157b0       0 GLOB FUNC .text    __epilog_load19_add4
1530  0x15760       0 GLOB FUNC .text    __epilog_restore20_add4
1531  0x157ac       0 GLOB FUNC .text    __epilog_load20_add4
1532  0x15768       0 GLOB FUNC .text    __epilog_restore21_add4
1533  0x157a8       0 GLOB FUNC .text    __epilog_load21_add4
1534  0x15770       0 GLOB FUNC .text    __epilog_restore22_add4
1535  0x157a4       0 GLOB FUNC .text    __epilog_load22_add4
1536  0x15778       0 GLOB FUNC .text    __epilog_restore23_add4
1537  0x157a0       0 GLOB FUNC .text    __epilog_load23_add4
1538  0x15780       0 GLOB FUNC .text    __epilog_restore24_add4
1539  0x1579c       0 GLOB FUNC .text    __epilog_load24_add4
1540  0x15788       0 GLOB FUNC .text    __epilog_restore25_add4
1541  0x15798       0 GLOB FUNC .text    __epilog_load25_add4
1542  0x15790       0 GLOB FUNC .text    __epilog_restore26_add4
1543  0x15794       0 GLOB FUNC .text    __epilog_load26_add4
1544  0x18ffc       4 GLOB OBJ  .data    __MEMSIZE__
1545  0x157dc     156 WEAK FUNC .text    sbrk
1546  0x157dc     156 GLOB FUNC .text    _sbrk
1547  0x15878      16 WEAK FUNC .text    brk
1548  0x15878      16 GLOB FUNC .text    _brk
1549  0x15928      12 WEAK FUNC .text    getenv
1550  0x15928      12 GLOB FUNC .text    _getenv
1551  0x1591c      12 GLOB FUNC .text    _mwgetenv2
1552  0x15934       0 GLOB NULL .text    _div0
1553  0x1594c       0 GLOB NULL .text    _udiv0
1554  0x15954      52 WEAK FUNC .text    _mwget_tls
1555  0x15988      28 WEAK FUNC .text    unlink
1556  0x15988      28 GLOB FUNC .text    _unlink
1557  0x19090       4 WEAK OBJ  .data    environ
1558  0x19090       4 GLOB OBJ  .data    _environ
1559  0x159a4       4 GLOB FUNC .text    __envstart
1560  0x159a8      64 GLOB FUNC .text    strncmp
1561  0x159e8       0 GLOB FUNC .text    __epilog_restore0f
1562  0x15a94       0 GLOB FUNC .text    __epilog_load0f
1563  0x159f0       0 GLOB FUNC .text    __epilog_restore13f
1564  0x15a90       0 GLOB FUNC .text    __epilog_load13f
1565  0x159f8       0 GLOB FUNC .text    __epilog_restore14f
1566  0x15a8c       0 GLOB FUNC .text    __epilog_load14f
1567  0x15a00       0 GLOB FUNC .text    __epilog_restore15f
1568  0x15a88       0 GLOB FUNC .text    __epilog_load15f
1569  0x15a08       0 GLOB FUNC .text    __epilog_restore16f
1570  0x15a84       0 GLOB FUNC .text    __epilog_load16f
1571  0x15a10       0 GLOB FUNC .text    __epilog_restore17f
1572  0x15a80       0 GLOB FUNC .text    __epilog_load17f
1573  0x15a18       0 GLOB FUNC .text    __epilog_restore18f
1574  0x15a7c       0 GLOB FUNC .text    __epilog_load18f
1575  0x15a20       0 GLOB FUNC .text    __epilog_restore19f
1576  0x15a78       0 GLOB FUNC .text    __epilog_load19f
1577  0x15a28       0 GLOB FUNC .text    __epilog_restore20f
1578  0x15a74       0 GLOB FUNC .text    __epilog_load20f
1579  0x15a30       0 GLOB FUNC .text    __epilog_restore21f
1580  0x15a70       0 GLOB FUNC .text    __epilog_load21f
1581  0x15a38       0 GLOB FUNC .text    __epilog_restore22f
1582  0x15a6c       0 GLOB FUNC .text    __epilog_load22f
1583  0x15a40       0 GLOB FUNC .text    __epilog_restore23f
1584  0x15a68       0 GLOB FUNC .text    __epilog_load23f
1585  0x15a48       0 GLOB FUNC .text    __epilog_restore24f
1586  0x15a64       0 GLOB FUNC .text    __epilog_load24f
1587  0x15a50       0 GLOB FUNC .text    __epilog_restore25f
1588  0x15a60       0 GLOB FUNC .text    __epilog_load25f
1589  0x15a58       0 GLOB FUNC .text    __epilog_restore26f
1590  0x15a5c       0 GLOB FUNC .text    __epilog_load26f
1591  0x15aa0      80 GLOB FUNC .text    memcmp
1592  0x4000        0 GLOB NULL ABS      _STACKSIZE
1593  0x2000        0 GLOB NULL ABS      _HEAPSIZE
1594  0x1d8d8       0 GLOB NULL .stack   _estack
1595  0x17728       0 GLOB NULL .sdata   _SDA_BASE_
1596  0x19794       4 GLOB OBJ  .bss     fh_stdout
1597  0x19798       4 GLOB OBJ  .bss     fh_stdin
1598  0x1979c       4 GLOB OBJ  .bss     TtyHandle
1599  0x197a0       4 GLOB OBJ  .bss     OsdHandle
1600  0x197a4       4 GLOB OBJ  .bss     fd_gpio_sdram_handle
1601  0x197a8       4 GLOB OBJ  .bss     fd_gpio_tsd1_handle
1602  0x197ac       4 GLOB OBJ  .bss     fd_gpio_tsd2_handle
1603  0x197b0       4 GLOB OBJ  .bss     IrqActiveRegister
1604  0x197b4       4 GLOB OBJ  .bss     IrqMaskRegister
1605  0x197b8     100 GLOB OBJ  .bss     DriverFuncTable
1606  0x1981c       4 GLOB OBJ  .bss     m_arc_auxmulhigh
1607  0x19820       4 GLOB OBJ  .bss     m_arc_auxirqhint
1608  0x19824       4 GLOB OBJ  .bss     m_arc_irqcombineenable
1609  0x19828       4 GLOB OBJ  .bss     m_arc_debugportdisable
1610  0x1982c       4 GLOB OBJ  .bss     m_arc_comparestream
1611  0x19830       4 GLOB OBJ  .bss     m_arc_searchcompare
1612  0x19834       4 GLOB OBJ  .bss     m_arc_maskcompare
1613  0x19838       4 GLOB OBJ  .bss     m_uart_irqclear
1614  0x1983c       4 GLOB OBJ  .bss     m_gpio_irqstatuslower
1615  0x19840       4 GLOB OBJ  .bss     m_gpio_irqstatusupper
1616  0x19844       4 GLOB OBJ  .bss     m_gpio_directionlower
1617  0x19848       4 GLOB OBJ  .bss     m_gpio_directionupper
1618  0x1984c       4 GLOB OBJ  .bss     m_gpio_irqenablelower
1619  0x19850       4 GLOB OBJ  .bss     m_gpio_irqenableupper
1620  0x19854       4 GLOB OBJ  .bss     m_gpio_irqlevellower
1621  0x19858       4 GLOB OBJ  .bss     m_gpio_irqlevelupper
1622  0x1985c       4 GLOB OBJ  .bss     m_gpio_irqpolaritylower
1623  0x19860       4 GLOB OBJ  .bss     m_gpio_irqpolarityupper
1624  0x19864       4 GLOB OBJ  .bss     m_gpio_opendrainlower
1625  0x19868       4 GLOB OBJ  .bss     m_gpio_opendrainupper
1626  0x1986c       4 GLOB OBJ  .bss     m_gpio_data0
1627  0x19870       4 GLOB OBJ  .bss     m_gpio_data1
1628  0x19874       4 GLOB OBJ  .bss     m_gpio_data2
1629  0x19878       4 GLOB OBJ  .bss     m_gpio_data3
1630  0x1987c       4 GLOB OBJ  .bss     m_gpio_muxselectlower
1631  0x19880       4 GLOB OBJ  .bss     m_gpio_muxselectupper
1632  0x19884       4 GLOB OBJ  .bss     m_upi_addrext
1633  0x19888       4 GLOB OBJ  .bss     m_upi_cssel
1634  0x1988c       4 GLOB OBJ  .bss     m_upi_csmode
1635  0x19890       4 GLOB OBJ  .bss     m_ve_rgbconf
1636  0x19894       4 GLOB OBJ  .bss     m_ve_rgblum
1637  0x19898       4 GLOB OBJ  .bss     m_ve_rgbchrom
1638  0x1989c       4 GLOB OBJ  .bss     m_ve_ceconf
1639  0x198a0       4 GLOB OBJ  .bss     m_ve_ceburstint
1640  0x198a4       4 GLOB OBJ  .bss     m_ve_ceburstfra1
1641  0x198a8       4 GLOB OBJ  .bss     m_ve_ceburstfra2
1642  0x198ac       4 GLOB OBJ  .bss     m_ve_muxdacconf1
1643  0x198b0       4 GLOB OBJ  .bss     m_ve_muxdacconf2
1644  0x198b4       4 GLOB OBJ  .bss     m_ve_muxdacconf3
1645  0x198b8       4 GLOB OBJ  .bss     m_ve_enc656wss
1646  0x198bc       4 GLOB OBJ  .bss     m_ve_ccline21
1647  0x198c0       4 GLOB OBJ  .bss     m_ve_ccline284
1648  0x198c4       4 GLOB OBJ  .bss     m_ve_vbidwords
1649  0x198c8       4 GLOB OBJ  .bss     m_ve_wssdata
1650  0x198cc       4 GLOB OBJ  .bss     m_ve_itru656dirdata
1651  0x198d0       4 GLOB OBJ  .bss     m_ve_macrovision
1652  0x198d4       4 GLOB OBJ  .bss     m_ve_ccirenable
1653  0x0           0 WEAK NULL UND      __PICTABLE__
1654  0x190a4       0 GLOB NULL .bss     _fbss
1655  0x198d8       0 GLOB NULL .bss     _ebss
1656  0x0           0 WEAK NULL UND      _initdat
1657  0x0           0 WEAK NULL UND      _einitdat
1658  0x1d8d8       0 GLOB NULL .heap    _fheap
1659  0x1f8d8       0 GLOB NULL .heap    _eheap
1660  0x1f8d8       0 GLOB OBJ  .heap    _end
1661  0x190a0       0 WEAK NULL .tls     _ftls
1662  0x190a4       0 WEAK NULL .tls     _etls
Content of section .ARC (#1) size=0x2b0 start=0x74
8000: 1fbf8000                 flag	0
8004: 601ffe03                 mov	%r0,3
8008: 121f8048                 sr	%r0,[0x48]
800c: 601ffe00                 mov	%r0,0
8010: 121f0000 00000202        sr	%r0,[0x202]		; 0x202 = FEXP_MAX+0x103
8018: 601f7c00 00008080        mov	%r0,0x8080		; IntBaseVectTable
8020: 121f0000 00000203        sr	%r0,[0x203]		; 0x203 = FEXP_MAX+0x104
8028: 639f7c00 0001d8d8        mov	%sp,0x1_d8d8		; _estack
8030: 538e7e10                 sub	%sp,%sp,16
8034: 635f7c00 00017728        mov	%gp,0x1_7728		; __version_string
803c: 637ffe00                 mov	%fp,0
8040: 603f7c00 0a060000        mov	%r1,0xa06_0000		; 0xa06_0000 = .regmask_hi+0x60000
8048: 601f7c00 00001234        mov	%r0,0x1234		; 0x1234 = DEXP_MAX+0xa35
8050: 14008000                 st.di	%r0,[%r1]
8054: 381f0000 00003719        j	__arc_main		; 0x3719 = _HEAPSIZE+0x1719
805c: 381f0000 00002019        j	_exit_halt		; 0x2019 = _HEAPSIZE+0x19
8064: 1fbf8001                 flag	1
8068: 7fffffff                 nop
806c: 7fffffff                 nop
8070: 7fffffff                 nop
8074: 27fffd80                 b	_exit_halt
8078: 7fffffff                 nop
807c: 7fffffff                 nop
8080: 381f0000 00002060        j	IRQ_FUNC_0		; 0x2060 = _HEAPSIZE+0x60
8088: 381f0000 00002062        j	IRQ_FUNC_1		; 0x2062 = _HEAPSIZE+0x62
8090: 381f0000 00002064        j	IRQ_FUNC_2		; 0x2064 = _HEAPSIZE+0x64
8098: 381f0000 00002066        j	IRQ_FUNC_3		; 0x2066 = _HEAPSIZE+0x66
80a0: 381f0000 00002068        j	IRQ_FUNC_4		; 0x2068 = _HEAPSIZE+0x68
80a8: 381f0000 0000206a        j	IRQ_FUNC_5		; 0x206a = _HEAPSIZE+0x6a
80b0: 381f0000 0000206c        j	IRQ_FUNC_6		; 0x206c = _HEAPSIZE+0x6c
80b8: 381f0000 0000206e        j	IRQ_FUNC_7		; 0x206e = _HEAPSIZE+0x6e
80c0: 381f0000 00002070        j	IRQ_FUNC_8		; 0x2070 = _HEAPSIZE+0x70
80c8: 381f0000 00002072        j	IRQ_FUNC_9		; 0x2072 = _HEAPSIZE+0x72
80d0: 381f0000 00002074        j	IRQ_FUNC_10		; 0x2074 = _HEAPSIZE+0x74
80d8: 381f0000 00002076        j	IRQ_FUNC_11		; 0x2076 = _HEAPSIZE+0x76
80e0: 381f0000 00002078        j	IRQ_FUNC_12		; 0x2078 = _HEAPSIZE+0x78
80e8: 381f0000 0000207a        j	IRQ_FUNC_13		; 0x207a = _HEAPSIZE+0x7a
80f0: 381f0000 0000207c        j	IRQ_FUNC_14		; 0x207c = _HEAPSIZE+0x7c
80f8: 381f0000 0000207e        j	IRQ_FUNC_15		; 0x207e = _HEAPSIZE+0x7e
8100: 381f0000 00002080        j	IRQ_FUNC_16		; 0x2080 = _HEAPSIZE+0x80
8108: 381f0000 00002082        j	IRQ_FUNC_17		; 0x2082 = _HEAPSIZE+0x82
8110: 381f0000 00002084        j	IRQ_FUNC_18		; 0x2084 = _HEAPSIZE+0x84
8118: 381f0000 00002086        j	IRQ_FUNC_19		; 0x2086 = _HEAPSIZE+0x86
8120: 381f0000 00002088        j	IRQ_FUNC_20		; 0x2088 = _HEAPSIZE+0x88
IRQ_VECT_21:
8128: 381f0000 0000208a        j	IRQ_FUNC_21		; 0x208a = _HEAPSIZE+0x8a
IRQ_VECT_22:
8130: 381f0000 0000208c        j	IRQ_FUNC_22		; 0x208c = _HEAPSIZE+0x8c
IRQ_VECT_23:
8138: 381f0000 0000208e        j	IRQ_FUNC_23		; 0x208e = _HEAPSIZE+0x8e
IRQ_VECT_24:
8140: 381f0000 00002090        j	IRQ_FUNC_24		; 0x2090 = _HEAPSIZE+0x90
IRQ_VECT_25:
8148: 381f0000 00002092        j	IRQ_FUNC_25		; 0x2092 = _HEAPSIZE+0x92
IRQ_VECT_26:
8150: 381f0000 00002094        j	IRQ_FUNC_26		; 0x2094 = _HEAPSIZE+0x94
IRQ_VECT_27:
8158: 381f0000 00002096        j	IRQ_FUNC_27		; 0x2096 = _HEAPSIZE+0x96
IRQ_VECT_28:
8160: 381f0000 00002098        j	IRQ_FUNC_28		; 0x2098 = _HEAPSIZE+0x98
IRQ_VECT_29:
8168: 381f0000 0000209a        j	IRQ_FUNC_29		; 0x209a = _HEAPSIZE+0x9a
IRQ_VECT_30:
8170: 381f0000 0000209c        j	IRQ_FUNC_30		; 0x209c = _HEAPSIZE+0x9c
IRQ_VECT_31:
8178: 381f0000 0000209e        j	IRQ_FUNC_31		; 0x209e = _HEAPSIZE+0x9e
IRQ_FUNC_0:
8180: 381f0000 00002000        j	_start		; _HEAPSIZE
IRQ_FUNC_1:
8188: 381f0000 000020a6        j	MemError		; 0x20a6 = _HEAPSIZE+0xa6
IRQ_FUNC_2:
8190: 381f0000 000020a0        j	InstError		; 0x20a0 = _HEAPSIZE+0xa0
IRQ_FUNC_3:
8198: 381f0000 00002019        j	_exit_halt		; 0x2019 = _HEAPSIZE+0x19
IRQ_FUNC_4:
81a0: 381f0000 00002019        j	_exit_halt		; 0x2019 = _HEAPSIZE+0x19
IRQ_FUNC_5:
81a8: 381f0000 00002019        j	_exit_halt		; 0x2019 = _HEAPSIZE+0x19
IRQ_FUNC_6:
81b0: 381f0000 00002019        j	_exit_halt		; 0x2019 = _HEAPSIZE+0x19
IRQ_FUNC_7:
81b8: 381f0000 00002019        j	_exit_halt		; 0x2019 = _HEAPSIZE+0x19
IRQ_FUNC_8:
81c0: 381f0000 00002019        j	_exit_halt		; 0x2019 = _HEAPSIZE+0x19
IRQ_FUNC_9:
81c8: 381f0000 00002019        j	_exit_halt		; 0x2019 = _HEAPSIZE+0x19
IRQ_FUNC_10:
81d0: 381f0000 00002019        j	_exit_halt		; 0x2019 = _HEAPSIZE+0x19
IRQ_FUNC_11:
81d8: 381f0000 00002019        j	_exit_halt		; 0x2019 = _HEAPSIZE+0x19
IRQ_FUNC_12:
81e0: 381f0000 00002019        j	_exit_halt		; 0x2019 = _HEAPSIZE+0x19
IRQ_FUNC_13:
81e8: 381f0000 00002019        j	_exit_halt		; 0x2019 = _HEAPSIZE+0x19
IRQ_FUNC_14:
81f0: 381f0000 00002019        j	_exit_halt		; 0x2019 = _HEAPSIZE+0x19
IRQ_FUNC_15:
81f8: 381f0000 00002019        j	_exit_halt		; 0x2019 = _HEAPSIZE+0x19
IRQ_FUNC_16:
8200: 381f0000 00002019        j	_exit_halt		; 0x2019 = _HEAPSIZE+0x19
IRQ_FUNC_17:
8208: 381f0000 00002019        j	_exit_halt		; 0x2019 = _HEAPSIZE+0x19
IRQ_FUNC_18:
8210: 381f0000 00002019        j	_exit_halt		; 0x2019 = _HEAPSIZE+0x19
IRQ_FUNC_19:
8218: 381f0000 00002019        j	_exit_halt		; 0x2019 = _HEAPSIZE+0x19
IRQ_FUNC_20:
8220: 381f0000 00002019        j	_exit_halt		; 0x2019 = _HEAPSIZE+0x19
IRQ_FUNC_21:
8228: 381f0000 00002019        j	_exit_halt		; 0x2019 = _HEAPSIZE+0x19
IRQ_FUNC_22:
8230: 381f0000 00002019        j	_exit_halt		; 0x2019 = _HEAPSIZE+0x19
IRQ_FUNC_23:
8238: 381f0000 00002019        j	_exit_halt		; 0x2019 = _HEAPSIZE+0x19
IRQ_FUNC_24:
8240: 381f0000 00002019        j	_exit_halt		; 0x2019 = _HEAPSIZE+0x19
IRQ_FUNC_25:
8248: 381f0000 00002019        j	_exit_halt		; 0x2019 = _HEAPSIZE+0x19
IRQ_FUNC_26:
8250: 381f0000 00002019        j	_exit_halt		; 0x2019 = _HEAPSIZE+0x19
IRQ_FUNC_27:
8258: 381f0000 00002019        j	_exit_halt		; 0x2019 = _HEAPSIZE+0x19
IRQ_FUNC_28:
8260: 381f0000 00002019        j	_exit_halt		; 0x2019 = _HEAPSIZE+0x19
IRQ_FUNC_29:
8268: 381f0000 00002019        j	_exit_halt		; 0x2019 = _HEAPSIZE+0x19
IRQ_FUNC_30:
8270: 381f0000 00002019        j	_exit_halt		; 0x2019 = _HEAPSIZE+0x19
IRQ_FUNC_31:
8278: 381f0000 00002019        j	_exit_halt		; 0x2019 = _HEAPSIZE+0x19
InstError:
8280: 1fbf8001                 flag	1
8284: 7fffffff                 nop
8288: 7fffffff                 nop
828c: 7fffffff                 nop
8290: 27fffd80                 b	InstError
8294: 7fffffff                 nop
MemError:
8298: 1fbf8001                 flag	1
829c: 7fffffff                 nop
82a0: 7fffffff                 nop
82a4: 7fffffff                 nop
82a8: 27fffd80                 b	MemError
82ac: 7fffffff                 nop
Content of section .fini (#2) size=0x24 start=0x324
_fini:
82b0: 100e3600                 st	%fp,[%sp]
82b4: 100e3e04                 st	%blink,[%sp,4]
82b8: 636e3800                 mov	%fp,%sp
82bc: 538e7e10                 sub	%sp,%sp,16
82c0: 381f0240 00004ef0        jl	__mw_cpp_exit		; 0x4ef0 = _STACKSIZE+0xef0
82c8: 0bed8004                 ld	%blink,[%fp,4]
82cc: 380f8020                 j.d	[%blink]
82d0: 0b6e1010                 ld.a	%fp,[%sp,16]
Content of section .init (#3) size=0x84 start=0x348
_init:
82d4: 100e3600                 st	%fp,[%sp]
82d8: 100e3e04                 st	%blink,[%sp,4]
82dc: 636e3800                 mov	%fp,%sp
82e0: 538e7e10                 sub	%sp,%sp,16
82e4: 601f7c00 00018cec        mov	%r0,0x1_8cec		; 0x1_8cec = _atexit_lock+4
82ec: 381f0240 00004ec6        jl	__mw_register_ctor		; 0x4ec6 = _STACKSIZE+0xec6
82f4: 601f7c00 00018d00        mov	%r0,0x1_8d00		; 0x1_8d00 = _iob_lock+4
82fc: 381f0240 00004ecd        jl	__mw_register_dtor		; 0x4ecd = _STACKSIZE+0xecd
8304: 601f7c00 00018d0c        mov	%r0,0x1_8d0c		; 0x1_8d0c = _iob_lock+16
830c: 381f0240 00004ec6        jl	__mw_register_ctor		; 0x4ec6 = _STACKSIZE+0xec6
8314: 601f7c00 00018d18        mov	%r0,0x1_8d18		; 0x1_8d18 = _iob_lock+0x1c
831c: 381f0240 00004ecd        jl	__mw_register_dtor		; 0x4ecd = _STACKSIZE+0xecd
8324: 601f7c00 00018d24        mov	%r0,0x1_8d24		; 0x1_8d24 = _iob_lock+0x28
832c: 381f0240 00004ec6        jl	__mw_register_ctor		; 0x4ec6 = _STACKSIZE+0xec6
8334: 601f7c00 00018dfc        mov	%r0,0x1_8dfc		; 0x1_8dfc = checking+4
833c: 381f0240 00004ec6        jl	__mw_register_ctor		; 0x4ec6 = _STACKSIZE+0xec6
8344: 381f0240 00004f04        jl	__mw_cpp_init		; 0x4f04 = _STACKSIZE+0xf04
834c: 0bed8004                 ld	%blink,[%fp,4]
8350: 380f8020                 j.d	[%blink]
8354: 0b6e1010                 ld.a	%fp,[%sp,16]
Content of section .text (#4) size=0xedc0 start=0x3d4
FM_DEBUG_Init:
8360: 100e3e04                 st	%blink,[%sp,4]
8364: 100e3600                 st	%fp,[%sp]
8368: 636e3800                 mov	%fp,%sp
836c: 538e7e24                 sub	%sp,%sp,36
8370: 100e1a10                 st	%r13,[%sp,16]
8374: 100e1c14                 st	%r14,[%sp,20]
8378: 100e1e18                 st	%r15,[%sp,24]
837c: 61c00000                 mov	%r14,%r0
8380: 51a69a00                 sub	%r13,%r13,%r13
8384: 601f7c00 00017718        mov	%r0,0x1_7718		; 0x1_7718 = _ctype+0x524
838c: 603f7c00 0001771c        mov	%r1,0x1_771c		; 0x1_771c = _ctype+0x528
8394: 61ff7c00 00018550        mov	%r15,0x1_8550		; __iob
839c: 4047fe10                 add	%r2,%r15,16
83a0: 280b3f80                 bl	freopen
83a4: 603f7c00 00019794        mov	%r1,0x1_9794		; fh_stdout
83ac: 10008000                 st	%r0,[%r1]
83b0: 601f7c00 00017720        mov	%r0,0x1_7720		; 0x1_7720 = _ctype+0x52c
83b8: 603f7c00 00017724        mov	%r1,0x1_7724		; 0x1_7724 = _ctype+0x530
83c0: 60479e00                 mov	%r2,%r15
83c4: 280b3b00                 bl	freopen
83c8: 603f7c00 00019798        mov	%r1,0x1_9798		; fh_stdin
83d0: 10008000                 st	%r0,[%r1]
83d4: 08070400                 ldb	%r0,[%r14]
83d8: 60007e01                 and	%r0,%r0,1
83dc: 57e07a01                 sub.f	0,%r0,1
83e0: 20001082                 bnz	0x8468 = FM_DEBUG_Init+0x108
83e4: 100d9bf8                 st	%r13,[%fp,-8]
83e8: 08070601                 ldb.x	%r0,[%r14,1]
83ec: 104d81fc                 stb	%r0,[%fp,-4]
83f0: 08070602                 ldb.x	%r0,[%r14,2]
83f4: 104d81fd                 stb	%r0,[%fp,-3]
83f8: 400dfff8                 add	%r0,%fp,-8
83fc: 61df7c00 0001979c        mov	%r14,0x1_979c		; TtyHandle
8404: 60271c00                 mov	%r1,%r14
8408: 28037c80                 bl	FD_UART_Open
840c: 57e07a00                 sub.f	0,%r0,0
8410: 20000702                 bnz	0x844c = FM_DEBUG_Init+0xec
8414: 603f7c00 0001851b        mov	%r1,0x1_851b		; 0x1_851b = _bufendtab+0x93
841c: 08008500                 ldb	%r0,[%r1,-256]
8420: 40007e01                 add	%r0,%r0,1
8424: 10408100                 stb	%r0,[%r1,-256]
8428: 08070000                 ld	%r0,[%r14]
842c: 28033f00                 bl	FD_UART_Flush
8430: 60069a00                 mov	%r0,%r13
8434: 09ae0010                 ld	%r13,[%sp,16]
8438: 09ce0014                 ld	%r14,[%sp,20]
843c: 09ee0018                 ld	%r15,[%sp,24]
8440: 0bed8004                 ld	%blink,[%fp,4]
8444: 380f8020                 j.d	[%blink]
8448: 0b6e1024                 ld.a	%fp,[%sp,36]
844c: 601ffe08                 mov	%r0,8
8450: 09ae0010                 ld	%r13,[%sp,16]
8454: 09ce0014                 ld	%r14,[%sp,20]
8458: 09ee0018                 ld	%r15,[%sp,24]
845c: 0bed8004                 ld	%blink,[%fp,4]
8460: 380f8020                 j.d	[%blink]
8464: 0b6e1024                 ld.a	%fp,[%sp,36]
8468: 60069a00                 mov	%r0,%r13
846c: 09ae0010                 ld	%r13,[%sp,16]
8470: 09ce0014                 ld	%r14,[%sp,20]
8474: 09ee0018                 ld	%r15,[%sp,24]
8478: 0bed8004                 ld	%blink,[%fp,4]
847c: 380f8020                 j.d	[%blink]
8480: 0b6e1024                 ld.a	%fp,[%sp,36]
FM_Printf:
8484: 538e7e20                 sub	%sp,%sp,32
8488: 100e0010                 st	%r0,[%sp,16]
848c: 100e0214                 st	%r1,[%sp,20]
8490: 100e0418                 st	%r2,[%sp,24]
8494: 100e061c                 st	%r3,[%sp,28]
8498: 100e0820                 st	%r4,[%sp,32]
849c: 100e0a24                 st	%r5,[%sp,36]
84a0: 100e0c28                 st	%r6,[%sp,40]
84a4: 100e0e2c                 st	%r7,[%sp,44]
84a8: 100e3e04                 st	%blink,[%sp,4]
84ac: 100e3600                 st	%fp,[%sp]
84b0: 636e3800                 mov	%fp,%sp
84b4: 538e7e10                 sub	%sp,%sp,16
84b8: 100d8010                 st	%r0,[%fp,16]
84bc: 60200000                 mov	%r1,%r0
84c0: 601f7c00 0001851b        mov	%r0,0x1_851b		; 0x1_851b = _bufendtab+0x93
84c8: 08000500                 ldb	%r0,[%r0,-256]
84cc: 57e07a00                 sub.f	0,%r0,0
84d0: 20000301                 bz	0x84ec = FM_Printf+0x68
84d4: 404dfe14                 add	%r2,%fp,20
84d8: 601f7c00 00019794        mov	%r0,0x1_9794		; fh_stdout
84e0: 08000000                 ld	%r0,[%r0]
84e4: 280b1880                 bl	vfprintf
84e8: 20000080                 b	0x84f0 = FM_Printf+0x6c
84ec: 50000000                 sub	%r0,%r0,%r0
84f0: 0bed8004                 ld	%blink,[%fp,4]
84f4: 0b6e1010                 ld.a	%fp,[%sp,16]
84f8: 380f8020                 j.d	[%blink]
84fc: 438e7e20                 add	%sp,%sp,32
FM_Scanf:
8500: 538e7e20                 sub	%sp,%sp,32
8504: 100e0010                 st	%r0,[%sp,16]
8508: 100e0214                 st	%r1,[%sp,20]
850c: 100e0418                 st	%r2,[%sp,24]
8510: 100e061c                 st	%r3,[%sp,28]
8514: 100e0820                 st	%r4,[%sp,32]
8518: 100e0a24                 st	%r5,[%sp,36]
851c: 100e0c28                 st	%r6,[%sp,40]
8520: 100e0e2c                 st	%r7,[%sp,44]
8524: 100e3e04                 st	%blink,[%sp,4]
8528: 100e3600                 st	%fp,[%sp]
852c: 636e3800                 mov	%fp,%sp
8530: 538e7e14                 sub	%sp,%sp,20
8534: 100e1a10                 st	%r13,[%sp,16]
8538: 60200000                 mov	%r1,%r0
853c: 100d8210                 st	%r1,[%fp,16]
8540: 404dfe14                 add	%r2,%fp,20
8544: 601f7c00 00019798        mov	%r0,0x1_9798		; fh_stdin
854c: 08000000                 ld	%r0,[%r0]
8550: 280b2f80                 bl	_vfscanf
8554: 61a00000                 mov	%r13,%r0
8558: 601f7c00 0001979c        mov	%r0,0x1_979c		; TtyHandle
8560: 08000000                 ld	%r0,[%r0]
8564: 28031800                 bl	FD_UART_Flush
8568: 60069a00                 mov	%r0,%r13
856c: 09ae0010                 ld	%r13,[%sp,16]
8570: 0bed8004                 ld	%blink,[%fp,4]
8574: 0b6e1014                 ld.a	%fp,[%sp,20]
8578: 380f8020                 j.d	[%blink]
857c: 438e7e20                 add	%sp,%sp,32
FM_ScanStr:
8580: 100e3e04                 st	%blink,[%sp,4]
8584: 100e3600                 st	%fp,[%sp]
8588: 636e3800                 mov	%fp,%sp
858c: 538e7e20                 sub	%sp,%sp,32
8590: 100e1a10                 st	%r13,[%sp,16]
8594: 100e1c14                 st	%r14,[%sp,20]
8598: 100e1e18                 st	%r15,[%sp,24]
859c: 61c00000                 mov	%r14,%r0
85a0: 51a69a00                 sub	%r13,%r13,%r13
85a4: 61ff7c00 0001979c        mov	%r15,0x1_979c		; TtyHandle
85ac: 08078000                 ld	%r0,[%r15]
85b0: 402dfffc                 add	%r1,%fp,-4
85b4: 2802e880                 bl	FD_UART_CheckRxBuffer
85b8: 080d81fc                 ld	%r0,[%fp,-4]
85bc: 57e07a00                 sub.f	0,%r0,0
85c0: 27fffc01                 bz	0x85a4 = FM_ScanStr+0x24
85c4: 08078000                 ld	%r0,[%r15]
85c8: 402dffff                 add	%r1,%fp,-1
85cc: 605ffe01                 mov	%r2,1
85d0: 28036900                 bl	FD_UART_Read
85d4: 080d85ff                 ldb	%r0,[%fp,-1]
85d8: 57e07a0d                 sub.f	0,%r0,13
85dc: 20000202                 bnz	0x85f0 = FM_ScanStr+0x70
85e0: 50208200                 sub	%r1,%r1,%r1
85e4: 41871a00                 add	%r12,%r14,%r13
85e8: 10460200                 stb	%r1,[%r12]
85ec: 20000680                 b	0x8624 = FM_ScanStr+0xa4
85f0: 57e07a0a                 sub.f	0,%r0,10
85f4: 20000681                 bz	0x862c = FM_ScanStr+0xac
85f8: 57e07a08                 sub.f	0,%r0,8
85fc: 20000382                 bnz	0x861c = FM_ScanStr+0x9c
8600: 50208200                 sub	%r1,%r1,%r1
8604: 41871a00                 add	%r12,%r14,%r13
8608: 10460200                 stb	%r1,[%r12]
860c: 57e6fa00                 sub.f	0,%r13,0
8610: 2000030c                 ble	0x862c = FM_ScanStr+0xac
8614: 41a6ffff                 add	%r13,%r13,-1
8618: 20000180                 b	0x8628 = FM_ScanStr+0xa8
861c: 41871a00                 add	%r12,%r14,%r13
8620: 10460000                 stb	%r0,[%r12]
8624: 41a6fe01                 add	%r13,%r13,1
8628: 19a68e00                 extb	%r13,%r13
862c: 57e07a0d                 sub.f	0,%r0,13
8630: 20000101                 bz	0x863c = FM_ScanStr+0xbc
8634: 57e6fa13                 sub.f	0,%r13,19
8638: 27ffed0b                 blt	0x85a4 = FM_ScanStr+0x24
863c: 50208200                 sub	%r1,%r1,%r1
8640: 41c71a00                 add	%r14,%r14,%r13
8644: 10470200                 stb	%r1,[%r14]
8648: 09ae0010                 ld	%r13,[%sp,16]
864c: 09ce0014                 ld	%r14,[%sp,20]
8650: 09ee0018                 ld	%r15,[%sp,24]
8654: 0bed8004                 ld	%blink,[%fp,4]
8658: 380f8020                 j.d	[%blink]
865c: 0b6e1020                 ld.a	%fp,[%sp,32]
FM_LimScanStr:
8660: 100e3e04                 st	%blink,[%sp,4]
8664: 100e3600                 st	%fp,[%sp]
8668: 636e3800                 mov	%fp,%sp
866c: 538e7e24                 sub	%sp,%sp,36
8670: 100e1a10                 st	%r13,[%sp,16]
8674: 100e1c14                 st	%r14,[%sp,20]
8678: 100e1e18                 st	%r15,[%sp,24]
867c: 100e201c                 st	%r16,[%sp,28]
8680: 61e00000                 mov	%r15,%r0
8684: 61c08200                 mov	%r14,%r1
8688: 51a69a00                 sub	%r13,%r13,%r13
868c: 621f7c00 0001979c        mov	%r16,0x1_979c		; TtyHandle
8694: 08080000                 ld	%r0,[%r16]
8698: 402dfffc                 add	%r1,%fp,-4
869c: 2802cb80                 bl	FD_UART_CheckRxBuffer
86a0: 080d81fc                 ld	%r0,[%fp,-4]
86a4: 57e07a00                 sub.f	0,%r0,0
86a8: 27fffc01                 bz	0x868c = FM_LimScanStr+0x2c
86ac: 08080000                 ld	%r0,[%r16]
86b0: 402dffff                 add	%r1,%fp,-1
86b4: 605ffe01                 mov	%r2,1
86b8: 28034c00                 bl	FD_UART_Read
86bc: 082d85ff                 ldb	%r1,[%fp,-1]
86c0: 57e0fa0d                 sub.f	0,%r1,13
86c4: 20000202                 bnz	0x86d8 = FM_LimScanStr+0x78
86c8: 50000000                 sub	%r0,%r0,%r0
86cc: 41879a00                 add	%r12,%r15,%r13
86d0: 10460000                 stb	%r0,[%r12]
86d4: 20000680                 b	0x870c = FM_LimScanStr+0xac
86d8: 57e0fa0a                 sub.f	0,%r1,10
86dc: 20000681                 bz	0x8714 = FM_LimScanStr+0xb4
86e0: 57e0fa08                 sub.f	0,%r1,8
86e4: 20000382                 bnz	0x8704 = FM_LimScanStr+0xa4
86e8: 50000000                 sub	%r0,%r0,%r0
86ec: 41879a00                 add	%r12,%r15,%r13
86f0: 10460000                 stb	%r0,[%r12]
86f4: 57e6fa00                 sub.f	0,%r13,0
86f8: 2000030c                 ble	0x8714 = FM_LimScanStr+0xb4
86fc: 41a6ffff                 add	%r13,%r13,-1
8700: 20000180                 b	0x8710 = FM_LimScanStr+0xb0
8704: 41879a00                 add	%r12,%r15,%r13
8708: 10460200                 stb	%r1,[%r12]
870c: 41a6fe01                 add	%r13,%r13,1
8710: 19a68e00                 extb	%r13,%r13
8714: 57e0fa0d                 sub.f	0,%r1,13
8718: 20000181                 bz	0x8728 = FM_LimScanStr+0xc8
871c: 50077e01                 sub	%r0,%r14,1
8720: 57e68100                 sub.f	0,%r13,%r0
8724: 27ffec85                 bc	0x868c = FM_LimScanStr+0x2c
8728: 50000000                 sub	%r0,%r0,%r0
872c: 41e79a00                 add	%r15,%r15,%r13
8730: 10478000                 stb	%r0,[%r15]
8734: 09ae0010                 ld	%r13,[%sp,16]
8738: 09ce0014                 ld	%r14,[%sp,20]
873c: 09ee0018                 ld	%r15,[%sp,24]
8740: 0a0e001c                 ld	%r16,[%sp,28]
8744: 0bed8004                 ld	%blink,[%fp,4]
8748: 380f8020                 j.d	[%blink]
874c: 0b6e1024                 ld.a	%fp,[%sp,36]
FM_ScanNum:
8750: 100e3e04                 st	%blink,[%sp,4]
8754: 100e3600                 st	%fp,[%sp]
8758: 636e3800                 mov	%fp,%sp
875c: 538e7e30                 sub	%sp,%sp,48
8760: 100e1a10                 st	%r13,[%sp,16]
8764: 100e1c14                 st	%r14,[%sp,20]
8768: 100e1e18                 st	%r15,[%sp,24]
876c: 61e00000                 mov	%r15,%r0
8770: 61c08200                 mov	%r14,%r1
8774: 61bffe01                 mov	%r13,1
8778: 400dffec                 add	%r0,%fp,-20
877c: 2fffc000                 bl	FM_ScanStr
8780: 08078400                 ldb	%r0,[%r15]
8784: 57e07a25                 sub.f	0,%r0,37
8788: 20002e82                 bnz	0x8900 = FM_ScanNum+0x1b0
878c: 08078401                 ldb	%r0,[%r15,1]
8790: 57e07a78                 sub.f	0,%r0,120
8794: 20002d02                 bnz	0x8900 = FM_ScanNum+0x1b0
8798: 50000000                 sub	%r0,%r0,%r0
879c: 60400000                 mov	%r2,%r0
87a0: 082d85ec                 ldb	%r1,[%fp,-20]
87a4: 57e0fa00                 sub.f	0,%r1,0
87a8: 20003b81                 bz	0x8988 = FM_ScanNum+0x238
87ac: 80417e04                 asl	%r2,%r2,4
87b0: 402d8000                 add	%r1,%fp,%r0
87b4: 082085ec                 ldb	%r1,[%r1,-20]
87b8: 5020fe30                 sub	%r1,%r1,48
87bc: 57e0fa36                 sub.f	0,%r1,54
87c0: 2000240d                 bhi	0x88e4 = FM_ScanNum+0x194
87c4: 8180fe02                 asl	%r12,%r1,2
87c8: 01867c00 000087d4        ld	%r12,[%r12,0x87d4]		; 0x87d4 = FM_ScanNum+0x84
87d0: 38060000                 j	[%r12]
87d4: 00002238                 .long	_HEAPSIZE+0x238
87d8: 00002238                 .long	_HEAPSIZE+0x238
87dc: 00002238                 .long	_HEAPSIZE+0x238
87e0: 00002238                 .long	_HEAPSIZE+0x238
87e4: 00002238                 .long	_HEAPSIZE+0x238
87e8: 00002238                 .long	_HEAPSIZE+0x238
87ec: 00002238                 .long	_HEAPSIZE+0x238
87f0: 00002238                 .long	_HEAPSIZE+0x238
87f4: 00002238                 .long	_HEAPSIZE+0x238
87f8: 00002238                 .long	_HEAPSIZE+0x238
87fc: 00002239                 .long	_HEAPSIZE+0x239
8800: 00002239                 .long	_HEAPSIZE+0x239
8804: 00002239                 .long	_HEAPSIZE+0x239
8808: 00002239                 .long	_HEAPSIZE+0x239
880c: 00002239                 .long	_HEAPSIZE+0x239
8810: 00002239                 .long	_HEAPSIZE+0x239
8814: 00002239                 .long	_HEAPSIZE+0x239
8818: 00002236                 .long	_HEAPSIZE+0x236
881c: 00002234                 .long	_HEAPSIZE+0x234
8820: 00002232                 .long	_HEAPSIZE+0x232
8824: 00002230                 .long	_HEAPSIZE+0x230
8828: 0000222e                 .long	_HEAPSIZE+0x22e
882c: 0000222c                 .long	_HEAPSIZE+0x22c
8830: 00002239                 .long	_HEAPSIZE+0x239
8834: 00002239                 .long	_HEAPSIZE+0x239
8838: 00002239                 .long	_HEAPSIZE+0x239
883c: 00002239                 .long	_HEAPSIZE+0x239
8840: 00002239                 .long	_HEAPSIZE+0x239
8844: 00002239                 .long	_HEAPSIZE+0x239
8848: 00002239                 .long	_HEAPSIZE+0x239
884c: 00002239                 .long	_HEAPSIZE+0x239
8850: 00002239                 .long	_HEAPSIZE+0x239
8854: 00002239                 .long	_HEAPSIZE+0x239
8858: 00002239                 .long	_HEAPSIZE+0x239
885c: 00002239                 .long	_HEAPSIZE+0x239
8860: 00002239                 .long	_HEAPSIZE+0x239
8864: 00002239                 .long	_HEAPSIZE+0x239
8868: 00002239                 .long	_HEAPSIZE+0x239
886c: 00002239                 .long	_HEAPSIZE+0x239
8870: 00002239                 .long	_HEAPSIZE+0x239
8874: 00002239                 .long	_HEAPSIZE+0x239
8878: 00002239                 .long	_HEAPSIZE+0x239
887c: 00002239                 .long	_HEAPSIZE+0x239
8880: 00002239                 .long	_HEAPSIZE+0x239
8884: 00002239                 .long	_HEAPSIZE+0x239
8888: 00002239                 .long	_HEAPSIZE+0x239
888c: 00002239                 .long	_HEAPSIZE+0x239
8890: 00002239                 .long	_HEAPSIZE+0x239
8894: 00002239                 .long	_HEAPSIZE+0x239
8898: 00002236                 .long	_HEAPSIZE+0x236
889c: 00002234                 .long	_HEAPSIZE+0x234
88a0: 00002232                 .long	_HEAPSIZE+0x232
88a4: 00002230                 .long	_HEAPSIZE+0x230
88a8: 0000222e                 .long	_HEAPSIZE+0x22e
88ac: 0000222c                 .long	_HEAPSIZE+0x22c
88b0: 40417e0f                 add	%r2,%r2,15
88b4: 20000580                 b	0x88e4 = FM_ScanNum+0x194
88b8: 40417e0e                 add	%r2,%r2,14
88bc: 20000480                 b	0x88e4 = FM_ScanNum+0x194
88c0: 40417e0d                 add	%r2,%r2,13
88c4: 20000380                 b	0x88e4 = FM_ScanNum+0x194
88c8: 40417e0c                 add	%r2,%r2,12
88cc: 20000280                 b	0x88e4 = FM_ScanNum+0x194
88d0: 40417e0b                 add	%r2,%r2,11
88d4: 20000180                 b	0x88e4 = FM_ScanNum+0x194
88d8: 40417e0a                 add	%r2,%r2,10
88dc: 20000080                 b	0x88e4 = FM_ScanNum+0x194
88e0: 40408400                 add	%r2,%r1,%r2
88e4: 40007e01                 add	%r0,%r0,1
88e8: 18000e00                 extb	%r0,%r0
88ec: 402d8000                 add	%r1,%fp,%r0
88f0: 082085ec                 ldb	%r1,[%r1,-20]
88f4: 57e0fa00                 sub.f	0,%r1,0
88f8: 27ffd602                 bnz	0x87ac = FM_ScanNum+0x5c
88fc: 20001100                 b	0x8988 = FM_ScanNum+0x238
8900: 08078400                 ldb	%r0,[%r15]
8904: 57e07a25                 sub.f	0,%r0,37
8908: 20001002                 bnz	0x898c = FM_ScanNum+0x23c
890c: 08078401                 ldb	%r0,[%r15,1]
8910: 57e07a64                 sub.f	0,%r0,100
8914: 20000101                 bz	0x8920 = FM_ScanNum+0x1d0
8918: 57e07a69                 sub.f	0,%r0,105
891c: 20000d82                 bnz	0x898c = FM_ScanNum+0x23c
8920: 50000000                 sub	%r0,%r0,%r0
8924: 60400000                 mov	%r2,%r0
8928: 082d85ec                 ldb	%r1,[%fp,-20]
892c: 57e0fa00                 sub.f	0,%r1,0
8930: 20000a81                 bz	0x8988 = FM_ScanNum+0x238
8934: 80217e02                 asl	%r1,%r2,2
8938: 40208400                 add	%r1,%r1,%r2
893c: 40408200                 asl	%r2,%r1
8940: 402d8000                 add	%r1,%fp,%r0
8944: 082085ec                 ldb	%r1,[%r1,-20]
8948: 57e0fa2d                 sub.f	0,%r1,45
894c: 20000102                 bnz	0x8958 = FM_ScanNum+0x208
8950: 61bfffff                 mov	%r13,-1
8954: 20000300                 b	0x8970 = FM_ScanNum+0x220
8958: 57e0fa30                 sub.f	0,%r1,48
895c: 2000020b                 blt	0x8970 = FM_ScanNum+0x220
8960: 57e0fa39                 sub.f	0,%r1,57
8964: 20000109                 bgt	0x8970 = FM_ScanNum+0x220
8968: 5020fe30                 sub	%r1,%r1,48
896c: 40408400                 add	%r2,%r1,%r2
8970: 40007e01                 add	%r0,%r0,1
8974: 18000e00                 extb	%r0,%r0
8978: 402d8000                 add	%r1,%fp,%r0
897c: 082085ec                 ldb	%r1,[%r1,-20]
8980: 57e0fa00                 sub.f	0,%r1,0
8984: 27fff582                 bnz	0x8934 = FM_ScanNum+0x1e4
8988: 10070400                 st	%r2,[%r14]
898c: 60069a00                 mov	%r0,%r13
8990: 09ae0010                 ld	%r13,[%sp,16]
8994: 09ce0014                 ld	%r14,[%sp,20]
8998: 09ee0018                 ld	%r15,[%sp,24]
899c: 0bed8004                 ld	%blink,[%fp,4]
89a0: 380f8020                 j.d	[%blink]
89a4: 0b6e1030                 ld.a	%fp,[%sp,48]
FM_DEBUG_SetOutputDevice:
89a8: 100e3e04                 st	%blink,[%sp,4]
89ac: 100e3600                 st	%fp,[%sp]
89b0: 636e3800                 mov	%fp,%sp
89b4: 538e7e18                 sub	%sp,%sp,24
89b8: 100e1a10                 st	%r13,[%sp,16]
89bc: 100e1c14                 st	%r14,[%sp,20]
89c0: 51a69a00                 sub	%r13,%r13,%r13
89c4: 57e07a08                 sub.f	0,%r0,8
89c8: 2000010b                 blt	0x89d4 = FM_DEBUG_SetOutputDevice+0x2c
89cc: 601ffe01                 mov	%r0,1
89d0: 20000d80                 b	0x8a40 = FM_DEBUG_SetOutputDevice+0x98
89d4: 60207e01                 and	%r1,%r0,1
89d8: 61df7c00 0001851b        mov	%r14,0x1_851b		; 0x1_851b = _bufendtab+0x93
89e0: 08070500                 ldb	%r0,[%r14,-256]
89e4: 60007e01                 and	%r0,%r0,1
89e8: 57e08100                 sub.f	0,%r1,%r0
89ec: 20000981                 bz	0x8a3c = FM_DEBUG_SetOutputDevice+0x94
89f0: 57e0fa01                 sub.f	0,%r1,1
89f4: 20000582                 bnz	0x8a24 = FM_DEBUG_SetOutputDevice+0x7c
89f8: 603f7c00 0001979c        mov	%r1,0x1_979c		; TtyHandle
8a00: 60069a00                 mov	%r0,%r13
8a04: 2802bd00                 bl	FD_UART_Open
8a08: 57e07a00                 sub.f	0,%r0,0
8a0c: 20000182                 bnz	0x8a1c = FM_DEBUG_SetOutputDevice+0x74
8a10: 08070500                 ldb	%r0,[%r14,-256]
8a14: 40007e01                 add	%r0,%r0,1
8a18: 20000380                 b	0x8a38 = FM_DEBUG_SetOutputDevice+0x90
8a1c: 61bffe08                 mov	%r13,8
8a20: 20000300                 b	0x8a3c = FM_DEBUG_SetOutputDevice+0x94
8a24: 601f7c00 0001979c        mov	%r0,0x1_979c		; TtyHandle
8a2c: 28026700                 bl	FD_UART_Close
8a30: 08070500                 ldb	%r0,[%r14,-256]
8a34: 60007e06                 and	%r0,%r0,6
8a38: 10470100                 stb	%r0,[%r14,-256]
8a3c: 60069a00                 mov	%r0,%r13
8a40: 09ae0010                 ld	%r13,[%sp,16]
8a44: 09ce0014                 ld	%r14,[%sp,20]
8a48: 0bed8004                 ld	%blink,[%fp,4]
8a4c: 380f8020                 j.d	[%blink]
8a50: 0b6e1018                 ld.a	%fp,[%sp,24]
FM_DEBUG_GetOutputDevice:
8a54: 601f7c00 0001851b        mov	%r0,0x1_851b		; 0x1_851b = _bufendtab+0x93
8a5c: 08000500                 ldb	%r0,[%r0,-256]
8a60: 380f8000                 j	[%blink]
FM_DEBUG_ReadChar:
8a64: 100e3e04                 st	%blink,[%sp,4]
8a68: 100e3600                 st	%fp,[%sp]
8a6c: 636e3800                 mov	%fp,%sp
8a70: 538e7e14                 sub	%sp,%sp,20
8a74: 601f7c00 0001979c        mov	%r0,0x1_979c		; TtyHandle
8a7c: 08000000                 ld	%r0,[%r0]
8a80: 402dffff                 add	%r1,%fp,-1
8a84: 605ffe01                 mov	%r2,1
8a88: 2802d200                 bl	FD_UART_Read
8a8c: 080d85ff                 ldb	%r0,[%fp,-1]
8a90: 0bed8004                 ld	%blink,[%fp,4]
8a94: 380f8020                 j.d	[%blink]
8a98: 0b6e1014                 ld.a	%fp,[%sp,20]
FM_DEBUG_CheckRxBuffer:
8a9c: 100e3e04                 st	%blink,[%sp,4]
8aa0: 100e3600                 st	%fp,[%sp]
8aa4: 636e3800                 mov	%fp,%sp
8aa8: 538e7e14                 sub	%sp,%sp,20
8aac: 601f7c00 0001979c        mov	%r0,0x1_979c		; TtyHandle
8ab4: 08000000                 ld	%r0,[%r0]
8ab8: 402dfffc                 add	%r1,%fp,-4
8abc: 28024780                 bl	FD_UART_CheckRxBuffer
8ac0: 080d81fc                 ld	%r0,[%fp,-4]
8ac4: 0bed8004                 ld	%blink,[%fp,4]
8ac8: 380f8020                 j.d	[%blink]
8acc: 0b6e1014                 ld.a	%fp,[%sp,20]
_write:
8ad0: 100e3e04                 st	%blink,[%sp,4]
8ad4: 100e3600                 st	%fp,[%sp]
8ad8: 636e3800                 mov	%fp,%sp
8adc: 538e7e1c                 sub	%sp,%sp,28
8ae0: 100e1a10                 st	%r13,[%sp,16]
8ae4: 100e1c14                 st	%r14,[%sp,20]
8ae8: 100e1e18                 st	%r15,[%sp,24]
8aec: 61a08200                 mov	%r13,%r1
8af0: 61e10400                 mov	%r15,%r2
8af4: 51c71c00                 sub	%r14,%r14,%r14
8af8: 57e7fa00                 sub.f	0,%r15,0
8afc: 2000058e                 bls	0x8b2c = _write+0x5c
8b00: 08068400                 ldb	%r0,[%r13]
8b04: 57e07a0a                 sub.f	0,%r0,10
8b08: 20000102                 bnz	0x8b14 = _write+0x44
8b0c: 601ffe0d                 mov	%r0,13
8b10: 28002500                 bl	TxByte
8b14: 08068400                 ldb	%r0,[%r13]
8b18: 41a6fe01                 add	%r13,%r13,1
8b1c: 28002380                 bl	TxByte
8b20: 41c77e01                 add	%r14,%r14,1
8b24: 57e79d00                 sub.f	0,%r15,%r14
8b28: 27fffa8d                 bhi	0x8b00 = _write+0x30
8b2c: 60079e00                 mov	%r0,%r15
8b30: 09ae0010                 ld	%r13,[%sp,16]
8b34: 09ce0014                 ld	%r14,[%sp,20]
8b38: 09ee0018                 ld	%r15,[%sp,24]
8b3c: 0bed8004                 ld	%blink,[%fp,4]
8b40: 380f8020                 j.d	[%blink]
8b44: 0b6e101c                 ld.a	%fp,[%sp,28]
_read:
8b48: 100e3e04                 st	%blink,[%sp,4]
8b4c: 100e3600                 st	%fp,[%sp]
8b50: 636e3800                 mov	%fp,%sp
8b54: 538e7e18                 sub	%sp,%sp,24
8b58: 100e1a10                 st	%r13,[%sp,16]
8b5c: 100e1c14                 st	%r14,[%sp,20]
8b60: 61c08200                 mov	%r14,%r1
8b64: 601f7c00 0001979c        mov	%r0,0x1_979c		; TtyHandle
8b6c: 08000000                 ld	%r0,[%r0]
8b70: 60271c00                 mov	%r1,%r14
8b74: 61bffe01                 mov	%r13,1
8b78: 605ffe01                 mov	%r2,1
8b7c: 2802b380                 bl	FD_UART_Read
8b80: 08070400                 ldb	%r0,[%r14]
8b84: 57e07a0a                 sub.f	0,%r0,10
8b88: 20000201                 bz	0x8b9c = _read+0x54
8b8c: 57e07a0d                 sub.f	0,%r0,13
8b90: 20000101                 bz	0x8b9c = _read+0x54
8b94: 60069a00                 mov	%r0,%r13
8b98: 20000080                 b	0x8ba0 = _read+0x58
8b9c: 601fffff                 mov	%r0,-1
8ba0: 09ae0010                 ld	%r13,[%sp,16]
8ba4: 09ce0014                 ld	%r14,[%sp,20]
8ba8: 0bed8004                 ld	%blink,[%fp,4]
8bac: 380f8020                 j.d	[%blink]
8bb0: 0b6e1018                 ld.a	%fp,[%sp,24]
_open:
8bb4: 100e3e04                 st	%blink,[%sp,4]
8bb8: 100e3600                 st	%fp,[%sp]
8bbc: 636e3800                 mov	%fp,%sp
8bc0: 538e7e14                 sub	%sp,%sp,20
8bc4: 100e1a10                 st	%r13,[%sp,16]
8bc8: 61a00000                 mov	%r13,%r0
8bcc: 603f7c00 00017720        mov	%r1,0x1_7720		; 0x1_7720 = _ctype+0x52c
8bd4: 280a7500                 bl	strcmp
8bd8: 57e07a00                 sub.f	0,%r0,0
8bdc: 20000282                 bnz	0x8bf4 = _open+0x40
8be0: 50000000                 sub	%r0,%r0,%r0
8be4: 09ae0010                 ld	%r13,[%sp,16]
8be8: 0bed8004                 ld	%blink,[%fp,4]
8bec: 380f8020                 j.d	[%blink]
8bf0: 0b6e1014                 ld.a	%fp,[%sp,20]
8bf4: 601f7c00 00017718        mov	%r0,0x1_7718		; 0x1_7718 = _ctype+0x524
8bfc: 60269a00                 mov	%r1,%r13
8c00: 280a6f80                 bl	strcmp
8c04: 57e07a00                 sub.f	0,%r0,0
8c08: 20000282                 bnz	0x8c20 = _open+0x6c
8c0c: 601ffe01                 mov	%r0,1
8c10: 09ae0010                 ld	%r13,[%sp,16]
8c14: 0bed8004                 ld	%blink,[%fp,4]
8c18: 380f8020                 j.d	[%blink]
8c1c: 0b6e1014                 ld.a	%fp,[%sp,20]
8c20: 601fffff                 mov	%r0,-1
8c24: 09ae0010                 ld	%r13,[%sp,16]
8c28: 0bed8004                 ld	%blink,[%fp,4]
8c2c: 380f8020                 j.d	[%blink]
8c30: 0b6e1014                 ld.a	%fp,[%sp,20]
_isatty:
8c34: 601ffe01                 mov	%r0,1
8c38: 380f8000                 j	[%blink]
TxByte:
8c3c: 538e7e04                 sub	%sp,%sp,4
8c40: 100e3e04                 st	%blink,[%sp,4]
8c44: 100e3600                 st	%fp,[%sp]
8c48: 636e3800                 mov	%fp,%sp
8c4c: 538e7e14                 sub	%sp,%sp,20
8c50: 100e1a10                 st	%r13,[%sp,16]
8c54: 104d8010                 stb	%r0,[%fp,16]
8c58: 61bf7c00 0001851b        mov	%r13,0x1_851b		; 0x1_851b = _bufendtab+0x93
8c60: 08068500                 ldb	%r0,[%r13,-256]
8c64: 57e07a00                 sub.f	0,%r0,0
8c68: 20000801                 bz	0x8cac = TxByte+0x70
8c6c: 60007e01                 and	%r0,%r0,1
8c70: 57e07a01                 sub.f	0,%r0,1
8c74: 20000682                 bnz	0x8cac = TxByte+0x70
8c78: 08068501                 ldb	%r0,[%r13,-255]
8c7c: 57e07a00                 sub.f	0,%r0,0
8c80: 20000502                 bnz	0x8cac = TxByte+0x70
8c84: 601ffe01                 mov	%r0,1
8c88: 10468101                 stb	%r0,[%r13,-255]
8c8c: 601f7c00 0001979c        mov	%r0,0x1_979c		; TtyHandle
8c94: 08000000                 ld	%r0,[%r0]
8c98: 402dfe10                 add	%r1,%fp,16
8c9c: 605ffe01                 mov	%r2,1
8ca0: 2802df80                 bl	FD_UART_Write
8ca4: 50000000                 sub	%r0,%r0,%r0
8ca8: 10468101                 stb	%r0,[%r13,-255]
8cac: 09ae0010                 ld	%r13,[%sp,16]
8cb0: 0bed8004                 ld	%blink,[%fp,4]
8cb4: 0b6e1014                 ld.a	%fp,[%sp,20]
8cb8: 380f8020                 j.d	[%blink]
8cbc: 438e7e04                 add	%sp,%sp,4
FM_PrStr:
8cc0: 100e3e04                 st	%blink,[%sp,4]
8cc4: 100e3600                 st	%fp,[%sp]
8cc8: 636e3800                 mov	%fp,%sp
8ccc: 538e7e18                 sub	%sp,%sp,24
8cd0: 100e1a10                 st	%r13,[%sp,16]
8cd4: 100e1c14                 st	%r14,[%sp,20]
8cd8: 61c00000                 mov	%r14,%r0
8cdc: 09a70400                 ldb	%r13,[%r14]
8ce0: 41c77e01                 add	%r14,%r14,1
8ce4: 57e6fa00                 sub.f	0,%r13,0
8ce8: 20000881                 bz	0x8d30 = FM_PrStr+0x70
8cec: 57e6fa03                 sub.f	0,%r13,3
8cf0: 20000282                 bnz	0x8d08 = FM_PrStr+0x48
8cf4: 09a70400                 ldb	%r13,[%r14]
8cf8: 41c77e01                 add	%r14,%r14,1
8cfc: 57e6fa00                 sub.f	0,%r13,0
8d00: 20000482                 bnz	0x8d28 = FM_PrStr+0x68
8d04: 20000500                 b	0x8d30 = FM_PrStr+0x70
8d08: 60069a00                 mov	%r0,%r13
8d0c: 2fffe580                 bl	TxByte
8d10: 57e6fa0a                 sub.f	0,%r13,10
8d14: 20000102                 bnz	0x8d20 = FM_PrStr+0x60
8d18: 601ffe0d                 mov	%r0,13
8d1c: 2fffe380                 bl	TxByte
8d20: 09a70400                 ldb	%r13,[%r14]
8d24: 41c77e01                 add	%r14,%r14,1
8d28: 57e6fa00                 sub.f	0,%r13,0
8d2c: 27fff782                 bnz	0x8cec = FM_PrStr+0x2c
8d30: 09ae0010                 ld	%r13,[%sp,16]
8d34: 09ce0014                 ld	%r14,[%sp,20]
8d38: 0bed8004                 ld	%blink,[%fp,4]
8d3c: 380f8020                 j.d	[%blink]
8d40: 0b6e1018                 ld.a	%fp,[%sp,24]
FM_PrintChar:
8d44: 100e3e04                 st	%blink,[%sp,4]
8d48: 100e3600                 st	%fp,[%sp]
8d4c: 636e3800                 mov	%fp,%sp
8d50: 538e7e10                 sub	%sp,%sp,16
8d54: 2fffdc80                 bl	TxByte
8d58: 0bed8004                 ld	%blink,[%fp,4]
8d5c: 380f8020                 j.d	[%blink]
8d60: 0b6e1010                 ld.a	%fp,[%sp,16]
FM_ReceiveChar:
8d64: 100e3e04                 st	%blink,[%sp,4]
8d68: 100e3600                 st	%fp,[%sp]
8d6c: 636e3800                 mov	%fp,%sp
8d70: 538e7e14                 sub	%sp,%sp,20
8d74: 601f7c00 0001979c        mov	%r0,0x1_979c		; TtyHandle
8d7c: 08000000                 ld	%r0,[%r0]
8d80: 402dffff                 add	%r1,%fp,-1
8d84: 605ffe01                 mov	%r2,1
8d88: 28027200                 bl	FD_UART_Read
8d8c: 080d85ff                 ldb	%r0,[%fp,-1]
8d90: 0bed8004                 ld	%blink,[%fp,4]
8d94: 380f8020                 j.d	[%blink]
8d98: 0b6e1014                 ld.a	%fp,[%sp,20]
FM_PrStrStr:
8d9c: 100e3e04                 st	%blink,[%sp,4]
8da0: 100e3600                 st	%fp,[%sp]
8da4: 636e3800                 mov	%fp,%sp
8da8: 538e7e14                 sub	%sp,%sp,20
8dac: 100e1a10                 st	%r13,[%sp,16]
8db0: 61a08200                 mov	%r13,%r1
8db4: 2fffe100                 bl	FM_PrStr
8db8: 60069a00                 mov	%r0,%r13
8dbc: 2fffe000                 bl	FM_PrStr
8dc0: 09ae0010                 ld	%r13,[%sp,16]
8dc4: 0bed8004                 ld	%blink,[%fp,4]
8dc8: 380f8020                 j.d	[%blink]
8dcc: 0b6e1014                 ld.a	%fp,[%sp,20]
FM_PrHex:
8dd0: 100e3e04                 st	%blink,[%sp,4]
8dd4: 100e3600                 st	%fp,[%sp]
8dd8: 636e3800                 mov	%fp,%sp
8ddc: 538e7e20                 sub	%sp,%sp,32
8de0: 100e1a10                 st	%r13,[%sp,16]
8de4: 60408200                 mov	%r2,%r1
8de8: 41adfff4                 add	%r13,%fp,-12
8dec: 60269a00                 mov	%r1,%r13
8df0: 28002100                 bl	Bin32ToHex
8df4: 60069a00                 mov	%r0,%r13
8df8: 2fffd880                 bl	FM_PrStr
8dfc: 09ae0010                 ld	%r13,[%sp,16]
8e00: 0bed8004                 ld	%blink,[%fp,4]
8e04: 380f8020                 j.d	[%blink]
8e08: 0b6e1020                 ld.a	%fp,[%sp,32]
FM_PrCStrHex2:
8e0c: 100e3e04                 st	%blink,[%sp,4]
8e10: 100e3600                 st	%fp,[%sp]
8e14: 636e3800                 mov	%fp,%sp
8e18: 538e7e24                 sub	%sp,%sp,36
8e1c: 100e1a10                 st	%r13,[%sp,16]
8e20: 100e1c14                 st	%r14,[%sp,20]
8e24: 61c08200                 mov	%r14,%r1
8e28: 2fffd280                 bl	FM_PrStr
8e2c: 41adfff4                 add	%r13,%fp,-12
8e30: 60071c00                 mov	%r0,%r14
8e34: 60269a00                 mov	%r1,%r13
8e38: 605ffe02                 mov	%r2,2
8e3c: 28001780                 bl	Bin32ToHex
8e40: 60069a00                 mov	%r0,%r13
8e44: 2fffcf00                 bl	FM_PrStr
8e48: 09ae0010                 ld	%r13,[%sp,16]
8e4c: 09ce0014                 ld	%r14,[%sp,20]
8e50: 0bed8004                 ld	%blink,[%fp,4]
8e54: 380f8020                 j.d	[%blink]
8e58: 0b6e1024                 ld.a	%fp,[%sp,36]
FM_PrCStrHex4:
8e5c: 100e3e04                 st	%blink,[%sp,4]
8e60: 100e3600                 st	%fp,[%sp]
8e64: 636e3800                 mov	%fp,%sp
8e68: 538e7e24                 sub	%sp,%sp,36
8e6c: 100e1a10                 st	%r13,[%sp,16]
8e70: 100e1c14                 st	%r14,[%sp,20]
8e74: 61c08200                 mov	%r14,%r1
8e78: 2fffc880                 bl	FM_PrStr
8e7c: 41adfff4                 add	%r13,%fp,-12
8e80: 60071c00                 mov	%r0,%r14
8e84: 60269a00                 mov	%r1,%r13
8e88: 605ffe04                 mov	%r2,4
8e8c: 28000d80                 bl	Bin32ToHex
8e90: 60069a00                 mov	%r0,%r13
8e94: 2fffc500                 bl	FM_PrStr
8e98: 09ae0010                 ld	%r13,[%sp,16]
8e9c: 09ce0014                 ld	%r14,[%sp,20]
8ea0: 0bed8004                 ld	%blink,[%fp,4]
8ea4: 380f8020                 j.d	[%blink]
8ea8: 0b6e1024                 ld.a	%fp,[%sp,36]
FM_PrCStrHex8:
8eac: 100e3e04                 st	%blink,[%sp,4]
8eb0: 100e3600                 st	%fp,[%sp]
8eb4: 636e3800                 mov	%fp,%sp
8eb8: 538e7e24                 sub	%sp,%sp,36
8ebc: 100e1a10                 st	%r13,[%sp,16]
8ec0: 100e1c14                 st	%r14,[%sp,20]
8ec4: 61c08200                 mov	%r14,%r1
8ec8: 2fffbe80                 bl	FM_PrStr
8ecc: 41adfff4                 add	%r13,%fp,-12
8ed0: 60071c00                 mov	%r0,%r14
8ed4: 60269a00                 mov	%r1,%r13
8ed8: 605ffe08                 mov	%r2,8
8edc: 28000380                 bl	Bin32ToHex
8ee0: 60069a00                 mov	%r0,%r13
8ee4: 2fffbb00                 bl	FM_PrStr
8ee8: 09ae0010                 ld	%r13,[%sp,16]
8eec: 09ce0014                 ld	%r14,[%sp,20]
8ef0: 0bed8004                 ld	%blink,[%fp,4]
8ef4: 380f8020                 j.d	[%blink]
8ef8: 0b6e1024                 ld.a	%fp,[%sp,36]
Bin32ToHex:
8efc: 50820800                 sub	%r4,%r4,%r4
8f00: 57e17a00                 sub.f	0,%r2,0
8f04: 2000078e                 bls	0x8f44 = Bin32ToHex+0x48
8f08: 60607e0f                 and	%r3,%r0,15
8f0c: 57e1fa09                 sub.f	0,%r3,9
8f10: 2000010e                 bls	0x8f1c = Bin32ToHex+0x20
8f14: 4061fe37                 add	%r3,%r3,55
8f18: 20000080                 b	0x8f20 = Bin32ToHex+0x24
8f1c: 4061fe30                 add	%r3,%r3,48
8f20: 18a18e00                 extb	%r5,%r3
8f24: 50617e01                 sub	%r3,%r2,1
8f28: 50618800                 sub	%r3,%r3,%r4
8f2c: 40608600                 add	%r3,%r1,%r3
8f30: 10418a00                 stb	%r5,[%r3]
8f34: 88007e04                 lsr	%r0,%r0,4
8f38: 40827e01                 add	%r4,%r4,1
8f3c: 57e10900                 sub.f	0,%r2,%r4
8f40: 27fff88d                 bhi	0x8f08 = Bin32ToHex+12
8f44: 50000000                 sub	%r0,%r0,%r0
8f48: 40208400                 add	%r1,%r1,%r2
8f4c: 10408000                 stb	%r0,[%r1]
8f50: 380f8000                 j	[%blink]
FM_PrInt:
8f54: 100e3e04                 st	%blink,[%sp,4]
8f58: 100e3600                 st	%fp,[%sp]
8f5c: 636e3800                 mov	%fp,%sp
8f60: 538e7e2c                 sub	%sp,%sp,44
8f64: 100e1a10                 st	%r13,[%sp,16]
8f68: 100e1c14                 st	%r14,[%sp,20]
8f6c: 100e1e18                 st	%r15,[%sp,24]
8f70: 100e201c                 st	%r16,[%sp,28]
8f74: 62000000                 mov	%r16,%r0
8f78: 51c71c00                 sub	%r14,%r14,%r14
8f7c: 61bf7c00 3b9aca00        mov	%r13,0x3b9a_ca00		; 0x3b9a_ca00 = .regmask_lo+0x1f9ac9fd
8f84: 61e71c00                 mov	%r15,%r14
8f88: 57e87a00                 sub.f	0,%r16,0
8f8c: 2000020a                 bge	0x8fa0 = FM_PrInt+0x4c
8f90: 521fa000                 sub	%r16,0,%r16
8f94: 601ffe2d                 mov	%r0,45
8f98: 104d81f4                 stb	%r0,[%fp,-12]
8f9c: 61dffe01                 mov	%r14,1
8fa0: 60082000                 mov	%r0,%r16
8fa4: 60269a00                 mov	%r1,%r13
8fa8: 28159580                 bl	_divmod_normbs
8fac: 57e07a00                 sub.f	0,%r0,0
8fb0: 20000301                 bz	0x8fcc = FM_PrInt+0x78
8fb4: 40207e30                 add	%r1,%r0,48
8fb8: 400d9c00                 add	%r0,%fp,%r14
8fbc: 104003f4                 stb	%r1,[%r0,-12]
8fc0: 41c77e01                 add	%r14,%r14,1
8fc4: 61fffe01                 mov	%r15,1
8fc8: 20000400                 b	0x8fec = FM_PrInt+0x98
8fcc: 57e7fa00                 sub.f	0,%r15,0
8fd0: 20000102                 bnz	0x8fdc = FM_PrInt+0x88
8fd4: 57e6fa01                 sub.f	0,%r13,1
8fd8: 20000202                 bnz	0x8fec = FM_PrInt+0x98
8fdc: 603ffe30                 mov	%r1,48
8fe0: 400d9c00                 add	%r0,%fp,%r14
8fe4: 104003f4                 stb	%r1,[%r0,-12]
8fe8: 41c77e01                 add	%r14,%r14,1
8fec: 60082000                 mov	%r0,%r16
8ff0: 60269a00                 mov	%r1,%r13
8ff4: 28158c00                 bl	_divmod_normbs
8ff8: 62008200                 mov	%r16,%r1
8ffc: 601f7c00 66666667        mov	%r0,0x6666_6667		; 0x6666_6667 = .regmask_lo+0x4a666664
9004: a7e01a00                 mul64	%r0,%r13
9008: 601df600                 mov	%r0,%mhi
900c: 90007e02                 asr	%r0,%r0,2
9010: 89a6fe1f                 lsr	%r13,%r13,31
9014: 41a68000                 add	%r13,%r13,%r0
9018: 57e6fa00                 sub.f	0,%r13,0
901c: 27fff009                 bgt	0x8fa0 = FM_PrInt+0x4c
9020: 50208200                 sub	%r1,%r1,%r1
9024: 400d9c00                 add	%r0,%fp,%r14
9028: 104003f4                 stb	%r1,[%r0,-12]
902c: 400dfff4                 add	%r0,%fp,-12
9030: 2fff9180                 bl	FM_PrStr
9034: 09ae0010                 ld	%r13,[%sp,16]
9038: 09ce0014                 ld	%r14,[%sp,20]
903c: 09ee0018                 ld	%r15,[%sp,24]
9040: 0a0e001c                 ld	%r16,[%sp,28]
9044: 0bed8004                 ld	%blink,[%fp,4]
9048: 380f8020                 j.d	[%blink]
904c: 0b6e102c                 ld.a	%fp,[%sp,44]
FM_PrU32:
9050: 100e3e04                 st	%blink,[%sp,4]
9054: 100e3600                 st	%fp,[%sp]
9058: 636e3800                 mov	%fp,%sp
905c: 538e7e1c                 sub	%sp,%sp,28
9060: 50208200                 sub	%r1,%r1,%r1
9064: 57e07a00                 sub.f	0,%r0,0
9068: 20000202                 bnz	0x907c = FM_PrU32+0x2c
906c: 601ffe30                 mov	%r0,48
9070: 104d81f4                 stb	%r0,[%fp,-12]
9074: 104d83f5                 stb	%r1,[%fp,-11]
9078: 20001000                 b	0x90fc = FM_PrU32+0xac
907c: 607ffe01                 mov	%r3,1
9080: 57e07a01                 sub.f	0,%r0,1
9084: 20000405                 bc	0x90a8 = FM_PrU32+0x58
9088: 8041fe02                 asl	%r2,%r3,2
908c: 40410600                 add	%r2,%r2,%r3
9090: 40610400                 asl	%r3,%r2
9094: 4020fe01                 add	%r1,%r1,1
9098: 57e00700                 sub.f	0,%r0,%r3
909c: 20000105                 bc	0x90a8 = FM_PrU32+0x58
90a0: 57e0fa09                 sub.f	0,%r1,9
90a4: 27fffc0c                 ble	0x9088 = FM_PrU32+0x38
90a8: 50618600                 sub	%r3,%r3,%r3
90ac: 404d8200                 add	%r2,%fp,%r1
90b0: 104107f4                 stb	%r3,[%r2,-12]
90b4: 57e0fa00                 sub.f	0,%r1,0
90b8: 2000080c                 ble	0x90fc = FM_PrU32+0xac
90bc: 605f7c00 cccccccd        mov	%r2,0xcccc_cccd		; 0xcccc_cccd = .regmask_lo+0x14c8ccce
90c4: afe10000                 mulu64	%r2,%r0
90c8: 605df600                 mov	%r2,%mhi
90cc: 88617e03                 lsr	%r3,%r2,3
90d0: 8041fe02                 asl	%r2,%r3,2
90d4: 40410600                 add	%r2,%r2,%r3
90d8: 40410400                 asl	%r2,%r2
90dc: 50400400                 sub	%r2,%r0,%r2
90e0: 60018600                 mov	%r0,%r3
90e4: 40617e30                 add	%r3,%r2,48
90e8: 404d8200                 add	%r2,%fp,%r1
90ec: 104107f3                 stb	%r3,[%r2,-13]
90f0: 4020ffff                 add	%r1,%r1,-1
90f4: 57e0fa00                 sub.f	0,%r1,0
90f8: 27fff809                 bgt	0x90bc = FM_PrU32+0x6c
90fc: 400dfff4                 add	%r0,%fp,-12
9100: 2fff7780                 bl	FM_PrStr
9104: 0bed8004                 ld	%blink,[%fp,4]
9108: 380f8020                 j.d	[%blink]
910c: 0b6e101c                 ld.a	%fp,[%sp,28]
FD_GPIO_Init:
9110: 100e3e04                 st	%blink,[%sp,4]
9114: 100e3600                 st	%fp,[%sp]
9118: 636e3800                 mov	%fp,%sp
911c: 538e7e24                 sub	%sp,%sp,36
9120: 100e1a10                 st	%r13,[%sp,16]
9124: 100e1c14                 st	%r14,[%sp,20]
9128: 100e1e18                 st	%r15,[%sp,24]
912c: 61c00000                 mov	%r14,%r0
9130: 61ff7c00 00018520        mov	%r15,0x1_8520		; 0x1_8520 = _bufendtab+0x98
9138: 08078100                 ld	%r0,[%r15,-256]
913c: 57e07a00                 sub.f	0,%r0,0
9140: 20000101                 bz	0x914c = FD_GPIO_Init+0x3c
9144: 601ffe03                 mov	%r0,3
9148: 20001f00                 b	0x9244 = FD_GPIO_Init+0x134
914c: 50000000                 sub	%r0,%r0,%r0
9150: 80407e04                 asl	%r2,%r0,4
9154: 51a69a00                 sub	%r13,%r13,%r13
9158: 607f7c00 00019244        mov	%r3,0x1_9244		; 0x1_9244 = handles+0x100
9160: 4021ff04                 add	%r1,%r3,-252
9164: 40208400                 add	%r1,%r1,%r2
9168: 10009a00                 st	%r13,[%r1]
916c: 4021ff0c                 add	%r1,%r3,-244
9170: 40208400                 add	%r1,%r1,%r2
9174: 10009a00                 st	%r13,[%r1]
9178: 40007e01                 add	%r0,%r0,1
917c: 18000e00                 extb	%r0,%r0
9180: 57e07a1c                 sub.f	0,%r0,28
9184: 27fff90b                 blt	0x9150 = FD_GPIO_Init+0x40
9188: 601f7c00 000197a4        mov	%r0,0x1_97a4		; fd_gpio_sdram_handle
9190: 10001a00                 st	%r13,[%r0]
9194: 601f7c00 000197a8        mov	%r0,0x1_97a8		; fd_gpio_tsd1_handle
919c: 10001a00                 st	%r13,[%r0]
91a0: 601f7c00 000197ac        mov	%r0,0x1_97ac		; fd_gpio_tsd2_handle
91a8: 10001a00                 st	%r13,[%r0]
91ac: 50000000                 sub	%r0,%r0,%r0
91b0: 28050280                 bl	FH_GPIO_set_IRQEnableLower
91b4: 50000000                 sub	%r0,%r0,%r0
91b8: 28050700                 bl	FH_GPIO_set_IRQEnableUpper
91bc: 601ffe07                 mov	%r0,7
91c0: 104d81f8                 stb	%r0,[%fp,-8]
91c4: 104d9bfa                 stb	%r13,[%fp,-6]
91c8: 603ffe01                 mov	%r1,1
91cc: 104d83f9                 stb	%r1,[%fp,-7]
91d0: 104d9bfb                 stb	%r13,[%fp,-5]
91d4: 601f7c00 00002691        mov	%r0,0x2691		; 0x2691 = _HEAPSIZE+0x691
91dc: 100d81fc                 st	%r0,[%fp,-4]
91e0: 57e77a00                 sub.f	0,%r14,0
91e4: 20000381                 bz	0x9204 = FD_GPIO_Init+0xf4
91e8: 08070600                 ldb.x	%r0,[%r14]
91ec: 57e07a01                 sub.f	0,%r0,1
91f0: 20000202                 bnz	0x9204 = FD_GPIO_Init+0xf4
91f4: 104d83fb                 stb	%r1,[%fp,-5]
91f8: 601f7c00 000026cd        mov	%r0,0x26cd		; 0x26cd = _HEAPSIZE+0x6cd
9200: 100d81fc                 st	%r0,[%fp,-4]
9204: 400dfff8                 add	%r0,%fp,-8
9208: 61ff7c00 00018520        mov	%r15,0x1_8520		; 0x1_8520 = _bufendtab+0x98
9210: 4027ff00                 add	%r1,%r15,-256
9214: 28035780                 bl	FD_INT_Open
9218: 57e07a00                 sub.f	0,%r0,0
921c: 20000181                 bz	0x922c = FD_GPIO_Init+0x11c
9220: 51a69a00                 sub	%r13,%r13,%r13
9224: 10079b00                 st	%r13,[%r15,-256]
9228: 27ffe300                 b	0x9144 = FD_GPIO_Init+0x34
922c: 080d87f8                 ldb.x	%r0,[%fp,-8]
9230: 603f7c00 00002709        mov	%r1,0x2709		; 0x2709 = _HEAPSIZE+0x709
9238: 2803a000                 bl	FD_INT_SetHandler
923c: 51a69a00                 sub	%r13,%r13,%r13
9240: 60069a00                 mov	%r0,%r13
9244: 09ae0010                 ld	%r13,[%sp,16]
9248: 09ce0014                 ld	%r14,[%sp,20]
924c: 09ee0018                 ld	%r15,[%sp,24]
9250: 0bed8004                 ld	%blink,[%fp,4]
9254: 380f8020                 j.d	[%blink]
9258: 0b6e1024                 ld.a	%fp,[%sp,36]
FD_GPIO_Terminate:
925c: 100e3e04                 st	%blink,[%sp,4]
9260: 100e3600                 st	%fp,[%sp]
9264: 636e3800                 mov	%fp,%sp
9268: 538e7e24                 sub	%sp,%sp,36
926c: 100e1a10                 st	%r13,[%sp,16]
9270: 100e1c14                 st	%r14,[%sp,20]
9274: 100e1e18                 st	%r15,[%sp,24]
9278: 100e201c                 st	%r16,[%sp,28]
927c: 61bf7c00 00018520        mov	%r13,0x1_8520		; 0x1_8520 = _bufendtab+0x98
9284: 08068100                 ld	%r0,[%r13,-256]
9288: 57e07a00                 sub.f	0,%r0,0
928c: 20000082                 bnz	0x9294 = FD_GPIO_Terminate+0x38
9290: 20001300                 b	0x932c = FD_GPIO_Terminate+0xd0
9294: 51a69a00                 sub	%r13,%r13,%r13
9298: 81c6fe04                 asl	%r14,%r13,4
929c: 61ff7c00 00019244        mov	%r15,0x1_9244		; 0x1_9244 = handles+0x100
92a4: 4007ff00                 add	%r0,%r15,-256
92a8: 40001c00                 add	%r0,%r0,%r14
92ac: 100d81fc                 st	%r0,[%fp,-4]
92b0: 400dfffc                 add	%r0,%fp,-4
92b4: 28006400                 bl	FD_GPIO_Close
92b8: 52082000                 sub	%r16,%r16,%r16
92bc: 4007ff04                 add	%r0,%r15,-252
92c0: 40001c00                 add	%r0,%r0,%r14
92c4: 10002000                 st	%r16,[%r0]
92c8: 4007ff0c                 add	%r0,%r15,-244
92cc: 40001c00                 add	%r0,%r0,%r14
92d0: 10002000                 st	%r16,[%r0]
92d4: 41a6fe01                 add	%r13,%r13,1
92d8: 19a68e00                 extb	%r13,%r13
92dc: 57e6fa1c                 sub.f	0,%r13,28
92e0: 27fff68b                 blt	0x9298 = FD_GPIO_Terminate+0x3c
92e4: 601f7c00 000197a4        mov	%r0,0x1_97a4		; fd_gpio_sdram_handle
92ec: 28005d00                 bl	FD_GPIO_Close
92f0: 601f7c00 000197a8        mov	%r0,0x1_97a8		; fd_gpio_tsd1_handle
92f8: 28005b80                 bl	FD_GPIO_Close
92fc: 601f7c00 000197ac        mov	%r0,0x1_97ac		; fd_gpio_tsd2_handle
9304: 28005a00                 bl	FD_GPIO_Close
9308: 50000000                 sub	%r0,%r0,%r0
930c: 2804d700                 bl	FH_GPIO_set_IRQEnableLower
9310: 50000000                 sub	%r0,%r0,%r0
9314: 2804db80                 bl	FH_GPIO_set_IRQEnableUpper
9318: 61bf7c00 00018520        mov	%r13,0x1_8520		; 0x1_8520 = _bufendtab+0x98
9320: 4006ff00                 add	%r0,%r13,-256
9324: 28036400                 bl	FD_INT_Close
9328: 1006a100                 st	%r16,[%r13,-256]
932c: 50000000                 sub	%r0,%r0,%r0
9330: 09ae0010                 ld	%r13,[%sp,16]
9334: 09ce0014                 ld	%r14,[%sp,20]
9338: 09ee0018                 ld	%r15,[%sp,24]
933c: 0a0e001c                 ld	%r16,[%sp,28]
9340: 0bed8004                 ld	%blink,[%fp,4]
9344: 380f8020                 j.d	[%blink]
9348: 0b6e1024                 ld.a	%fp,[%sp,36]
FD_GPIO_Open:
934c: 100e3e04                 st	%blink,[%sp,4]
9350: 100e3600                 st	%fp,[%sp]
9354: 636e3800                 mov	%fp,%sp
9358: 538e7e24                 sub	%sp,%sp,36
935c: 100e1a10                 st	%r13,[%sp,16]
9360: 100e1c14                 st	%r14,[%sp,20]
9364: 100e1e18                 st	%r15,[%sp,24]
9368: 100e201c                 st	%r16,[%sp,28]
936c: 100e2220                 st	%r17,[%sp,32]
9370: 61c00000                 mov	%r14,%r0
9374: 61a08200                 mov	%r13,%r1
9378: 62210400                 mov	%r17,%r2
937c: 61e18600                 mov	%r15,%r3
9380: 57e77a1c                 sub.f	0,%r14,28
9384: 2000010b                 blt	0x9390 = FD_GPIO_Open+0x44
9388: 601ffe01                 mov	%r0,1
938c: 20003f00                 b	0x9588 = FD_GPIO_Open+0x23c
9390: 80277e04                 asl	%r1,%r14,4
9394: 601f7c00 00019144        mov	%r0,0x1_9144		; handles
939c: 42000200                 add	%r16,%r0,%r1
93a0: 08080004                 ld	%r0,[%r16,4]
93a4: 57e07a01                 sub.f	0,%r0,1
93a8: 20000482                 bnz	0x93d0 = FD_GPIO_Open+0x84
93ac: 601ffe05                 mov	%r0,5
93b0: 09ae0010                 ld	%r13,[%sp,16]
93b4: 09ce0014                 ld	%r14,[%sp,20]
93b8: 09ee0018                 ld	%r15,[%sp,24]
93bc: 0a0e001c                 ld	%r16,[%sp,28]
93c0: 0a2e0020                 ld	%r17,[%sp,32]
93c4: 0bed8004                 ld	%blink,[%fp,4]
93c8: 380f8020                 j.d	[%blink]
93cc: 0b6e1024                 ld.a	%fp,[%sp,36]
93d0: 10481c00                 stb	%r14,[%r16]
93d4: 10081a08                 st	%r13,[%r16,8]
93d8: 57e6fa00                 sub.f	0,%r13,0
93dc: 20000381                 bz	0x93fc = FD_GPIO_Open+0xb0
93e0: 57e6fa01                 sub.f	0,%r13,1
93e4: 20000681                 bz	0x941c = FD_GPIO_Open+0xd0
93e8: 57e6fa02                 sub.f	0,%r13,2
93ec: 20000b01                 bz	0x9448 = FD_GPIO_Open+0xfc
93f0: 57e6fa03                 sub.f	0,%r13,3
93f4: 20000f81                 bz	0x9474 = FD_GPIO_Open+0x128
93f8: 20001180                 b	0x9488 = FD_GPIO_Open+0x13c
93fc: 51a69a00                 sub	%r13,%r13,%r13
9400: 60071c00                 mov	%r0,%r14
9404: 60269a00                 mov	%r1,%r13
9408: 2802b800                 bl	fd_gpio_setMuxSelectReg
940c: 60071c00                 mov	%r0,%r14
9410: 60269a00                 mov	%r1,%r13
9414: 28029680                 bl	fd_gpio_setDirectionReg
9418: 20000f00                 b	0x9494 = FD_GPIO_Open+0x148
941c: 61bffe01                 mov	%r13,1
9420: 60071c00                 mov	%r0,%r14
9424: 50208200                 sub	%r1,%r1,%r1
9428: 2802b400                 bl	fd_gpio_setMuxSelectReg
942c: 60071c00                 mov	%r0,%r14
9430: 60269a00                 mov	%r1,%r13
9434: 28029280                 bl	fd_gpio_setDirectionReg
9438: 60071c00                 mov	%r0,%r14
943c: 50208200                 sub	%r1,%r1,%r1
9440: 2802a100                 bl	fd_gpio_setOpenDrainReg
9444: 20000980                 b	0x9494 = FD_GPIO_Open+0x148
9448: 61bffe02                 mov	%r13,2
944c: 60071c00                 mov	%r0,%r14
9450: 50208200                 sub	%r1,%r1,%r1
9454: 2802ae80                 bl	fd_gpio_setMuxSelectReg
9458: 60071c00                 mov	%r0,%r14
945c: 603ffe01                 mov	%r1,1
9460: 28028d00                 bl	fd_gpio_setDirectionReg
9464: 60071c00                 mov	%r0,%r14
9468: 603ffe01                 mov	%r1,1
946c: 28029b80                 bl	fd_gpio_setOpenDrainReg
9470: 20000400                 b	0x9494 = FD_GPIO_Open+0x148
9474: 61bffe03                 mov	%r13,3
9478: 60071c00                 mov	%r0,%r14
947c: 603ffe01                 mov	%r1,1
9480: 2802a900                 bl	fd_gpio_setMuxSelectReg
9484: 20000180                 b	0x9494 = FD_GPIO_Open+0x148
9488: 50000000                 sub	%r0,%r0,%r0
948c: 10078000                 st	%r0,[%r15]
9490: 27ffde80                 b	0x9388 = FD_GPIO_Open+0x3c
9494: 57e8fa00                 sub.f	0,%r17,0
9498: 20001681                 bz	0x9550 = FD_GPIO_Open+0x204
949c: 57e6fa00                 sub.f	0,%r13,0
94a0: 20000101                 bz	0x94ac = FD_GPIO_Open+0x160
94a4: 57e6fa01                 sub.f	0,%r13,1
94a8: 20001582                 bnz	0x9558 = FD_GPIO_Open+0x20c
94ac: 08088000                 ld	%r0,[%r17]
94b0: 57e07a00                 sub.f	0,%r0,0
94b4: 20000381                 bz	0x94d4 = FD_GPIO_Open+0x188
94b8: 57e07a01                 sub.f	0,%r0,1
94bc: 20000601                 bz	0x94f0 = FD_GPIO_Open+0x1a4
94c0: 57e07a02                 sub.f	0,%r0,2
94c4: 20000881                 bz	0x950c = FD_GPIO_Open+0x1c0
94c8: 57e07a03                 sub.f	0,%r0,3
94cc: 20000901                 bz	0x9518 = FD_GPIO_Open+0x1cc
94d0: 27fff680                 b	0x9488 = FD_GPIO_Open+0x13c
94d4: 60071c00                 mov	%r0,%r14
94d8: 603ffe01                 mov	%r1,1
94dc: 2802ad80                 bl	fd_gpio_setIRQLevelReg
94e0: 60071c00                 mov	%r0,%r14
94e4: 50208200                 sub	%r1,%r1,%r1
94e8: 2802bc00                 bl	fd_gpio_setIRQPolarityReg
94ec: 20000680                 b	0x9524 = FD_GPIO_Open+0x1d8
94f0: 60071c00                 mov	%r0,%r14
94f4: 603ffe01                 mov	%r1,1
94f8: 2802aa00                 bl	fd_gpio_setIRQLevelReg
94fc: 60071c00                 mov	%r0,%r14
9500: 603ffe01                 mov	%r1,1
9504: 2802b880                 bl	fd_gpio_setIRQPolarityReg
9508: 20000300                 b	0x9524 = FD_GPIO_Open+0x1d8
950c: 60071c00                 mov	%r0,%r14
9510: 50208200                 sub	%r1,%r1,%r1
9514: 27fffc00                 b	0x94f8 = FD_GPIO_Open+0x1ac
9518: 60071c00                 mov	%r0,%r14
951c: 50208200                 sub	%r1,%r1,%r1
9520: 27fff700                 b	0x94dc = FD_GPIO_Open+0x190
9524: 08088008                 ld	%r0,[%r17,8]
9528: 1008000c                 st	%r0,[%r16,12]
952c: 57e07a00                 sub.f	0,%r0,0
9530: 20000481                 bz	0x9558 = FD_GPIO_Open+0x20c
9534: 08088004                 ld	%r0,[%r17,4]
9538: 57e07a01                 sub.f	0,%r0,1
953c: 20000302                 bnz	0x9558 = FD_GPIO_Open+0x20c
9540: 60071c00                 mov	%r0,%r14
9544: 603ffe01                 mov	%r1,1
9548: 2802c000                 bl	fd_gpio_setIRQEnableReg
954c: 20000100                 b	0x9558 = FD_GPIO_Open+0x20c
9550: 50000000                 sub	%r0,%r0,%r0
9554: 1008000c                 st	%r0,[%r16,12]
9558: 601ffe01                 mov	%r0,1
955c: 10080004                 st	%r0,[%r16,4]
9560: 1007a000                 st	%r16,[%r15]
9564: 50000000                 sub	%r0,%r0,%r0
9568: 09ae0010                 ld	%r13,[%sp,16]
956c: 09ce0014                 ld	%r14,[%sp,20]
9570: 09ee0018                 ld	%r15,[%sp,24]
9574: 0a0e001c                 ld	%r16,[%sp,28]
9578: 0a2e0020                 ld	%r17,[%sp,32]
957c: 0bed8004                 ld	%blink,[%fp,4]
9580: 380f8020                 j.d	[%blink]
9584: 0b6e1024                 ld.a	%fp,[%sp,36]
9588: 09ae0010                 ld	%r13,[%sp,16]
958c: 09ce0014                 ld	%r14,[%sp,20]
9590: 09ee0018                 ld	%r15,[%sp,24]
9594: 0a0e001c                 ld	%r16,[%sp,28]
9598: 0a2e0020                 ld	%r17,[%sp,32]
959c: 0bed8004                 ld	%blink,[%fp,4]
95a0: 380f8020                 j.d	[%blink]
95a4: 0b6e1024                 ld.a	%fp,[%sp,36]
FD_GPIO_OpenFunctionMode:
95a8: 100e3e04                 st	%blink,[%sp,4]
95ac: 100e3600                 st	%fp,[%sp]
95b0: 636e3800                 mov	%fp,%sp
95b4: 538e7e10                 sub	%sp,%sp,16
95b8: 60608200                 mov	%r3,%r1
95bc: 18000e00                 extb	%r0,%r0
95c0: 603ffe03                 mov	%r1,3
95c4: 50410400                 sub	%r2,%r2,%r2
95c8: 2fffb000                 bl	FD_GPIO_Open
95cc: 0bed8004                 ld	%blink,[%fp,4]
95d0: 380f8020                 j.d	[%blink]
95d4: 0b6e1010                 ld.a	%fp,[%sp,16]
FD_GPIO_Close:
95d8: 100e3e04                 st	%blink,[%sp,4]
95dc: 100e3600                 st	%fp,[%sp]
95e0: 636e3800                 mov	%fp,%sp
95e4: 538e7e18                 sub	%sp,%sp,24
95e8: 100e1a10                 st	%r13,[%sp,16]
95ec: 100e1c14                 st	%r14,[%sp,20]
95f0: 61c00000                 mov	%r14,%r0
95f4: 57e77a00                 sub.f	0,%r14,0
95f8: 20001201                 bz	0x968c = FD_GPIO_Close+0xb4
95fc: 08070000                 ld	%r0,[%r14]
9600: 28008300                 bl	checkHandle
9604: 57e07a00                 sub.f	0,%r0,0
9608: 20000181                 bz	0x9618 = FD_GPIO_Close+0x40
960c: 08200004                 ld	%r1,[%r0,4]
9610: 57e0fa00                 sub.f	0,%r1,0
9614: 20000f82                 bnz	0x9694 = FD_GPIO_Close+0xbc
9618: 08270000                 ld	%r1,[%r14]
961c: 605f7c00 000197a4        mov	%r2,0x1_97a4		; fd_gpio_sdram_handle
9624: 08010000                 ld	%r0,[%r2]
9628: 57e08100                 sub.f	0,%r1,%r0
962c: 20000182                 bnz	0x963c = FD_GPIO_Close+0x64
9630: 51a69a00                 sub	%r13,%r13,%r13
9634: 10011a00                 st	%r13,[%r2]
9638: 20000e80                 b	0x96b0 = FD_GPIO_Close+0xd8
963c: 605f7c00 000197a8        mov	%r2,0x1_97a8		; fd_gpio_tsd1_handle
9644: 08010000                 ld	%r0,[%r2]
9648: 57e08100                 sub.f	0,%r1,%r0
964c: 20000182                 bnz	0x965c = FD_GPIO_Close+0x84
9650: 51a69a00                 sub	%r13,%r13,%r13
9654: 10011a00                 st	%r13,[%r2]
9658: 20000a80                 b	0x96b0 = FD_GPIO_Close+0xd8
965c: 61df7c00 000197ac        mov	%r14,0x1_97ac		; fd_gpio_tsd2_handle
9664: 08070000                 ld	%r0,[%r14]
9668: 57e08100                 sub.f	0,%r1,%r0
966c: 20000382                 bnz	0x968c = FD_GPIO_Close+0xb4
9670: 601ffe01                 mov	%r0,1
9674: 2807d480                 bl	FH_VE_set_Enc656WSS_ITU_R656_EN0
9678: 601ffe01                 mov	%r0,1
967c: 2807dd80                 bl	FH_VE_set_Enc656WSS_ITU_R656_EN1
9680: 51a69a00                 sub	%r13,%r13,%r13
9684: 10071a00                 st	%r13,[%r14]
9688: 20000480                 b	0x96b0 = FD_GPIO_Close+0xd8
968c: 601ffe09                 mov	%r0,9
9690: 20000480                 b	0x96b8 = FD_GPIO_Close+0xe0
9694: 51a69a00                 sub	%r13,%r13,%r13
9698: 10001a04                 st	%r13,[%r0,4]
969c: 10001a0c                 st	%r13,[%r0,12]
96a0: 08000400                 ldb	%r0,[%r0]
96a4: 50208200                 sub	%r1,%r1,%r1
96a8: 28029400                 bl	fd_gpio_setIRQEnableReg
96ac: 10071a00                 st	%r13,[%r14]
96b0: 51a69a00                 sub	%r13,%r13,%r13
96b4: 60069a00                 mov	%r0,%r13
96b8: 09ae0010                 ld	%r13,[%sp,16]
96bc: 09ce0014                 ld	%r14,[%sp,20]
96c0: 0bed8004                 ld	%blink,[%fp,4]
96c4: 380f8020                 j.d	[%blink]
96c8: 0b6e1018                 ld.a	%fp,[%sp,24]
FD_GPIO_SetType:
96cc: 100e3e04                 st	%blink,[%sp,4]
96d0: 100e3600                 st	%fp,[%sp]
96d4: 636e3800                 mov	%fp,%sp
96d8: 538e7e18                 sub	%sp,%sp,24
96dc: 100e1a10                 st	%r13,[%sp,16]
96e0: 100e1c14                 st	%r14,[%sp,20]
96e4: 61c08200                 mov	%r14,%r1
96e8: 28006600                 bl	checkHandle
96ec: 61a00000                 mov	%r13,%r0
96f0: 57e6fa00                 sub.f	0,%r13,0
96f4: 20000181                 bz	0x9704 = FD_GPIO_SetType+0x38
96f8: 08068004                 ld	%r0,[%r13,4]
96fc: 57e07a00                 sub.f	0,%r0,0
9700: 20000102                 bnz	0x970c = FD_GPIO_SetType+0x40
9704: 601ffe09                 mov	%r0,9
9708: 20001680                 b	0x97c0 = FD_GPIO_SetType+0xf4
970c: 08068008                 ld	%r0,[%r13,8]
9710: 57e07a03                 sub.f	0,%r0,3
9714: 20000382                 bnz	0x9734 = FD_GPIO_SetType+0x68
9718: 601f7c00 000a0000        mov	%r0,0xa_0000		; 0xa_0000 = _end+0x80728
9720: 09ae0010                 ld	%r13,[%sp,16]
9724: 09ce0014                 ld	%r14,[%sp,20]
9728: 0bed8004                 ld	%blink,[%fp,4]
972c: 380f8020                 j.d	[%blink]
9730: 0b6e1018                 ld.a	%fp,[%sp,24]
9734: 57e77a00                 sub.f	0,%r14,0
9738: 20000501                 bz	0x9764 = FD_GPIO_SetType+0x98
973c: 57e77a01                 sub.f	0,%r14,1
9740: 20000601                 bz	0x9774 = FD_GPIO_SetType+0xa8
9744: 57e77a02                 sub.f	0,%r14,2
9748: 20000801                 bz	0x978c = FD_GPIO_SetType+0xc0
974c: 601ffe01                 mov	%r0,1
9750: 09ae0010                 ld	%r13,[%sp,16]
9754: 09ce0014                 ld	%r14,[%sp,20]
9758: 0bed8004                 ld	%blink,[%fp,4]
975c: 380f8020                 j.d	[%blink]
9760: 0b6e1018                 ld.a	%fp,[%sp,24]
9764: 08068400                 ldb	%r0,[%r13]
9768: 50208200                 sub	%r1,%r1,%r1
976c: 28022b80                 bl	fd_gpio_setDirectionReg
9770: 20000600                 b	0x97a4 = FD_GPIO_SetType+0xd8
9774: 08068400                 ldb	%r0,[%r13]
9778: 603ffe01                 mov	%r1,1
977c: 28022980                 bl	fd_gpio_setDirectionReg
9780: 08068400                 ldb	%r0,[%r13]
9784: 50208200                 sub	%r1,%r1,%r1
9788: 20000280                 b	0x97a0 = FD_GPIO_SetType+0xd4
978c: 08068400                 ldb	%r0,[%r13]
9790: 603ffe01                 mov	%r1,1
9794: 28022680                 bl	fd_gpio_setDirectionReg
9798: 08068400                 ldb	%r0,[%r13]
979c: 603ffe01                 mov	%r1,1
97a0: 28023500                 bl	fd_gpio_setOpenDrainReg
97a4: 10069c08                 st	%r14,[%r13,8]
97a8: 50000000                 sub	%r0,%r0,%r0
97ac: 09ae0010                 ld	%r13,[%sp,16]
97b0: 09ce0014                 ld	%r14,[%sp,20]
97b4: 0bed8004                 ld	%blink,[%fp,4]
97b8: 380f8020                 j.d	[%blink]
97bc: 0b6e1018                 ld.a	%fp,[%sp,24]
97c0: 09ae0010                 ld	%r13,[%sp,16]
97c4: 09ce0014                 ld	%r14,[%sp,20]
97c8: 0bed8004                 ld	%blink,[%fp,4]
97cc: 380f8020                 j.d	[%blink]
97d0: 0b6e1018                 ld.a	%fp,[%sp,24]
FD_GPIO_Read:
97d4: 100e3e04                 st	%blink,[%sp,4]
97d8: 100e3600                 st	%fp,[%sp]
97dc: 636e3800                 mov	%fp,%sp
97e0: 538e7e14                 sub	%sp,%sp,20
97e4: 100e1a10                 st	%r13,[%sp,16]
97e8: 61a08200                 mov	%r13,%r1
97ec: 28004580                 bl	checkHandle
97f0: 57e07a00                 sub.f	0,%r0,0
97f4: 20000181                 bz	0x9804 = FD_GPIO_Read+0x30
97f8: 08200004                 ld	%r1,[%r0,4]
97fc: 57e0fa00                 sub.f	0,%r1,0
9800: 20000282                 bnz	0x9818 = FD_GPIO_Read+0x44
9804: 601ffe09                 mov	%r0,9
9808: 09ae0010                 ld	%r13,[%sp,16]
980c: 0bed8004                 ld	%blink,[%fp,4]
9810: 380f8020                 j.d	[%blink]
9814: 0b6e1014                 ld.a	%fp,[%sp,20]
9818: 08200008                 ld	%r1,[%r0,8]
981c: 57e0fa02                 sub.f	0,%r1,2
9820: 20000101                 bz	0x982c = FD_GPIO_Read+0x58
9824: 57e0fa03                 sub.f	0,%r1,3
9828: 20000182                 bnz	0x9838 = FD_GPIO_Read+0x64
982c: 601f7c00 000a0000        mov	%r0,0xa_0000		; 0xa_0000 = _end+0x80728
9834: 20000780                 b	0x9874 = FD_GPIO_Read+0xa0
9838: 57e6fa00                 sub.f	0,%r13,0
983c: 20000282                 bnz	0x9854 = FD_GPIO_Read+0x80
9840: 601ffe01                 mov	%r0,1
9844: 09ae0010                 ld	%r13,[%sp,16]
9848: 0bed8004                 ld	%blink,[%fp,4]
984c: 380f8020                 j.d	[%blink]
9850: 0b6e1014                 ld.a	%fp,[%sp,20]
9854: 08000400                 ldb	%r0,[%r0]
9858: 2801d480                 bl	fd_gpio_getDataInReg
985c: 10468000                 stb	%r0,[%r13]
9860: 50000000                 sub	%r0,%r0,%r0
9864: 09ae0010                 ld	%r13,[%sp,16]
9868: 0bed8004                 ld	%blink,[%fp,4]
986c: 380f8020                 j.d	[%blink]
9870: 0b6e1014                 ld.a	%fp,[%sp,20]
9874: 09ae0010                 ld	%r13,[%sp,16]
9878: 0bed8004                 ld	%blink,[%fp,4]
987c: 380f8020                 j.d	[%blink]
9880: 0b6e1014                 ld.a	%fp,[%sp,20]
FD_GPIO_Write:
9884: 100e3e04                 st	%blink,[%sp,4]
9888: 100e3600                 st	%fp,[%sp]
988c: 636e3800                 mov	%fp,%sp
9890: 538e7e14                 sub	%sp,%sp,20
9894: 100e1a10                 st	%r13,[%sp,16]
9898: 61a08200                 mov	%r13,%r1
989c: 28002f80                 bl	checkHandle
98a0: 57e07a00                 sub.f	0,%r0,0
98a4: 20000181                 bz	0x98b4 = FD_GPIO_Write+0x30
98a8: 08200004                 ld	%r1,[%r0,4]
98ac: 57e0fa00                 sub.f	0,%r1,0
98b0: 20000282                 bnz	0x98c8 = FD_GPIO_Write+0x44
98b4: 601ffe09                 mov	%r0,9
98b8: 09ae0010                 ld	%r13,[%sp,16]
98bc: 0bed8004                 ld	%blink,[%fp,4]
98c0: 380f8020                 j.d	[%blink]
98c4: 0b6e1014                 ld.a	%fp,[%sp,20]
98c8: 08200008                 ld	%r1,[%r0,8]
98cc: 57e0fa00                 sub.f	0,%r1,0
98d0: 20000101                 bz	0x98dc = FD_GPIO_Write+0x58
98d4: 57e0fa03                 sub.f	0,%r1,3
98d8: 20000182                 bnz	0x98e8 = FD_GPIO_Write+0x64
98dc: 601f7c00 000a0000        mov	%r0,0xa_0000		; 0xa_0000 = _end+0x80728
98e4: 20000400                 b	0x9908 = FD_GPIO_Write+0x84
98e8: 08000400                 ldb	%r0,[%r0]
98ec: 60269a00                 mov	%r1,%r13
98f0: 2801cd00                 bl	fd_gpio_setDataReg
98f4: 50000000                 sub	%r0,%r0,%r0
98f8: 09ae0010                 ld	%r13,[%sp,16]
98fc: 0bed8004                 ld	%blink,[%fp,4]
9900: 380f8020                 j.d	[%blink]
9904: 0b6e1014                 ld.a	%fp,[%sp,20]
9908: 09ae0010                 ld	%r13,[%sp,16]
990c: 0bed8004                 ld	%blink,[%fp,4]
9910: 380f8020                 j.d	[%blink]
9914: 0b6e1014                 ld.a	%fp,[%sp,20]
FD_GPIO_EnableInterrupt:
9918: 100e3e04                 st	%blink,[%sp,4]
991c: 100e3600                 st	%fp,[%sp]
9920: 636e3800                 mov	%fp,%sp
9924: 538e7e10                 sub	%sp,%sp,16
9928: 28001e00                 bl	checkHandle
992c: 57e07a00                 sub.f	0,%r0,0
9930: 20000181                 bz	0x9940 = FD_GPIO_EnableInterrupt+0x28
9934: 08200004                 ld	%r1,[%r0,4]
9938: 57e0fa00                 sub.f	0,%r1,0
993c: 20000102                 bnz	0x9948 = FD_GPIO_EnableInterrupt+0x30
9940: 601ffe09                 mov	%r0,9
9944: 20000780                 b	0x9984 = FD_GPIO_EnableInterrupt+0x6c
9948: 0820000c                 ld	%r1,[%r0,12]
994c: 57e0fa00                 sub.f	0,%r1,0
9950: 20000282                 bnz	0x9968 = FD_GPIO_EnableInterrupt+0x50
9954: 601f7c00 000a0000        mov	%r0,0xa_0000		; 0xa_0000 = _end+0x80728
995c: 0bed8004                 ld	%blink,[%fp,4]
9960: 380f8020                 j.d	[%blink]
9964: 0b6e1010                 ld.a	%fp,[%sp,16]
9968: 08000400                 ldb	%r0,[%r0]
996c: 603ffe01                 mov	%r1,1
9970: 28023b00                 bl	fd_gpio_setIRQEnableReg
9974: 50000000                 sub	%r0,%r0,%r0
9978: 0bed8004                 ld	%blink,[%fp,4]
997c: 380f8020                 j.d	[%blink]
9980: 0b6e1010                 ld.a	%fp,[%sp,16]
9984: 0bed8004                 ld	%blink,[%fp,4]
9988: 380f8020                 j.d	[%blink]
998c: 0b6e1010                 ld.a	%fp,[%sp,16]
FD_GPIO_DisableInterrupt:
9990: 100e3e04                 st	%blink,[%sp,4]
9994: 100e3600                 st	%fp,[%sp]
9998: 636e3800                 mov	%fp,%sp
999c: 538e7e14                 sub	%sp,%sp,20
99a0: 100e1a10                 st	%r13,[%sp,16]
99a4: 28000e80                 bl	checkHandle
99a8: 57e07a00                 sub.f	0,%r0,0
99ac: 20000181                 bz	0x99bc = FD_GPIO_DisableInterrupt+0x2c
99b0: 08200004                 ld	%r1,[%r0,4]
99b4: 57e0fa00                 sub.f	0,%r1,0
99b8: 20000102                 bnz	0x99c4 = FD_GPIO_DisableInterrupt+0x34
99bc: 601ffe09                 mov	%r0,9
99c0: 20000900                 b	0x9a0c = FD_GPIO_DisableInterrupt+0x7c
99c4: 0820000c                 ld	%r1,[%r0,12]
99c8: 57e0fa00                 sub.f	0,%r1,0
99cc: 20000302                 bnz	0x99e8 = FD_GPIO_DisableInterrupt+0x58
99d0: 601f7c00 000a0000        mov	%r0,0xa_0000		; 0xa_0000 = _end+0x80728
99d8: 09ae0010                 ld	%r13,[%sp,16]
99dc: 0bed8004                 ld	%blink,[%fp,4]
99e0: 380f8020                 j.d	[%blink]
99e4: 0b6e1014                 ld.a	%fp,[%sp,20]
99e8: 08000400                 ldb	%r0,[%r0]
99ec: 51a69a00                 sub	%r13,%r13,%r13
99f0: 60269a00                 mov	%r1,%r13
99f4: 28022a80                 bl	fd_gpio_setIRQEnableReg
99f8: 60069a00                 mov	%r0,%r13
99fc: 09ae0010                 ld	%r13,[%sp,16]
9a00: 0bed8004                 ld	%blink,[%fp,4]
9a04: 380f8020                 j.d	[%blink]
9a08: 0b6e1014                 ld.a	%fp,[%sp,20]
9a0c: 09ae0010                 ld	%r13,[%sp,16]
9a10: 0bed8004                 ld	%blink,[%fp,4]
9a14: 380f8020                 j.d	[%blink]
9a18: 0b6e1014                 ld.a	%fp,[%sp,20]
checkHandle:
9a1c: 57e07a00                 sub.f	0,%r0,0
9a20: 20000381                 bz	0x9a40 = checkHandle+0x24
9a24: 08200400                 ldb	%r1,[%r0]
9a28: 8040fe04                 asl	%r2,%r1,4
9a2c: 40217c00 00019144        add	%r1,%r2,0x1_9144		; handles
9a34: 57e00300                 sub.f	0,%r0,%r1
9a38: 20000081                 bz	0x9a40 = checkHandle+0x24
9a3c: 50000000                 sub	%r0,%r0,%r0
9a40: 380f8000                 j	[%blink]
FD_GPIO_LOW_ISR:
9a44: 538e7e70                 sub	%sp,%sp,112
9a48: 100e0010                 st	%r0,[%sp,16]
9a4c: 100e0214                 st	%r1,[%sp,20]
9a50: 100e0418                 st	%r2,[%sp,24]
9a54: 100e061c                 st	%r3,[%sp,28]
9a58: 100e0820                 st	%r4,[%sp,32]
9a5c: 100e0a24                 st	%r5,[%sp,36]
9a60: 100e0c28                 st	%r6,[%sp,40]
9a64: 100e0e2c                 st	%r7,[%sp,44]
9a68: 100e1030                 st	%r8,[%sp,48]
9a6c: 100e1234                 st	%r9,[%sp,52]
9a70: 100e1438                 st	%r10,[%sp,56]
9a74: 100e163c                 st	%r11,[%sp,60]
9a78: 100e1840                 st	%r12,[%sp,64]
9a7c: 100e3e44                 st	%blink,[%sp,68]
9a80: 100e7248                 st	%mlo,[%sp,72]
9a84: 100e764c                 st	%mhi,[%sp,76]
9a88: 100e7850                 st	%lp_count,[%sp,80]
9a8c: 099fa002                 lr	%r12,[%lp_start]
9a90: 100e1854                 st	%r12,[%sp,84]
9a94: 099fa003                 lr	%r12,[%lp_end]
9a98: 100e1858                 st	%r12,[%sp,88]
9a9c: 100e3660                 st	%fp,[%sp,96]
9aa0: 436e7e60                 add	%fp,%sp,96
9aa4: 100dba04                 st	%ilink1,[%fp,4]
9aa8: 601ffe07                 mov	%r0,7
9aac: 28029600                 bl	FD_INT_GetHandler
9ab0: 38000200                 jl	[%r0]
9ab4: 08200008                 ld	%r1,[%r0,8]
9ab8: 57e0fa00                 sub.f	0,%r1,0
9abc: 20000101                 bz	0x9ac8 = FD_GPIO_LOW_ISR+0x84
9ac0: 08000004                 ld	%r0,[%r0,4]
9ac4: 38008200                 jl	[%r1]
9ac8: 0f8e0050                 ld	%lp_count,[%sp,80]
9acc: 098e0054                 ld	%r12,[%sp,84]
9ad0: 121f9802                 sr	%r12,[%lp_start]
9ad4: 098e0058                 ld	%r12,[%sp,88]
9ad8: 121f9803                 sr	%r12,[%lp_end]
9adc: 080e0010                 ld	%r0,[%sp,16]
9ae0: 082e0014                 ld	%r1,[%sp,20]
9ae4: 084e0018                 ld	%r2,[%sp,24]
9ae8: 086e001c                 ld	%r3,[%sp,28]
9aec: 088e0020                 ld	%r4,[%sp,32]
9af0: 08ae0024                 ld	%r5,[%sp,36]
9af4: 08ce0028                 ld	%r6,[%sp,40]
9af8: 08ee002c                 ld	%r7,[%sp,44]
9afc: 090e0030                 ld	%r8,[%sp,48]
9b00: 092e0034                 ld	%r9,[%sp,52]
9b04: 094e0038                 ld	%r10,[%sp,56]
9b08: 096e003c                 ld	%r11,[%sp,60]
9b0c: 0bee0044                 ld	%blink,[%sp,68]
9b10: 098e0048                 ld	%r12,[%sp,72]
9b14: afe67e01                 mulu64	%r12,1
9b18: 67fcf200                 mov	0,%mlo		; nop
9b1c: 098e004c                 ld	%r12,[%sp,76]
9b20: 121f9812                 sr	%r12,[%mulhi]
9b24: 098e0040                 ld	%r12,[%sp,64]
9b28: 0b6e0060                 ld	%fp,[%sp,96]
9b2c: 438e7e70                 add	%sp,%sp,112
9b30: 380e8100                 j.f	[%ilink1]
FD_GPIO_MID_ISR:
9b34: 538e7e70                 sub	%sp,%sp,112
9b38: 100e0010                 st	%r0,[%sp,16]
9b3c: 100e0214                 st	%r1,[%sp,20]
9b40: 100e0418                 st	%r2,[%sp,24]
9b44: 100e061c                 st	%r3,[%sp,28]
9b48: 100e0820                 st	%r4,[%sp,32]
9b4c: 100e0a24                 st	%r5,[%sp,36]
9b50: 100e0c28                 st	%r6,[%sp,40]
9b54: 100e0e2c                 st	%r7,[%sp,44]
9b58: 100e1030                 st	%r8,[%sp,48]
9b5c: 100e1234                 st	%r9,[%sp,52]
9b60: 100e1438                 st	%r10,[%sp,56]
9b64: 100e163c                 st	%r11,[%sp,60]
9b68: 100e1840                 st	%r12,[%sp,64]
9b6c: 100e3e44                 st	%blink,[%sp,68]
9b70: 100e7248                 st	%mlo,[%sp,72]
9b74: 100e764c                 st	%mhi,[%sp,76]
9b78: 100e7850                 st	%lp_count,[%sp,80]
9b7c: 099fa002                 lr	%r12,[%lp_start]
9b80: 100e1854                 st	%r12,[%sp,84]
9b84: 099fa003                 lr	%r12,[%lp_end]
9b88: 100e1858                 st	%r12,[%sp,88]
9b8c: 100e3660                 st	%fp,[%sp,96]
9b90: 436e7e60                 add	%fp,%sp,96
9b94: 100dbc04                 st	%ilink2,[%fp,4]
9b98: 601ffe07                 mov	%r0,7
9b9c: 28027800                 bl	FD_INT_GetHandler
9ba0: 38000200                 jl	[%r0]
9ba4: 08200008                 ld	%r1,[%r0,8]
9ba8: 57e0fa00                 sub.f	0,%r1,0
9bac: 20000101                 bz	0x9bb8 = FD_GPIO_MID_ISR+0x84
9bb0: 08000004                 ld	%r0,[%r0,4]
9bb4: 38008200                 jl	[%r1]
9bb8: 0f8e0050                 ld	%lp_count,[%sp,80]
9bbc: 098e0054                 ld	%r12,[%sp,84]
9bc0: 121f9802                 sr	%r12,[%lp_start]
9bc4: 098e0058                 ld	%r12,[%sp,88]
9bc8: 121f9803                 sr	%r12,[%lp_end]
9bcc: 080e0010                 ld	%r0,[%sp,16]
9bd0: 082e0014                 ld	%r1,[%sp,20]
9bd4: 084e0018                 ld	%r2,[%sp,24]
9bd8: 086e001c                 ld	%r3,[%sp,28]
9bdc: 088e0020                 ld	%r4,[%sp,32]
9be0: 08ae0024                 ld	%r5,[%sp,36]
9be4: 08ce0028                 ld	%r6,[%sp,40]
9be8: 08ee002c                 ld	%r7,[%sp,44]
9bec: 090e0030                 ld	%r8,[%sp,48]
9bf0: 092e0034                 ld	%r9,[%sp,52]
9bf4: 094e0038                 ld	%r10,[%sp,56]
9bf8: 096e003c                 ld	%r11,[%sp,60]
9bfc: 0bee0044                 ld	%blink,[%sp,68]
9c00: 098e0048                 ld	%r12,[%sp,72]
9c04: afe67e01                 mulu64	%r12,1
9c08: 67fcf200                 mov	0,%mlo		; nop
9c0c: 098e004c                 ld	%r12,[%sp,76]
9c10: 121f9812                 sr	%r12,[%mulhi]
9c14: 098e0040                 ld	%r12,[%sp,64]
9c18: 0b6e0060                 ld	%fp,[%sp,96]
9c1c: 438e7e70                 add	%sp,%sp,112
9c20: 380f0100                 j.f	[%ilink2]
FD_GPIO_Handler:
9c24: 100e3e04                 st	%blink,[%sp,4]
9c28: 100e3600                 st	%fp,[%sp]
9c2c: 636e3800                 mov	%fp,%sp
9c30: 538e7e18                 sub	%sp,%sp,24
9c34: 100e1a10                 st	%r13,[%sp,16]
9c38: 100e1c14                 st	%r14,[%sp,20]
9c3c: 51a69a00                 sub	%r13,%r13,%r13
9c40: 28039a80                 bl	FH_GPIO_get_IRQStatusLower
9c44: 19c01000                 extw	%r14,%r0
9c48: 57e77a00                 sub.f	0,%r14,0
9c4c: 20000781                 bz	0x9c8c = FD_GPIO_Handler+0x68
9c50: 60077e01                 and	%r0,%r14,1
9c54: 57e07a00                 sub.f	0,%r0,0
9c58: 20000381                 bz	0x9c78 = FD_GPIO_Handler+0x54
9c5c: 8026fe04                 asl	%r1,%r13,4
9c60: 4000fc00 00019150        add	%r0,%r1,0x1_9150		; 0x1_9150 = handles+12
9c68: 08000000                 ld	%r0,[%r0]
9c6c: 57e07a00                 sub.f	0,%r0,0
9c70: 20000081                 bz	0x9c78 = FD_GPIO_Handler+0x54
9c74: 38000200                 jl	[%r0]
9c78: 19c70400                 lsr	%r14,%r14
9c7c: 41a6fe01                 add	%r13,%r13,1
9c80: 19a68e00                 extb	%r13,%r13
9c84: 57e77a00                 sub.f	0,%r14,0
9c88: 27fff882                 bnz	0x9c50 = FD_GPIO_Handler+0x2c
9c8c: 61bffe10                 mov	%r13,16
9c90: 28039600                 bl	FH_GPIO_get_IRQStatusUpper
9c94: 61c07c00 00000fff        and	%r14,%r0,0xfff		; 0xfff = DEXP_MAX+0x800
9c9c: 57e77a00                 sub.f	0,%r14,0
9ca0: 20000781                 bz	0x9ce0 = FD_GPIO_Handler+0xbc
9ca4: 60077e01                 and	%r0,%r14,1
9ca8: 57e07a00                 sub.f	0,%r0,0
9cac: 20000381                 bz	0x9ccc = FD_GPIO_Handler+0xa8
9cb0: 8026fe04                 asl	%r1,%r13,4
9cb4: 4000fc00 00019150        add	%r0,%r1,0x1_9150		; 0x1_9150 = handles+12
9cbc: 08000000                 ld	%r0,[%r0]
9cc0: 57e07a00                 sub.f	0,%r0,0
9cc4: 20000081                 bz	0x9ccc = FD_GPIO_Handler+0xa8
9cc8: 38000200                 jl	[%r0]
9ccc: 19c70400                 lsr	%r14,%r14
9cd0: 41a6fe01                 add	%r13,%r13,1
9cd4: 19a68e00                 extb	%r13,%r13
9cd8: 57e77a00                 sub.f	0,%r14,0
9cdc: 27fff882                 bnz	0x9ca4 = FD_GPIO_Handler+0x80
9ce0: 601f7c00 00018424        mov	%r0,0x1_8424		; intData.L77
9ce8: 09ae0010                 ld	%r13,[%sp,16]
9cec: 09ce0014                 ld	%r14,[%sp,20]
9cf0: 0bed8004                 ld	%blink,[%fp,4]
9cf4: 380f8020                 j.d	[%blink]
9cf8: 0b6e1018                 ld.a	%fp,[%sp,24]
FD_UART_CheckRxBuffer:
9cfc: 100e3e04                 st	%blink,[%sp,4]
9d00: 100e3600                 st	%fp,[%sp]
9d04: 636e3800                 mov	%fp,%sp
9d08: 538e7e18                 sub	%sp,%sp,24
9d0c: 100e1a10                 st	%r13,[%sp,16]
9d10: 100e1c14                 st	%r14,[%sp,20]
9d14: 61c08200                 mov	%r14,%r1
9d18: 51a69a00                 sub	%r13,%r13,%r13
9d1c: 10071a00                 st	%r13,[%r14]
9d20: 57e07a01                 sub.f	0,%r0,1
9d24: 20000101                 bz	0x9d30 = FD_UART_CheckRxBuffer+0x34
9d28: 601ffe09                 mov	%r0,9
9d2c: 20000480                 b	0x9d54 = FD_UART_CheckRxBuffer+0x58
9d30: 28035900                 bl	FH_UART_get_TXRXControl_RX_EMPTY
9d34: 57e07a00                 sub.f	0,%r0,0
9d38: 20000182                 bnz	0x9d48 = FD_UART_CheckRxBuffer+0x4c
9d3c: 601ffe01                 mov	%r0,1
9d40: 10070000                 st	%r0,[%r14]
9d44: 20000080                 b	0x9d4c = FD_UART_CheckRxBuffer+0x50
9d48: 10071a00                 st	%r13,[%r14]
9d4c: 51a69a00                 sub	%r13,%r13,%r13
9d50: 60069a00                 mov	%r0,%r13
9d54: 09ae0010                 ld	%r13,[%sp,16]
9d58: 09ce0014                 ld	%r14,[%sp,20]
9d5c: 0bed8004                 ld	%blink,[%fp,4]
9d60: 380f8020                 j.d	[%blink]
9d64: 0b6e1018                 ld.a	%fp,[%sp,24]
FD_UART_Close:
9d68: 100e3e04                 st	%blink,[%sp,4]
9d6c: 100e3600                 st	%fp,[%sp]
9d70: 636e3800                 mov	%fp,%sp
9d74: 538e7e1c                 sub	%sp,%sp,28
9d78: 100e1a10                 st	%r13,[%sp,16]
9d7c: 100e1c14                 st	%r14,[%sp,20]
9d80: 100e1e18                 st	%r15,[%sp,24]
9d84: 61e00000                 mov	%r15,%r0
9d88: 08078000                 ld	%r0,[%r15]
9d8c: 57e07a01                 sub.f	0,%r0,1
9d90: 20000101                 bz	0x9d9c = FD_UART_Close+0x34
9d94: 601ffe09                 mov	%r0,9
9d98: 20000e80                 b	0x9e10 = FD_UART_Close+0xa8
9d9c: 50000000                 sub	%r0,%r0,%r0
9da0: 28033700                 bl	FH_UART_set_IRQMask_RX_PARITY_IRQ
9da4: 50000000                 sub	%r0,%r0,%r0
9da8: 28033d00                 bl	FH_UART_set_IRQMask_RX_IRQ
9dac: 08078000                 ld	%r0,[%r15]
9db0: 57e07a01                 sub.f	0,%r0,1
9db4: 20000081                 bz	0x9dbc = FD_UART_Close+0x54
9db8: 20000300                 b	0x9dd4 = FD_UART_Close+0x6c
9dbc: 28034280                 bl	FH_UART_get_TXRXControl
9dc0: 61a00000                 mov	%r13,%r0
9dc4: 2802bb00                 bl	FH_UART_get_Data
9dc8: 61a6fe02                 and	%r13,%r13,2
9dcc: 57e6fa00                 sub.f	0,%r13,0
9dd0: 27fffd01                 bz	0x9dbc = FD_UART_Close+0x54
9dd4: 51a69a00                 sub	%r13,%r13,%r13
9dd8: 50000000                 sub	%r0,%r0,%r0
9ddc: 2802e480                 bl	FH_UART_set_Control
9de0: 61df7c00 00018530        mov	%r14,0x1_8530		; 0x1_8530 = _bufendtab+0xa8
9de8: 40077f30                 add	%r0,%r14,-208
9dec: 2ffefd00                 bl	FD_GPIO_Close
9df0: 40077f34                 add	%r0,%r14,-204
9df4: 2ffefc00                 bl	FD_GPIO_Close
9df8: 40077f3c                 add	%r0,%r14,-196
9dfc: 2ffefb00                 bl	FD_GPIO_Close
9e00: 40077f38                 add	%r0,%r14,-200
9e04: 2ffefa00                 bl	FD_GPIO_Close
9e08: 10079a00                 st	%r13,[%r15]
9e0c: 60069a00                 mov	%r0,%r13
9e10: 09ae0010                 ld	%r13,[%sp,16]
9e14: 09ce0014                 ld	%r14,[%sp,20]
9e18: 09ee0018                 ld	%r15,[%sp,24]
9e1c: 0bed8004                 ld	%blink,[%fp,4]
9e20: 380f8020                 j.d	[%blink]
9e24: 0b6e101c                 ld.a	%fp,[%sp,28]
FD_UART_Flush:
9e28: 100e3e04                 st	%blink,[%sp,4]
9e2c: 100e3600                 st	%fp,[%sp]
9e30: 636e3800                 mov	%fp,%sp
9e34: 538e7e14                 sub	%sp,%sp,20
9e38: 100e1a10                 st	%r13,[%sp,16]
9e3c: 57e07a01                 sub.f	0,%r0,1
9e40: 20000101                 bz	0x9e4c = FD_UART_Flush+0x24
9e44: 601ffe09                 mov	%r0,9
9e48: 20000380                 b	0x9e68 = FD_UART_Flush+0x40
9e4c: 28033080                 bl	FH_UART_get_TXRXControl
9e50: 61a00000                 mov	%r13,%r0
9e54: 2802a900                 bl	FH_UART_get_Data
9e58: 61a6fe02                 and	%r13,%r13,2
9e5c: 57e6fa00                 sub.f	0,%r13,0
9e60: 27fffd01                 bz	0x9e4c = FD_UART_Flush+0x24
9e64: 50000000                 sub	%r0,%r0,%r0
9e68: 09ae0010                 ld	%r13,[%sp,16]
9e6c: 0bed8004                 ld	%blink,[%fp,4]
9e70: 380f8020                 j.d	[%blink]
9e74: 0b6e1014                 ld.a	%fp,[%sp,20]
FD_UART_GetParams:
9e78: 57e07a01                 sub.f	0,%r0,1
9e7c: 20000101                 bz	0x9e88 = FD_UART_GetParams+16
9e80: 601ffe09                 mov	%r0,9
9e84: 20000680                 b	0x9ebc = FD_UART_GetParams+0x44
9e88: 605f7c00 00019404        mov	%r2,0x1_9404		; 0x1_9404 = _mwfile_locks+0x50
9e90: 08010100                 ld	%r0,[%r2,-256]
9e94: 10008000                 st	%r0,[%r1]
9e98: 08010104                 ld	%r0,[%r2,-252]
9e9c: 10008004                 st	%r0,[%r1,4]
9ea0: 08010108                 ld	%r0,[%r2,-248]
9ea4: 10008008                 st	%r0,[%r1,8]
9ea8: 08010110                 ld	%r0,[%r2,-240]
9eac: 10008010                 st	%r0,[%r1,16]
9eb0: 0801010c                 ld	%r0,[%r2,-244]
9eb4: 1000800c                 st	%r0,[%r1,12]
9eb8: 50000000                 sub	%r0,%r0,%r0
9ebc: 380f8000                 j	[%blink]
FD_UART_GetRealBaudRate:
9ec0: 57e07a01                 sub.f	0,%r0,1
9ec4: 20000101                 bz	0x9ed0 = FD_UART_GetRealBaudRate+16
9ec8: 601ffe09                 mov	%r0,9
9ecc: 20000280                 b	0x9ee4 = FD_UART_GetRealBaudRate+0x24
9ed0: 601f7c00 00018530        mov	%r0,0x1_8530		; 0x1_8530 = _bufendtab+0xa8
9ed8: 08000128                 ld	%r0,[%r0,-216]
9edc: 10008000                 st	%r0,[%r1]
9ee0: 50000000                 sub	%r0,%r0,%r0
9ee4: 380f8000                 j	[%blink]
FD_UART_GetRevisionString:
9ee8: 601f7c00 00018440        mov	%r0,0x1_8440		; CvsVersion
9ef0: 380f8000                 j	[%blink]
FD_UART_GetStatistics:
9ef4: 57e07a01                 sub.f	0,%r0,1
9ef8: 20000101                 bz	0x9f04 = FD_UART_GetStatistics+16
9efc: 601ffe09                 mov	%r0,9
9f00: 20000480                 b	0x9f28 = FD_UART_GetStatistics+0x34
9f04: 601f7c00 00019404        mov	%r0,0x1_9404		; 0x1_9404 = _mwfile_locks+0x50
9f0c: 09600114                 ld	%r11,[%r0,-236]
9f10: 09400118                 ld	%r10,[%r0,-232]
9f14: 0920011c                 ld	%r9,[%r0,-228]
9f18: 10009600                 st	%r11,[%r1]
9f1c: 10009404                 st	%r10,[%r1,4]
9f20: 10009208                 st	%r9,[%r1,8]
9f24: 50000000                 sub	%r0,%r0,%r0
9f28: 380f8000                 j	[%blink]
FD_UART_Init:
9f2c: 100e3e04                 st	%blink,[%sp,4]
9f30: 100e3600                 st	%fp,[%sp]
9f34: 636e3800                 mov	%fp,%sp
9f38: 538e7e14                 sub	%sp,%sp,20
9f3c: 100e1a10                 st	%r13,[%sp,16]
9f40: 61a00000                 mov	%r13,%r0
9f44: 603f7c00 00018530        mov	%r1,0x1_8530		; 0x1_8530 = _bufendtab+0xa8
9f4c: 0800852c                 ldb	%r0,[%r1,-212]
9f50: 57e07a00                 sub.f	0,%r0,0
9f54: 20000281                 bz	0x9f6c = FD_UART_Init+0x40
9f58: 601ffe03                 mov	%r0,3
9f5c: 09ae0010                 ld	%r13,[%sp,16]
9f60: 0bed8004                 ld	%blink,[%fp,4]
9f64: 380f8020                 j.d	[%blink]
9f68: 0b6e1014                 ld.a	%fp,[%sp,20]
9f6c: 50000000                 sub	%r0,%r0,%r0
9f70: 603f7c00 00019404        mov	%r1,0x1_9404		; 0x1_9404 = _mwfile_locks+0x50
9f78: 10008114                 st	%r0,[%r1,-236]
9f7c: 10008118                 st	%r0,[%r1,-232]
9f80: 1000811c                 st	%r0,[%r1,-228]
9f84: 601ffe03                 mov	%r0,3
9f88: 2802de80                 bl	FH_UART_set_IRQClear
9f8c: 08268000                 ld	%r1,[%r13]
9f90: 601ffe01                 mov	%r0,1
9f94: 28004380                 bl	FD_UART_SetParams
9f98: 57e07a00                 sub.f	0,%r0,0
9f9c: 20000201                 bz	0x9fb0 = FD_UART_Init+0x84
9fa0: 09ae0010                 ld	%r13,[%sp,16]
9fa4: 0bed8004                 ld	%blink,[%fp,4]
9fa8: 380f8020                 j.d	[%blink]
9fac: 0b6e1014                 ld.a	%fp,[%sp,20]
9fb0: 28030400                 bl	FH_UART_get_TXRXControl
9fb4: 61a00000                 mov	%r13,%r0
9fb8: 28027c80                 bl	FH_UART_get_Data
9fbc: 61a6fe02                 and	%r13,%r13,2
9fc0: 57e6fa00                 sub.f	0,%r13,0
9fc4: 27fffd01                 bz	0x9fb0 = FD_UART_Init+0x84
9fc8: 603f7c00 00018530        mov	%r1,0x1_8530		; 0x1_8530 = _bufendtab+0xa8
9fd0: 0800852c                 ldb	%r0,[%r1,-212]
9fd4: 40007e01                 add	%r0,%r0,1
9fd8: 1040812c                 stb	%r0,[%r1,-212]
9fdc: 50000000                 sub	%r0,%r0,%r0
9fe0: 09ae0010                 ld	%r13,[%sp,16]
9fe4: 0bed8004                 ld	%blink,[%fp,4]
9fe8: 380f8020                 j.d	[%blink]
9fec: 0b6e1014                 ld.a	%fp,[%sp,20]
FD_UART_Open:
9ff0: 100e3e04                 st	%blink,[%sp,4]
9ff4: 100e3600                 st	%fp,[%sp]
9ff8: 636e3800                 mov	%fp,%sp
9ffc: 538e7e1c                 sub	%sp,%sp,28
a000: 100e1a10                 st	%r13,[%sp,16]
a004: 100e1c14                 st	%r14,[%sp,20]
a008: 100e1e18                 st	%r15,[%sp,24]
a00c: 61e00000                 mov	%r15,%r0
a010: 61c08200                 mov	%r14,%r1
a014: 08070000                 ld	%r0,[%r14]
a018: 57e07a01                 sub.f	0,%r0,1
a01c: 20000382                 bnz	0xa03c = FD_UART_Open+0x4c
a020: 601ffe05                 mov	%r0,5
a024: 09ae0010                 ld	%r13,[%sp,16]
a028: 09ce0014                 ld	%r14,[%sp,20]
a02c: 09ee0018                 ld	%r15,[%sp,24]
a030: 0bed8004                 ld	%blink,[%fp,4]
a034: 380f8020                 j.d	[%blink]
a038: 0b6e101c                 ld.a	%fp,[%sp,28]
a03c: 601ffe01                 mov	%r0,1
a040: 10070000                 st	%r0,[%r14]
a044: 61bf7c00 00018530        mov	%r13,0x1_8530		; 0x1_8530 = _bufendtab+0xa8
a04c: 4026ff38                 add	%r1,%r13,-200
a050: 50000000                 sub	%r0,%r0,%r0
a054: 2ffeaa00                 bl	FD_GPIO_OpenFunctionMode
a058: 57e07a00                 sub.f	0,%r0,0
a05c: 20000282                 bnz	0xa074 = FD_UART_Open+0x84
a060: 4026ff3c                 add	%r1,%r13,-196
a064: 601ffe0e                 mov	%r0,14
a068: 2ffea780                 bl	FD_GPIO_OpenFunctionMode
a06c: 57e07a00                 sub.f	0,%r0,0
a070: 20000081                 bz	0xa078 = FD_UART_Open+0x88
a074: 20001180                 b	0xa104 = FD_UART_Open+0x114
a078: 57e7fa00                 sub.f	0,%r15,0
a07c: 20000a81                 bz	0xa0d4 = FD_UART_Open+0xe4
a080: 08278000                 ld	%r1,[%r15]
a084: 57e0fa00                 sub.f	0,%r1,0
a088: 20000901                 bz	0xa0d4 = FD_UART_Open+0xe4
a08c: 08070000                 ld	%r0,[%r14]
a090: 28002400                 bl	FD_UART_SetParams
a094: 57e07a00                 sub.f	0,%r0,0
a098: 27fffb02                 bnz	0xa074 = FD_UART_Open+0x84
a09c: 08278000                 ld	%r1,[%r15]
a0a0: 0800800c                 ld	%r0,[%r1,12]
a0a4: 57e07a01                 sub.f	0,%r0,1
a0a8: 20000502                 bnz	0xa0d4 = FD_UART_Open+0xe4
a0ac: 4026ff30                 add	%r1,%r13,-208
a0b0: 601ffe01                 mov	%r0,1
a0b4: 2ffe9e00                 bl	FD_GPIO_OpenFunctionMode
a0b8: 57e07a00                 sub.f	0,%r0,0
a0bc: 27fff682                 bnz	0xa074 = FD_UART_Open+0x84
a0c0: 4026ff34                 add	%r1,%r13,-204
a0c4: 601ffe0f                 mov	%r0,15
a0c8: 2ffe9b80                 bl	FD_GPIO_OpenFunctionMode
a0cc: 57e07a00                 sub.f	0,%r0,0
a0d0: 27fff402                 bnz	0xa074 = FD_UART_Open+0x84
a0d4: 51a69a00                 sub	%r13,%r13,%r13
a0d8: 60069a00                 mov	%r0,%r13
a0dc: 2802cf80                 bl	FH_UART_set_IRQMask_RX_PARITY_IRQ
a0e0: 601ffe01                 mov	%r0,1
a0e4: 2802d580                 bl	FH_UART_set_IRQMask_RX_IRQ
a0e8: 60069a00                 mov	%r0,%r13
a0ec: 09ae0010                 ld	%r13,[%sp,16]
a0f0: 09ce0014                 ld	%r14,[%sp,20]
a0f4: 09ee0018                 ld	%r15,[%sp,24]
a0f8: 0bed8004                 ld	%blink,[%fp,4]
a0fc: 380f8020                 j.d	[%blink]
a100: 0b6e101c                 ld.a	%fp,[%sp,28]
a104: 09ae0010                 ld	%r13,[%sp,16]
a108: 09ce0014                 ld	%r14,[%sp,20]
a10c: 09ee0018                 ld	%r15,[%sp,24]
a110: 0bed8004                 ld	%blink,[%fp,4]
a114: 380f8020                 j.d	[%blink]
a118: 0b6e101c                 ld.a	%fp,[%sp,28]
FD_UART_Read:
a11c: 100e3e04                 st	%blink,[%sp,4]
a120: 100e3600                 st	%fp,[%sp]
a124: 636e3800                 mov	%fp,%sp
a128: 538e7e1c                 sub	%sp,%sp,28
a12c: 100e1a10                 st	%r13,[%sp,16]
a130: 100e1c14                 st	%r14,[%sp,20]
a134: 100e1e18                 st	%r15,[%sp,24]
a138: 61c08200                 mov	%r14,%r1
a13c: 61e10400                 mov	%r15,%r2
a140: 57e07a01                 sub.f	0,%r0,1
a144: 20000101                 bz	0xa150 = FD_UART_Read+0x34
a148: 601ffe09                 mov	%r0,9
a14c: 20000980                 b	0xa19c = FD_UART_Read+0x80
a150: 51a69a00                 sub	%r13,%r13,%r13
a154: 57e7fa00                 sub.f	0,%r15,0
a158: 2000078c                 ble	0xa198 = FD_UART_Read+0x7c
a15c: 2802d380                 bl	FH_UART_get_TXRXControl_RX_EMPTY
a160: 57e07a00                 sub.f	0,%r0,0
a164: 27fffe82                 bnz	0xa15c = FD_UART_Read+0x40
a168: 28024680                 bl	FH_UART_get_Data
a16c: 10470000                 stb	%r0,[%r14]
a170: 41c77e01                 add	%r14,%r14,1
a174: 603f7c00 00019404        mov	%r1,0x1_9404		; 0x1_9404 = _mwfile_locks+0x50
a17c: 08008118                 ld	%r0,[%r1,-232]
a180: 40007e01                 add	%r0,%r0,1
a184: 10008118                 st	%r0,[%r1,-232]
a188: 41a6fe01                 add	%r13,%r13,1
a18c: 19a69000                 extw	%r13,%r13
a190: 57e79b00                 sub.f	0,%r15,%r13
a194: 27fff889                 bgt	0xa15c = FD_UART_Read+0x40
a198: 50000000                 sub	%r0,%r0,%r0
a19c: 09ae0010                 ld	%r13,[%sp,16]
a1a0: 09ce0014                 ld	%r14,[%sp,20]
a1a4: 09ee0018                 ld	%r15,[%sp,24]
a1a8: 0bed8004                 ld	%blink,[%fp,4]
a1ac: 380f8020                 j.d	[%blink]
a1b0: 0b6e101c                 ld.a	%fp,[%sp,28]
FD_UART_SetParams:
a1b4: 100e3e04                 st	%blink,[%sp,4]
a1b8: 100e3600                 st	%fp,[%sp]
a1bc: 636e3800                 mov	%fp,%sp
a1c0: 538e7e24                 sub	%sp,%sp,36
a1c4: 100e1a10                 st	%r13,[%sp,16]
a1c8: 100e1c14                 st	%r14,[%sp,20]
a1cc: 100e1e18                 st	%r15,[%sp,24]
a1d0: 100e201c                 st	%r16,[%sp,28]
a1d4: 100e2220                 st	%r17,[%sp,32]
a1d8: 61c08200                 mov	%r14,%r1
a1dc: 57e07a01                 sub.f	0,%r0,1
a1e0: 20000481                 bz	0xa208 = FD_UART_SetParams+0x54
a1e4: 601ffe09                 mov	%r0,9
a1e8: 09ae0010                 ld	%r13,[%sp,16]
a1ec: 09ce0014                 ld	%r14,[%sp,20]
a1f0: 09ee0018                 ld	%r15,[%sp,24]
a1f4: 0a0e001c                 ld	%r16,[%sp,28]
a1f8: 0a2e0020                 ld	%r17,[%sp,32]
a1fc: 0bed8004                 ld	%blink,[%fp,4]
a200: 380f8020                 j.d	[%blink]
a204: 0b6e1024                 ld.a	%fp,[%sp,36]
a208: 08070004                 ld	%r0,[%r14,4]
a20c: 50007e04                 sub	%r0,%r0,4
a210: 57e07a03                 sub.f	0,%r0,3
a214: 2000088d                 bhi	0xa25c = FD_UART_SetParams+0xa8
a218: 08070008                 ld	%r0,[%r14,8]
a21c: 57e07a00                 sub.f	0,%r0,0
a220: 20000101                 bz	0xa22c = FD_UART_SetParams+0x78
a224: 57e07a01                 sub.f	0,%r0,1
a228: 20000602                 bnz	0xa25c = FD_UART_SetParams+0xa8
a22c: 0807000c                 ld	%r0,[%r14,12]
a230: 57e07a00                 sub.f	0,%r0,0
a234: 20000101                 bz	0xa240 = FD_UART_SetParams+0x8c
a238: 57e07a01                 sub.f	0,%r0,1
a23c: 20000382                 bnz	0xa25c = FD_UART_SetParams+0xa8
a240: 08070010                 ld	%r0,[%r14,16]
a244: 57e07a00                 sub.f	0,%r0,0
a248: 20000301                 bz	0xa264 = FD_UART_SetParams+0xb0
a24c: 57e07a01                 sub.f	0,%r0,1
a250: 20000201                 bz	0xa264 = FD_UART_SetParams+0xb0
a254: 57e07a02                 sub.f	0,%r0,2
a258: 20000101                 bz	0xa264 = FD_UART_SetParams+0xb0
a25c: 601ffe01                 mov	%r0,1
a260: 20000080                 b	0xa268 = FD_UART_SetParams+0xb4
a264: 50000000                 sub	%r0,%r0,%r0
a268: 57e07a01                 sub.f	0,%r0,1
a26c: 20000281                 bz	0xa284 = FD_UART_SetParams+0xd0
a270: 08070000                 ld	%r0,[%r14]
a274: 28003800                 bl	getDataRateMode
a278: 61e00000                 mov	%r15,%r0
a27c: 57e7fa35                 sub.f	0,%r15,53
a280: 2000010e                 bls	0xa28c = FD_UART_SetParams+0xd8
a284: 601ffe01                 mov	%r0,1
a288: 20001e80                 b	0xa380 = FD_UART_SetParams+0x1cc
a28c: 08070404                 ldb	%r0,[%r14,4]
a290: 28024680                 bl	FH_UART_set_LineControl_LENGTH
a294: 601ffe01                 mov	%r0,1
a298: 28023d80                 bl	FH_UART_set_LineControl_ORDER
a29c: 08070410                 ldb	%r0,[%r14,16]
a2a0: 28023480                 bl	FH_UART_set_LineControl_PARITY
a2a4: 51a69a00                 sub	%r13,%r13,%r13
a2a8: 60069a00                 mov	%r0,%r13
a2ac: 28022b00                 bl	FH_UART_set_LineControl_POLARITY
a2b0: 08070408                 ldb	%r0,[%r14,8]
a2b4: 28022300                 bl	FH_UART_set_LineControl_STOP_BITS
a2b8: 601ffe03                 mov	%r0,3
a2bc: 28024880                 bl	FH_UART_set_Control
a2c0: 8027fe04                 asl	%r1,%r15,4
a2c4: 605f7c00 00017220        mov	%r2,0x1_7220		; 0x1_7220 = _ctype+0x2c
a2cc: 40017f04                 add	%r0,%r2,-252
a2d0: 40000200                 add	%r0,%r0,%r1
a2d4: 09e00000                 ld	%r15,[%r0]
a2d8: 40017f08                 add	%r0,%r2,-248
a2dc: 40000200                 add	%r0,%r0,%r1
a2e0: 0a200000                 ld	%r17,[%r0]
a2e4: 40017f0c                 add	%r0,%r2,-244
a2e8: 40000200                 add	%r0,%r0,%r1
a2ec: 0a000000                 ld	%r16,[%r0]
a2f0: 601f7c00 0337f980        mov	%r0,0x337_f980		; 0x337_f980 = FOVF_BIT+0x237f980
a2f8: 60279e00                 mov	%r1,%r15
a2fc: 28132980                 bl	_udivmod_normbs
a300: 88207e05                 lsr	%r1,%r0,5
a304: 601f7c00 00018530        mov	%r0,0x1_8530		; 0x1_8530 = _bufendtab+0xa8
a30c: 10000328                 st	%r1,[%r0,-216]
a310: 18088e00                 extb	%r0,%r17
a314: 28025880                 bl	FH_UART_set_Delta1
a318: 18079000                 extw	%r0,%r15
a31c: 28025f80                 bl	FH_UART_set_ClockBound
a320: 60087c00 000003ff        and	%r0,%r16,0x3ff		; DEXP_BIAS
a328: 28025a00                 bl	FH_UART_set_DiffDelta
a32c: 08070000                 ld	%r0,[%r14]
a330: 603f7c00 00019404        mov	%r1,0x1_9404		; 0x1_9404 = _mwfile_locks+0x50
a338: 10008100                 st	%r0,[%r1,-256]
a33c: 08070004                 ld	%r0,[%r14,4]
a340: 10008104                 st	%r0,[%r1,-252]
a344: 08070008                 ld	%r0,[%r14,8]
a348: 10008108                 st	%r0,[%r1,-248]
a34c: 08070010                 ld	%r0,[%r14,16]
a350: 10008110                 st	%r0,[%r1,-240]
a354: 0807000c                 ld	%r0,[%r14,12]
a358: 1000810c                 st	%r0,[%r1,-244]
a35c: 60069a00                 mov	%r0,%r13
a360: 09ae0010                 ld	%r13,[%sp,16]
a364: 09ce0014                 ld	%r14,[%sp,20]
a368: 09ee0018                 ld	%r15,[%sp,24]
a36c: 0a0e001c                 ld	%r16,[%sp,28]
a370: 0a2e0020                 ld	%r17,[%sp,32]
a374: 0bed8004                 ld	%blink,[%fp,4]
a378: 380f8020                 j.d	[%blink]
a37c: 0b6e1024                 ld.a	%fp,[%sp,36]
a380: 09ae0010                 ld	%r13,[%sp,16]
a384: 09ce0014                 ld	%r14,[%sp,20]
a388: 09ee0018                 ld	%r15,[%sp,24]
a38c: 0a0e001c                 ld	%r16,[%sp,28]
a390: 0a2e0020                 ld	%r17,[%sp,32]
a394: 0bed8004                 ld	%blink,[%fp,4]
a398: 380f8020                 j.d	[%blink]
a39c: 0b6e1024                 ld.a	%fp,[%sp,36]
FD_UART_Write:
a3a0: 100e3e04                 st	%blink,[%sp,4]
a3a4: 100e3600                 st	%fp,[%sp]
a3a8: 636e3800                 mov	%fp,%sp
a3ac: 538e7e1c                 sub	%sp,%sp,28
a3b0: 100e1a10                 st	%r13,[%sp,16]
a3b4: 100e1c14                 st	%r14,[%sp,20]
a3b8: 100e1e18                 st	%r15,[%sp,24]
a3bc: 61c08200                 mov	%r14,%r1
a3c0: 61e10400                 mov	%r15,%r2
a3c4: 57e07a01                 sub.f	0,%r0,1
a3c8: 20000101                 bz	0xa3d4 = FD_UART_Write+0x34
a3cc: 601ffe09                 mov	%r0,9
a3d0: 20000980                 b	0xa420 = FD_UART_Write+0x80
a3d4: 51a69a00                 sub	%r13,%r13,%r13
a3d8: 57e7fa00                 sub.f	0,%r15,0
a3dc: 2000078c                 ble	0xa41c = FD_UART_Write+0x7c
a3e0: 28029400                 bl	FH_UART_get_TXRXControl_TX_FULL
a3e4: 57e07a00                 sub.f	0,%r0,0
a3e8: 27fffe82                 bnz	0xa3e0 = FD_UART_Write+0x40
a3ec: 08070400                 ldb	%r0,[%r14]
a3f0: 41c77e01                 add	%r14,%r14,1
a3f4: 2801f300                 bl	FH_UART_set_Data
a3f8: 603f7c00 00019404        mov	%r1,0x1_9404		; 0x1_9404 = _mwfile_locks+0x50
a400: 08008114                 ld	%r0,[%r1,-236]
a404: 40007e01                 add	%r0,%r0,1
a408: 10008114                 st	%r0,[%r1,-236]
a40c: 41a6fe01                 add	%r13,%r13,1
a410: 19a69000                 extw	%r13,%r13
a414: 57e79b00                 sub.f	0,%r15,%r13
a418: 27fff889                 bgt	0xa3e0 = FD_UART_Write+0x40
a41c: 50000000                 sub	%r0,%r0,%r0
a420: 09ae0010                 ld	%r13,[%sp,16]
a424: 09ce0014                 ld	%r14,[%sp,20]
a428: 09ee0018                 ld	%r15,[%sp,24]
a42c: 0bed8004                 ld	%blink,[%fp,4]
a430: 380f8020                 j.d	[%blink]
a434: 0b6e101c                 ld.a	%fp,[%sp,28]
getDataRateMode:
a438: 57e07d00 00004b00        sub.f	0,%r0,0x4b00		; 0x4b00 = _STACKSIZE+0xb00
a440: 20001b01                 bz	0xa51c = getDataRateMode+0xe4
a444: 20000a09                 bgt	0xa498 = getDataRateMode+0x60
a448: 57e07d00 000004b0        sub.f	0,%r0,0x4b0		; 0x4b0 = DEXP_BIAS+0xb1
a450: 20001501                 bz	0xa4fc = getDataRateMode+0xc4
a454: 20000309                 bgt	0xa470 = getDataRateMode+0x38
a458: 57e07a6e                 sub.f	0,%r0,110
a45c: 20001181                 bz	0xa4ec = getDataRateMode+0xb4
a460: 57e07d00 0000012c        sub.f	0,%r0,0x12c		; 0x12c = FEXP_MAX+0x2d
a468: 20001101                 bz	0xa4f4 = getDataRateMode+0xbc
a46c: 20001c80                 b	0xa554 = getDataRateMode+0x11c
a470: 57e07d00 00000960        sub.f	0,%r0,0x960		; 0x960 = DEXP_MAX+0x161
a478: 20001101                 bz	0xa504 = getDataRateMode+0xcc
a47c: 57e07d00 000012c0        sub.f	0,%r0,0x12c0		; 0x12c0 = DEXP_MAX+0xac1
a484: 20001081                 bz	0xa50c = getDataRateMode+0xd4
a488: 57e07d00 00002580        sub.f	0,%r0,0x2580		; 0x2580 = _HEAPSIZE+0x580
a490: 20001001                 bz	0xa514 = getDataRateMode+0xdc
a494: 20001780                 b	0xa554 = getDataRateMode+0x11c
a498: 57e07d00 0001c200        sub.f	0,%r0,0x1_c200		; 0x1_c200 = _ebss+0x2928
a4a0: 20001201                 bz	0xa534 = getDataRateMode+0xfc
a4a4: 20000389                 bgt	0xa4c4 = getDataRateMode+0x8c
a4a8: 57e07d00 00009600        sub.f	0,%r0,0x9600		; 0x9600 = FD_GPIO_Close+0x28
a4b0: 20000e01                 bz	0xa524 = getDataRateMode+0xec
a4b4: 57e07d00 0000e100        sub.f	0,%r0,0xe100		; 0xe100 = uni_to_asc+0x7c
a4bc: 20000d81                 bz	0xa52c = getDataRateMode+0xf4
a4c0: 20001200                 b	0xa554 = getDataRateMode+0x11c
a4c4: 57e07d00 00038400        sub.f	0,%r0,0x3_8400		; 0x3_8400 = _end+0x18b28
a4cc: 20000d81                 bz	0xa53c = getDataRateMode+0x104
a4d0: 57e07d00 00070800        sub.f	0,%r0,0x7_0800		; 0x7_0800 = _end+0x50f28
a4d8: 20000d01                 bz	0xa544 = getDataRateMode+0x10c
a4dc: 57e07d00 000e1000        sub.f	0,%r0,0xe_1000		; 0xe_1000 = _end+0xc1728
a4e4: 20000c81                 bz	0xa54c = getDataRateMode+0x114
a4e8: 20000d00                 b	0xa554 = getDataRateMode+0x11c
a4ec: 50000000                 sub	%r0,%r0,%r0
a4f0: 380f8000                 j	[%blink]
a4f4: 601ffe01                 mov	%r0,1
a4f8: 380f8000                 j	[%blink]
a4fc: 601ffe02                 mov	%r0,2
a500: 380f8000                 j	[%blink]
a504: 601ffe03                 mov	%r0,3
a508: 380f8000                 j	[%blink]
a50c: 601ffe04                 mov	%r0,4
a510: 380f8000                 j	[%blink]
a514: 601ffe05                 mov	%r0,5
a518: 380f8000                 j	[%blink]
a51c: 601ffe06                 mov	%r0,6
a520: 380f8000                 j	[%blink]
a524: 601ffe07                 mov	%r0,7
a528: 380f8000                 j	[%blink]
a52c: 601ffe08                 mov	%r0,8
a530: 380f8000                 j	[%blink]
a534: 601ffe09                 mov	%r0,9
a538: 380f8000                 j	[%blink]
a53c: 601ffe0a                 mov	%r0,10
a540: 380f8000                 j	[%blink]
a544: 601ffe0b                 mov	%r0,11
a548: 380f8000                 j	[%blink]
a54c: 601ffe0c                 mov	%r0,12
a550: 380f8000                 j	[%blink]
a554: 601ffe0d                 mov	%r0,13
a558: 380f8000                 j	[%blink]
uartISR:
a55c: 538e7e70                 sub	%sp,%sp,112
a560: 100e0010                 st	%r0,[%sp,16]
a564: 100e0214                 st	%r1,[%sp,20]
a568: 100e0418                 st	%r2,[%sp,24]
a56c: 100e061c                 st	%r3,[%sp,28]
a570: 100e0820                 st	%r4,[%sp,32]
a574: 100e0a24                 st	%r5,[%sp,36]
a578: 100e0c28                 st	%r6,[%sp,40]
a57c: 100e0e2c                 st	%r7,[%sp,44]
a580: 100e1030                 st	%r8,[%sp,48]
a584: 100e1234                 st	%r9,[%sp,52]
a588: 100e1438                 st	%r10,[%sp,56]
a58c: 100e163c                 st	%r11,[%sp,60]
a590: 100e1840                 st	%r12,[%sp,64]
a594: 100e3e44                 st	%blink,[%sp,68]
a598: 100e7248                 st	%mlo,[%sp,72]
a59c: 100e764c                 st	%mhi,[%sp,76]
a5a0: 100e7850                 st	%lp_count,[%sp,80]
a5a4: 099fa002                 lr	%r12,[%lp_start]
a5a8: 100e1854                 st	%r12,[%sp,84]
a5ac: 099fa003                 lr	%r12,[%lp_end]
a5b0: 100e1858                 st	%r12,[%sp,88]
a5b4: 100e3660                 st	%fp,[%sp,96]
a5b8: 436e7e60                 add	%fp,%sp,96
a5bc: 100dba04                 st	%ilink1,[%fp,4]
a5c0: 601ffe05                 mov	%r0,5
a5c4: 28013300                 bl	FD_INT_GetHandler
a5c8: 38000200                 jl	[%r0]
a5cc: 08200008                 ld	%r1,[%r0,8]
a5d0: 57e0fa00                 sub.f	0,%r1,0
a5d4: 20000101                 bz	0xa5e0 = uartISR+0x84
a5d8: 08000004                 ld	%r0,[%r0,4]
a5dc: 38008200                 jl	[%r1]
a5e0: 0f8e0050                 ld	%lp_count,[%sp,80]
a5e4: 098e0054                 ld	%r12,[%sp,84]
a5e8: 121f9802                 sr	%r12,[%lp_start]
a5ec: 098e0058                 ld	%r12,[%sp,88]
a5f0: 121f9803                 sr	%r12,[%lp_end]
a5f4: 080e0010                 ld	%r0,[%sp,16]
a5f8: 082e0014                 ld	%r1,[%sp,20]
a5fc: 084e0018                 ld	%r2,[%sp,24]
a600: 086e001c                 ld	%r3,[%sp,28]
a604: 088e0020                 ld	%r4,[%sp,32]
a608: 08ae0024                 ld	%r5,[%sp,36]
a60c: 08ce0028                 ld	%r6,[%sp,40]
a610: 08ee002c                 ld	%r7,[%sp,44]
a614: 090e0030                 ld	%r8,[%sp,48]
a618: 092e0034                 ld	%r9,[%sp,52]
a61c: 094e0038                 ld	%r10,[%sp,56]
a620: 096e003c                 ld	%r11,[%sp,60]
a624: 0bee0044                 ld	%blink,[%sp,68]
a628: 098e0048                 ld	%r12,[%sp,72]
a62c: afe67e01                 mulu64	%r12,1
a630: 67fcf200                 mov	0,%mlo		; nop
a634: 098e004c                 ld	%r12,[%sp,76]
a638: 121f9812                 sr	%r12,[%mulhi]
a63c: 098e0040                 ld	%r12,[%sp,64]
a640: 0b6e0060                 ld	%fp,[%sp,96]
a644: 438e7e70                 add	%sp,%sp,112
a648: 380e8100                 j.f	[%ilink1]
FD_UART_Handler:
a64c: 100e3e04                 st	%blink,[%sp,4]
a650: 100e3600                 st	%fp,[%sp]
a654: 636e3800                 mov	%fp,%sp
a658: 538e7e14                 sub	%sp,%sp,20
a65c: 100e1a10                 st	%r13,[%sp,16]
a660: 2801fb00                 bl	FH_UART_get_IRQStatus
a664: 61bf7c00 00018530        mov	%r13,0x1_8530		; 0x1_8530 = _bufendtab+0xa8
a66c: 10068100                 st	%r0,[%r13,-256]
a670: 601ffe03                 mov	%r0,3
a674: 28020100                 bl	FH_UART_set_IRQClear
a678: 4006ff04                 add	%r0,%r13,-252
a67c: 09ae0010                 ld	%r13,[%sp,16]
a680: 0bed8004                 ld	%blink,[%fp,4]
a684: 380f8020                 j.d	[%blink]
a688: 0b6e1014                 ld.a	%fp,[%sp,20]
FD_UART_Processor:
a68c: 100e3e04                 st	%blink,[%sp,4]
a690: 100e3600                 st	%fp,[%sp]
a694: 636e3800                 mov	%fp,%sp
a698: 538e7e10                 sub	%sp,%sp,16
a69c: 08000000                 ld	%r0,[%r0]
a6a0: 60007e01                 and	%r0,%r0,1
a6a4: 57e07a00                 sub.f	0,%r0,0
a6a8: 20000581                 bz	0xa6d8 = FD_UART_Processor+0x4c
a6ac: 603f7c00 00019404        mov	%r1,0x1_9404		; 0x1_9404 = _mwfile_locks+0x50
a6b4: 0800811c                 ld	%r0,[%r1,-228]
a6b8: 40007e01                 add	%r0,%r0,1
a6bc: 1000811c                 st	%r0,[%r1,-228]
a6c0: 601f7c00 00018530        mov	%r0,0x1_8530		; 0x1_8530 = _bufendtab+0xa8
a6c8: 08000124                 ld	%r0,[%r0,-220]
a6cc: 57e07a00                 sub.f	0,%r0,0
a6d0: 20000081                 bz	0xa6d8 = FD_UART_Processor+0x4c
a6d4: 38000200                 jl	[%r0]
a6d8: 0bed8004                 ld	%blink,[%fp,4]
a6dc: 380f8020                 j.d	[%blink]
a6e0: 0b6e1010                 ld.a	%fp,[%sp,16]
fd_gpio_setbit:
a6e4: 60618000                 and	%r3,%r3,%r0
a6e8: 801f8201                 asl	%r0,1,%r1
a6ec: 70618000                 bic	%r3,%r3,%r0
a6f0: 60417e01                 and	%r2,%r2,1
a6f4: 80010200                 asl	%r0,%r2,%r1
a6f8: 68000600                 or	%r0,%r0,%r3
a6fc: 380f8000                 j	[%blink]
fd_gpio_getDataInReg:
a700: 100e3e04                 st	%blink,[%sp,4]
a704: 100e3600                 st	%fp,[%sp]
a708: 636e3800                 mov	%fp,%sp
a70c: 538e7e14                 sub	%sp,%sp,20
a710: 100e1a10                 st	%r13,[%sp,16]
a714: 60207e0f                 and	%r1,%r0,15
a718: 81bf8201                 asl	%r13,1,%r1
a71c: 60007e10                 and	%r0,%r0,16
a720: 57e07a00                 sub.f	0,%r0,0
a724: 20000102                 bnz	0xa730 = fd_gpio_getDataInReg+0x30
a728: 28023980                 bl	FH_GPIO_get_DataInLower
a72c: 20000080                 b	0xa734 = fd_gpio_getDataInReg+0x34
a730: 28023a80                 bl	FH_GPIO_get_DataInUpper
a734: 60001a00                 and	%r0,%r0,%r13
a738: 57e07a00                 sub.f	0,%r0,0
a73c: 20000101                 bz	0xa748 = fd_gpio_getDataInReg+0x48
a740: 601ffe01                 mov	%r0,1
a744: 20000080                 b	0xa74c = fd_gpio_getDataInReg+0x4c
a748: 50000000                 sub	%r0,%r0,%r0
a74c: 09ae0010                 ld	%r13,[%sp,16]
a750: 0bed8004                 ld	%blink,[%fp,4]
a754: 380f8020                 j.d	[%blink]
a758: 0b6e1014                 ld.a	%fp,[%sp,20]
fd_gpio_setDataReg:
a75c: 100e3e04                 st	%blink,[%sp,4]
a760: 100e3600                 st	%fp,[%sp]
a764: 636e3800                 mov	%fp,%sp
a768: 538e7e18                 sub	%sp,%sp,24
a76c: 100e1a10                 st	%r13,[%sp,16]
a770: 100e1c14                 st	%r14,[%sp,20]
a774: 61a00000                 mov	%r13,%r0
a778: 61c08200                 mov	%r14,%r1
a77c: 9006fe03                 asr	%r0,%r13,3
a780: 57e07a00                 sub.f	0,%r0,0
a784: 20000381                 bz	0xa7a4 = fd_gpio_setDataReg+0x48
a788: 57e07a01                 sub.f	0,%r0,1
a78c: 20000b01                 bz	0xa7e8 = fd_gpio_setDataReg+0x8c
a790: 57e07a02                 sub.f	0,%r0,2
a794: 20001281                 bz	0xa82c = fd_gpio_setDataReg+0xd0
a798: 57e07a03                 sub.f	0,%r0,3
a79c: 20001a01                 bz	0xa870 = fd_gpio_setDataReg+0x114
a7a0: 20002280                 b	0xa8b8 = fd_gpio_setDataReg+0x15c
a7a4: 28027380                 bl	FH_GPIO_getm_Data0
a7a8: 6086fe07                 and	%r4,%r13,7
a7ac: 68227e08                 or	%r1,%r4,8
a7b0: 18208e00                 extb	%r1,%r1
a7b4: 60471c00                 mov	%r2,%r14
a7b8: 187f9100                 extw	%r3,-256
a7bc: 2fffe480                 bl	fd_gpio_setbit
a7c0: 18220e00                 extb	%r1,%r4
a7c4: 605ffe01                 mov	%r2,1
a7c8: 187f91ff                 extw	%r3,-1
a7cc: 2fffe280                 bl	fd_gpio_setbit
a7d0: 28026a80                 bl	FH_GPIO_set_Data0
a7d4: 09ae0010                 ld	%r13,[%sp,16]
a7d8: 09ce0014                 ld	%r14,[%sp,20]
a7dc: 0bed8004                 ld	%blink,[%fp,4]
a7e0: 380f8020                 j.d	[%blink]
a7e4: 0b6e1018                 ld.a	%fp,[%sp,24]
a7e8: 28027080                 bl	FH_GPIO_getm_Data1
a7ec: 6086fe07                 and	%r4,%r13,7
a7f0: 68227e08                 or	%r1,%r4,8
a7f4: 18208e00                 extb	%r1,%r1
a7f8: 60471c00                 mov	%r2,%r14
a7fc: 187f9100                 extw	%r3,-256
a800: 2fffdc00                 bl	fd_gpio_setbit
a804: 18220e00                 extb	%r1,%r4
a808: 605ffe01                 mov	%r2,1
a80c: 187f91ff                 extw	%r3,-1
a810: 2fffda00                 bl	fd_gpio_setbit
a814: 28026780                 bl	FH_GPIO_set_Data1
a818: 09ae0010                 ld	%r13,[%sp,16]
a81c: 09ce0014                 ld	%r14,[%sp,20]
a820: 0bed8004                 ld	%blink,[%fp,4]
a824: 380f8020                 j.d	[%blink]
a828: 0b6e1018                 ld.a	%fp,[%sp,24]
a82c: 28026d80                 bl	FH_GPIO_getm_Data2
a830: 6086fe07                 and	%r4,%r13,7
a834: 68227e08                 or	%r1,%r4,8
a838: 18208e00                 extb	%r1,%r1
a83c: 60471c00                 mov	%r2,%r14
a840: 187f9100                 extw	%r3,-256
a844: 2fffd380                 bl	fd_gpio_setbit
a848: 18220e00                 extb	%r1,%r4
a84c: 605ffe01                 mov	%r2,1
a850: 187f91ff                 extw	%r3,-1
a854: 2fffd180                 bl	fd_gpio_setbit
a858: 28026480                 bl	FH_GPIO_set_Data2
a85c: 09ae0010                 ld	%r13,[%sp,16]
a860: 09ce0014                 ld	%r14,[%sp,20]
a864: 0bed8004                 ld	%blink,[%fp,4]
a868: 380f8020                 j.d	[%blink]
a86c: 0b6e1018                 ld.a	%fp,[%sp,24]
a870: 28026a80                 bl	FH_GPIO_getm_Data3
a874: 6086fe07                 and	%r4,%r13,7
a878: 68227e08                 or	%r1,%r4,8
a87c: 18208e00                 extb	%r1,%r1
a880: 60471c00                 mov	%r2,%r14
a884: 607f7c00 00000f00        mov	%r3,0xf00		; 0xf00 = DEXP_MAX+0x701
a88c: 2fffca80                 bl	fd_gpio_setbit
a890: 18220e00                 extb	%r1,%r4
a894: 605ffe01                 mov	%r2,1
a898: 187f91ff                 extw	%r3,-1
a89c: 2fffc880                 bl	fd_gpio_setbit
a8a0: 28026100                 bl	FH_GPIO_set_Data3
a8a4: 09ae0010                 ld	%r13,[%sp,16]
a8a8: 09ce0014                 ld	%r14,[%sp,20]
a8ac: 0bed8004                 ld	%blink,[%fp,4]
a8b0: 380f8020                 j.d	[%blink]
a8b4: 0b6e1018                 ld.a	%fp,[%sp,24]
a8b8: 09ae0010                 ld	%r13,[%sp,16]
a8bc: 09ce0014                 ld	%r14,[%sp,20]
a8c0: 0bed8004                 ld	%blink,[%fp,4]
a8c4: 380f8020                 j.d	[%blink]
a8c8: 0b6e1018                 ld.a	%fp,[%sp,24]
fd_gpio_setDirectionReg:
a8cc: 100e3e04                 st	%blink,[%sp,4]
a8d0: 100e3600                 st	%fp,[%sp]
a8d4: 636e3800                 mov	%fp,%sp
a8d8: 538e7e18                 sub	%sp,%sp,24
a8dc: 100e1a10                 st	%r13,[%sp,16]
a8e0: 100e1c14                 st	%r14,[%sp,20]
a8e4: 61a00000                 mov	%r13,%r0
a8e8: 61c08200                 mov	%r14,%r1
a8ec: 6006fe10                 and	%r0,%r13,16
a8f0: 57e07a00                 sub.f	0,%r0,0
a8f4: 20000402                 bnz	0xa918 = fd_gpio_setDirectionReg+0x4c
a8f8: 28021200                 bl	FH_GPIO_getm_DirectionLower
a8fc: 6026fe0f                 and	%r1,%r13,15
a900: 18208e00                 extb	%r1,%r1
a904: 60471c00                 mov	%r2,%r14
a908: 187f91ff                 extw	%r3,-1
a90c: 2fffba80                 bl	fd_gpio_setbit
a910: 28020b80                 bl	FH_GPIO_set_DirectionLower
a914: 20000400                 b	0xa938 = fd_gpio_setDirectionReg+0x6c
a918: 28021380                 bl	FH_GPIO_getm_DirectionUpper
a91c: 6026fe0f                 and	%r1,%r13,15
a920: 18208e00                 extb	%r1,%r1
a924: 60471c00                 mov	%r2,%r14
a928: 607f7c00 00000fff        mov	%r3,0xfff		; 0xfff = DEXP_MAX+0x800
a930: 2fffb600                 bl	fd_gpio_setbit
a934: 28020c80                 bl	FH_GPIO_set_DirectionUpper
a938: 09ae0010                 ld	%r13,[%sp,16]
a93c: 09ce0014                 ld	%r14,[%sp,20]
a940: 0bed8004                 ld	%blink,[%fp,4]
a944: 380f8020                 j.d	[%blink]
a948: 0b6e1018                 ld.a	%fp,[%sp,24]
fd_gpio_setOpenDrainReg:
a94c: 100e3e04                 st	%blink,[%sp,4]
a950: 100e3600                 st	%fp,[%sp]
a954: 636e3800                 mov	%fp,%sp
a958: 538e7e18                 sub	%sp,%sp,24
a95c: 100e1a10                 st	%r13,[%sp,16]
a960: 100e1c14                 st	%r14,[%sp,20]
a964: 61a00000                 mov	%r13,%r0
a968: 61c08200                 mov	%r14,%r1
a96c: 6006fe10                 and	%r0,%r13,16
a970: 57e07a00                 sub.f	0,%r0,0
a974: 20000402                 bnz	0xa998 = fd_gpio_setOpenDrainReg+0x4c
a978: 28022e00                 bl	FH_GPIO_getm_OpenDrainLower
a97c: 6026fe0f                 and	%r1,%r13,15
a980: 18208e00                 extb	%r1,%r1
a984: 60471c00                 mov	%r2,%r14
a988: 187f91ff                 extw	%r3,-1
a98c: 2fffaa80                 bl	fd_gpio_setbit
a990: 28022780                 bl	FH_GPIO_set_OpenDrainLower
a994: 20000400                 b	0xa9b8 = fd_gpio_setOpenDrainReg+0x6c
a998: 28022f80                 bl	FH_GPIO_getm_OpenDrainUpper
a99c: 6026fe0f                 and	%r1,%r13,15
a9a0: 18208e00                 extb	%r1,%r1
a9a4: 60471c00                 mov	%r2,%r14
a9a8: 607f7c00 00000fff        mov	%r3,0xfff		; 0xfff = DEXP_MAX+0x800
a9b0: 2fffa600                 bl	fd_gpio_setbit
a9b4: 28022880                 bl	FH_GPIO_set_OpenDrainUpper
a9b8: 09ae0010                 ld	%r13,[%sp,16]
a9bc: 09ce0014                 ld	%r14,[%sp,20]
a9c0: 0bed8004                 ld	%blink,[%fp,4]
a9c4: 380f8020                 j.d	[%blink]
a9c8: 0b6e1018                 ld.a	%fp,[%sp,24]
fd_gpio_setMuxSelectReg:
a9cc: 100e3e04                 st	%blink,[%sp,4]
a9d0: 100e3600                 st	%fp,[%sp]
a9d4: 636e3800                 mov	%fp,%sp
a9d8: 538e7e18                 sub	%sp,%sp,24
a9dc: 100e1a10                 st	%r13,[%sp,16]
a9e0: 100e1c14                 st	%r14,[%sp,20]
a9e4: 61a00000                 mov	%r13,%r0
a9e8: 61c08200                 mov	%r14,%r1
a9ec: 6006fe10                 and	%r0,%r13,16
a9f0: 57e07a00                 sub.f	0,%r0,0
a9f4: 20000402                 bnz	0xaa18 = fd_gpio_setMuxSelectReg+0x4c
a9f8: 28023f00                 bl	FH_GPIO_getm_MuxSelectLower
a9fc: 6026fe0f                 and	%r1,%r13,15
aa00: 18208e00                 extb	%r1,%r1
aa04: 60471c00                 mov	%r2,%r14
aa08: 187f91ff                 extw	%r3,-1
aa0c: 2fff9a80                 bl	fd_gpio_setbit
aa10: 28023880                 bl	FH_GPIO_set_MuxSelectLower
aa14: 20000400                 b	0xaa38 = fd_gpio_setMuxSelectReg+0x6c
aa18: 28024080                 bl	FH_GPIO_getm_MuxSelectUpper
aa1c: 6026fe0f                 and	%r1,%r13,15
aa20: 18208e00                 extb	%r1,%r1
aa24: 60471c00                 mov	%r2,%r14
aa28: 607f7c00 00000fff        mov	%r3,0xfff		; 0xfff = DEXP_MAX+0x800
aa30: 2fff9600                 bl	fd_gpio_setbit
aa34: 28023980                 bl	FH_GPIO_set_MuxSelectUpper
aa38: 09ae0010                 ld	%r13,[%sp,16]
aa3c: 09ce0014                 ld	%r14,[%sp,20]
aa40: 0bed8004                 ld	%blink,[%fp,4]
aa44: 380f8020                 j.d	[%blink]
aa48: 0b6e1018                 ld.a	%fp,[%sp,24]
fd_gpio_setIRQLevelReg:
aa4c: 100e3e04                 st	%blink,[%sp,4]
aa50: 100e3600                 st	%fp,[%sp]
aa54: 636e3800                 mov	%fp,%sp
aa58: 538e7e18                 sub	%sp,%sp,24
aa5c: 100e1a10                 st	%r13,[%sp,16]
aa60: 100e1c14                 st	%r14,[%sp,20]
aa64: 61a00000                 mov	%r13,%r0
aa68: 61c08200                 mov	%r14,%r1
aa6c: 6006fe10                 and	%r0,%r13,16
aa70: 57e07a00                 sub.f	0,%r0,0
aa74: 20000402                 bnz	0xaa98 = fd_gpio_setIRQLevelReg+0x4c
aa78: 2801f800                 bl	FH_GPIO_getm_IRQLevelLower
aa7c: 6026fe0f                 and	%r1,%r13,15
aa80: 18208e00                 extb	%r1,%r1
aa84: 60471c00                 mov	%r2,%r14
aa88: 187f91ff                 extw	%r3,-1
aa8c: 2fff8a80                 bl	fd_gpio_setbit
aa90: 2801f180                 bl	FH_GPIO_set_IRQLevelLower
aa94: 20000400                 b	0xaab8 = fd_gpio_setIRQLevelReg+0x6c
aa98: 2801f980                 bl	FH_GPIO_getm_IRQLevelUpper
aa9c: 6026fe0f                 and	%r1,%r13,15
aaa0: 18208e00                 extb	%r1,%r1
aaa4: 60471c00                 mov	%r2,%r14
aaa8: 607f7c00 00000fff        mov	%r3,0xfff		; 0xfff = DEXP_MAX+0x800
aab0: 2fff8600                 bl	fd_gpio_setbit
aab4: 2801f280                 bl	FH_GPIO_set_IRQLevelUpper
aab8: 09ae0010                 ld	%r13,[%sp,16]
aabc: 09ce0014                 ld	%r14,[%sp,20]
aac0: 0bed8004                 ld	%blink,[%fp,4]
aac4: 380f8020                 j.d	[%blink]
aac8: 0b6e1018                 ld.a	%fp,[%sp,24]
fd_gpio_setIRQPolarityReg:
aacc: 100e3e04                 st	%blink,[%sp,4]
aad0: 100e3600                 st	%fp,[%sp]
aad4: 636e3800                 mov	%fp,%sp
aad8: 538e7e18                 sub	%sp,%sp,24
aadc: 100e1a10                 st	%r13,[%sp,16]
aae0: 100e1c14                 st	%r14,[%sp,20]
aae4: 61a00000                 mov	%r13,%r0
aae8: 61c08200                 mov	%r14,%r1
aaec: 6006fe10                 and	%r0,%r13,16
aaf0: 57e07a00                 sub.f	0,%r0,0
aaf4: 20000402                 bnz	0xab18 = fd_gpio_setIRQPolarityReg+0x4c
aaf8: 2801f300                 bl	FH_GPIO_getm_IRQPolarityLower
aafc: 6026fe0f                 and	%r1,%r13,15
ab00: 18208e00                 extb	%r1,%r1
ab04: 60471c00                 mov	%r2,%r14
ab08: 187f91ff                 extw	%r3,-1
ab0c: 2fff7a80                 bl	fd_gpio_setbit
ab10: 2801ec80                 bl	FH_GPIO_set_IRQPolarityLower
ab14: 20000400                 b	0xab38 = fd_gpio_setIRQPolarityReg+0x6c
ab18: 2801f480                 bl	FH_GPIO_getm_IRQPolarityUpper
ab1c: 6026fe0f                 and	%r1,%r13,15
ab20: 18208e00                 extb	%r1,%r1
ab24: 60471c00                 mov	%r2,%r14
ab28: 607f7c00 00000fff        mov	%r3,0xfff		; 0xfff = DEXP_MAX+0x800
ab30: 2fff7600                 bl	fd_gpio_setbit
ab34: 2801ed80                 bl	FH_GPIO_set_IRQPolarityUpper
ab38: 09ae0010                 ld	%r13,[%sp,16]
ab3c: 09ce0014                 ld	%r14,[%sp,20]
ab40: 0bed8004                 ld	%blink,[%fp,4]
ab44: 380f8020                 j.d	[%blink]
ab48: 0b6e1018                 ld.a	%fp,[%sp,24]
fd_gpio_setIRQEnableReg:
ab4c: 100e3e04                 st	%blink,[%sp,4]
ab50: 100e3600                 st	%fp,[%sp]
ab54: 636e3800                 mov	%fp,%sp
ab58: 538e7e18                 sub	%sp,%sp,24
ab5c: 100e1a10                 st	%r13,[%sp,16]
ab60: 100e1c14                 st	%r14,[%sp,20]
ab64: 61a00000                 mov	%r13,%r0
ab68: 61c08200                 mov	%r14,%r1
ab6c: 6006fe10                 and	%r0,%r13,16
ab70: 57e07a00                 sub.f	0,%r0,0
ab74: 20000402                 bnz	0xab98 = fd_gpio_setIRQEnableReg+0x4c
ab78: 2801cd00                 bl	FH_GPIO_getm_IRQEnableLower
ab7c: 6026fe0f                 and	%r1,%r13,15
ab80: 18208e00                 extb	%r1,%r1
ab84: 60471c00                 mov	%r2,%r14
ab88: 187f91ff                 extw	%r3,-1
ab8c: 2fff6a80                 bl	fd_gpio_setbit
ab90: 2801c680                 bl	FH_GPIO_set_IRQEnableLower
ab94: 20000400                 b	0xabb8 = fd_gpio_setIRQEnableReg+0x6c
ab98: 2801ce80                 bl	FH_GPIO_getm_IRQEnableUpper
ab9c: 6026fe0f                 and	%r1,%r13,15
aba0: 18208e00                 extb	%r1,%r1
aba4: 60471c00                 mov	%r2,%r14
aba8: 607f7c00 00000fff        mov	%r3,0xfff		; 0xfff = DEXP_MAX+0x800
abb0: 2fff6600                 bl	fd_gpio_setbit
abb4: 2801c780                 bl	FH_GPIO_set_IRQEnableUpper
abb8: 09ae0010                 ld	%r13,[%sp,16]
abbc: 09ce0014                 ld	%r14,[%sp,20]
abc0: 0bed8004                 ld	%blink,[%fp,4]
abc4: 380f8020                 j.d	[%blink]
abc8: 0b6e1018                 ld.a	%fp,[%sp,24]
FD_INT_Init:
abcc: 100e3e04                 st	%blink,[%sp,4]
abd0: 100e3600                 st	%fp,[%sp]
abd4: 636e3800                 mov	%fp,%sp
abd8: 538e7e18                 sub	%sp,%sp,24
abdc: 100e1a10                 st	%r13,[%sp,16]
abe0: 100e1c14                 st	%r14,[%sp,20]
abe4: 61c00000                 mov	%r14,%r0
abe8: 601f7c00 00018478        mov	%r0,0x1_8478		; IrqsInUse
abf0: 08000000                 ld	%r0,[%r0]
abf4: 57e07bff                 sub.f	0,%r0,-1
abf8: 20000101                 bz	0xac04 = FD_INT_Init+0x38
abfc: 601ffe03                 mov	%r0,3
ac00: 20001780                 b	0xacc0 = FD_INT_Init+0xf4
ac04: 1fbf8000                 flag	0
ac08: 51a69a00                 sub	%r13,%r13,%r13
ac0c: 603f7c00 00018474        mov	%r1,0x1_8474		; IrqSensRegister
ac14: 10009a00                 st	%r13,[%r1]
ac18: 50000000                 sub	%r0,%r0,%r0
ac1c: 2800b600                 bl	FH_ARC_set_IRQEdge
ac20: 601f7c00 000197b0        mov	%r0,0x1_97b0		; IrqActiveRegister
ac28: 10001a00                 st	%r13,[%r0]
ac2c: 50000000                 sub	%r0,%r0,%r0
ac30: 2800af80                 bl	FH_ARC_set_IRQInvert
ac34: 601f7c00 00018470        mov	%r0,0x1_8470		; IrqPrioRegister
ac3c: 10001a00                 st	%r13,[%r0]
ac40: 50000000                 sub	%r0,%r0,%r0
ac44: 28009f00                 bl	FH_ARC_set_AuxIRQLevel
ac48: 601f7c00 000197b4        mov	%r0,0x1_97b4		; IrqMaskRegister
ac50: 10001a00                 st	%r13,[%r0]
ac54: 50000000                 sub	%r0,%r0,%r0
ac58: 2800a480                 bl	FH_ARC_set_AuxIRQMask
ac5c: 601fffff                 mov	%r0,-1
ac60: 2800b580                 bl	FH_ARC_set_IRQEnable
ac64: 601f7c00 00008080        mov	%r0,0x8080		; IntBaseVectTable
ac6c: 2800a500                 bl	FH_ARC_set_AuxIRQBaseAddress
ac70: 08270000                 ld	%r1,[%r14]
ac74: 57e0fa00                 sub.f	0,%r1,0
ac78: 20000101                 bz	0xac84 = FD_INT_Init+0xb8
ac7c: 50000000                 sub	%r0,%r0,%r0
ac80: 28004b80                 bl	FD_INT_SetVector
ac84: 08270004                 ld	%r1,[%r14,4]
ac88: 57e0fa00                 sub.f	0,%r1,0
ac8c: 20000101                 bz	0xac98 = FD_INT_Init+0xcc
ac90: 601ffe01                 mov	%r0,1
ac94: 28004900                 bl	FD_INT_SetVector
ac98: 08270008                 ld	%r1,[%r14,8]
ac9c: 57e0fa00                 sub.f	0,%r1,0
aca0: 20000101                 bz	0xacac = FD_INT_Init+0xe0
aca4: 601ffe02                 mov	%r0,2
aca8: 28004680                 bl	FD_INT_SetVector
acac: 51a69a00                 sub	%r13,%r13,%r13
acb0: 601f7c00 00018478        mov	%r0,0x1_8478		; IrqsInUse
acb8: 10001a00                 st	%r13,[%r0]
acbc: 60069a00                 mov	%r0,%r13
acc0: 09ae0010                 ld	%r13,[%sp,16]
acc4: 09ce0014                 ld	%r14,[%sp,20]
acc8: 0bed8004                 ld	%blink,[%fp,4]
accc: 380f8020                 j.d	[%blink]
acd0: 0b6e1018                 ld.a	%fp,[%sp,24]
FD_INT_Open:
acd4: 100e3e04                 st	%blink,[%sp,4]
acd8: 100e3600                 st	%fp,[%sp]
acdc: 636e3800                 mov	%fp,%sp
ace0: 538e7e1c                 sub	%sp,%sp,28
ace4: 100e1a10                 st	%r13,[%sp,16]
ace8: 100e1c14                 st	%r14,[%sp,20]
acec: 100e1e18                 st	%r15,[%sp,24]
acf0: 61a00000                 mov	%r13,%r0
acf4: 61c08200                 mov	%r14,%r1
acf8: 50000000                 sub	%r0,%r0,%r0
acfc: 10070000                 st	%r0,[%r14]
ad00: 08468600                 ldb.x	%r2,[%r13]
ad04: 57e17a18                 sub.f	0,%r2,24
ad08: 20000109                 bgt	0xad14 = FD_INT_Open+0x40
ad0c: 57e17a02                 sub.f	0,%r2,2
ad10: 20000389                 bgt	0xad30 = FD_INT_Open+0x5c
ad14: 601ffe01                 mov	%r0,1
ad18: 09ae0010                 ld	%r13,[%sp,16]
ad1c: 09ce0014                 ld	%r14,[%sp,20]
ad20: 09ee0018                 ld	%r15,[%sp,24]
ad24: 0bed8004                 ld	%blink,[%fp,4]
ad28: 380f8020                 j.d	[%blink]
ad2c: 0b6e101c                 ld.a	%fp,[%sp,28]
ad30: 81ff8401                 asl	%r15,1,%r2
ad34: 607f7c00 00018478        mov	%r3,0x1_8478		; IrqsInUse
ad3c: 08018000                 ld	%r0,[%r3]
ad40: 60201e00                 and	%r1,%r0,%r15
ad44: 57e78300                 sub.f	0,%r15,%r1
ad48: 20000382                 bnz	0xad68 = FD_INT_Open+0x94
ad4c: 601ffe05                 mov	%r0,5
ad50: 09ae0010                 ld	%r13,[%sp,16]
ad54: 09ce0014                 ld	%r14,[%sp,20]
ad58: 09ee0018                 ld	%r15,[%sp,24]
ad5c: 0bed8004                 ld	%blink,[%fp,4]
ad60: 380f8020                 j.d	[%blink]
ad64: 0b6e101c                 ld.a	%fp,[%sp,28]
ad68: 68001e00                 or	%r0,%r0,%r15
ad6c: 10018000                 st	%r0,[%r3]
ad70: 609f7c00 00018474        mov	%r4,0x1_8474		; IrqSensRegister
ad78: 08220000                 ld	%r1,[%r4]
ad7c: 60609e00                 and	%r3,%r1,%r15
ad80: 08068602                 ldb.x	%r0,[%r13,2]
ad84: 80000400                 asl	%r0,%r0,%r2
ad88: 57e18100                 sub.f	0,%r3,%r0
ad8c: 20000181                 bz	0xad9c = FD_INT_Open+0xc8
ad90: 78009e00                 xor	%r0,%r1,%r15
ad94: 10020000                 st	%r0,[%r4]
ad98: 28008680                 bl	FH_ARC_set_IRQEdge
ad9c: 609f7c00 000197b0        mov	%r4,0x1_97b0		; IrqActiveRegister
ada4: 08220000                 ld	%r1,[%r4]
ada8: 60609e00                 and	%r3,%r1,%r15
adac: 08068601                 ldb.x	%r0,[%r13,1]
adb0: 08468600                 ldb.x	%r2,[%r13]
adb4: 80400400                 asl	%r2,%r0,%r2
adb8: 57e18500                 sub.f	0,%r3,%r2
adbc: 20000181                 bz	0xadcc = FD_INT_Open+0xf8
adc0: 78009e00                 xor	%r0,%r1,%r15
adc4: 10020000                 st	%r0,[%r4]
adc8: 28007c80                 bl	FH_ARC_set_IRQInvert
adcc: 609f7c00 00018470        mov	%r4,0x1_8470		; IrqPrioRegister
add4: 08220000                 ld	%r1,[%r4]
add8: 60609e00                 and	%r3,%r1,%r15
addc: 08068603                 ldb.x	%r0,[%r13,3]
ade0: 08468600                 ldb.x	%r2,[%r13]
ade4: 80000400                 asl	%r0,%r0,%r2
ade8: 57e18100                 sub.f	0,%r3,%r0
adec: 20000181                 bz	0xadfc = FD_INT_Open+0x128
adf0: 78009e00                 xor	%r0,%r1,%r15
adf4: 10020000                 st	%r0,[%r4]
adf8: 28006880                 bl	FH_ARC_set_AuxIRQLevel
adfc: 08468600                 ldb.x	%r2,[%r13]
ae00: 08268004                 ld	%r1,[%r13,4]
ae04: 60010400                 mov	%r0,%r2
ae08: 28001a80                 bl	FD_INT_SetVector
ae0c: 603f7c00 000197b4        mov	%r1,0x1_97b4		; IrqMaskRegister
ae14: 08008000                 ld	%r0,[%r1]
ae18: 68001e00                 or	%r0,%r0,%r15
ae1c: 10008000                 st	%r0,[%r1]
ae20: 28006b80                 bl	FH_ARC_set_AuxIRQMask
ae24: 08468600                 ldb.x	%r2,[%r13]
ae28: 10070400                 st	%r2,[%r14]
ae2c: 50000000                 sub	%r0,%r0,%r0
ae30: 09ae0010                 ld	%r13,[%sp,16]
ae34: 09ce0014                 ld	%r14,[%sp,20]
ae38: 09ee0018                 ld	%r15,[%sp,24]
ae3c: 0bed8004                 ld	%blink,[%fp,4]
ae40: 380f8020                 j.d	[%blink]
ae44: 0b6e101c                 ld.a	%fp,[%sp,28]
FD_INT_Close:
ae48: 100e3e04                 st	%blink,[%sp,4]
ae4c: 100e3600                 st	%fp,[%sp]
ae50: 636e3800                 mov	%fp,%sp
ae54: 538e7e18                 sub	%sp,%sp,24
ae58: 100e1a10                 st	%r13,[%sp,16]
ae5c: 100e1c14                 st	%r14,[%sp,20]
ae60: 61c00000                 mov	%r14,%r0
ae64: 08070000                 ld	%r0,[%r14]
ae68: 57e07a18                 sub.f	0,%r0,24
ae6c: 20000b8d                 bhi	0xaecc = FD_INT_Close+0x84
ae70: 57e07a02                 sub.f	0,%r0,2
ae74: 20000a8e                 bls	0xaecc = FD_INT_Close+0x84
ae78: 81bf8001                 asl	%r13,1,%r0
ae7c: 605f7c00 000197b4        mov	%r2,0x1_97b4		; IrqMaskRegister
ae84: 08210000                 ld	%r1,[%r2]
ae88: 60009a00                 and	%r0,%r1,%r13
ae8c: 57e68100                 sub.f	0,%r13,%r0
ae90: 20000182                 bnz	0xaea0 = FD_INT_Close+0x58
ae94: 78009a00                 xor	%r0,%r1,%r13
ae98: 10010000                 st	%r0,[%r2]
ae9c: 28005c00                 bl	FH_ARC_set_AuxIRQMask
aea0: 603f7c00 00018478        mov	%r1,0x1_8478		; IrqsInUse
aea8: 08008000                 ld	%r0,[%r1]
aeac: 78001a00                 xor	%r0,%r0,%r13
aeb0: 10008000                 st	%r0,[%r1]
aeb4: 08070600                 ldb.x	%r0,[%r14]
aeb8: 603f7c00 00002019        mov	%r1,0x2019		; 0x2019 = _HEAPSIZE+0x19
aec0: 28000380                 bl	FD_INT_SetVector
aec4: 50000000                 sub	%r0,%r0,%r0
aec8: 10070000                 st	%r0,[%r14]
aecc: 09ae0010                 ld	%r13,[%sp,16]
aed0: 09ce0014                 ld	%r14,[%sp,20]
aed4: 0bed8004                 ld	%blink,[%fp,4]
aed8: 380f8020                 j.d	[%blink]
aedc: 0b6e1018                 ld.a	%fp,[%sp,24]
FD_INT_SetVector:
aee0: 100e3e04                 st	%blink,[%sp,4]
aee4: 100e3600                 st	%fp,[%sp]
aee8: 636e3800                 mov	%fp,%sp
aeec: 538e7e10                 sub	%sp,%sp,16
aef0: 605f7c00 00008180        mov	%r2,0x8180		; IRQ_FUNC_0
aef8: 80007e03                 asl	%r0,%r0,3
aefc: 40010000                 add	%r0,%r2,%r0
af00: 14000204                 st.di	%r1,[%r0,4]
af04: 28001b80                 bl	FH_ARC_get_AuxInvalidateICache
af08: 28001a00                 bl	FH_ARC_set_AuxInvalidateICache
af0c: 0bed8004                 ld	%blink,[%fp,4]
af10: 380f8020                 j.d	[%blink]
af14: 0b6e1010                 ld.a	%fp,[%sp,16]
FD_INT_InvalidateInstructionCache:
af18: 100e3e04                 st	%blink,[%sp,4]
af1c: 100e3600                 st	%fp,[%sp]
af20: 636e3800                 mov	%fp,%sp
af24: 538e7e10                 sub	%sp,%sp,16
af28: 28001700                 bl	FH_ARC_get_AuxInvalidateICache
af2c: 28001580                 bl	FH_ARC_set_AuxInvalidateICache
af30: 0bed8004                 ld	%blink,[%fp,4]
af34: 380f8020                 j.d	[%blink]
af38: 0b6e1010                 ld.a	%fp,[%sp,16]
FD_INT_SetHandler:
af3c: 57e07a00                 sub.f	0,%r0,0
af40: 2000030b                 blt	0xaf5c = FD_INT_SetHandler+0x20
af44: 57e07a18                 sub.f	0,%r0,24
af48: 2000020a                 bge	0xaf5c = FD_INT_SetHandler+0x20
af4c: 80407e02                 asl	%r2,%r0,2
af50: 40017c00 000197b8        add	%r0,%r2,0x1_97b8		; DriverFuncTable
af58: 10000200                 st	%r1,[%r0]
af5c: 380f8000                 j	[%blink]
FD_INT_GetHandler:
af60: 57e07a00                 sub.f	0,%r0,0
af64: 2000038b                 blt	0xaf84 = FD_INT_GetHandler+0x24
af68: 57e07a18                 sub.f	0,%r0,24
af6c: 2000028a                 bge	0xaf84 = FD_INT_GetHandler+0x24
af70: 80207e02                 asl	%r1,%r0,2
af74: 4000fc00 000197b8        add	%r0,%r1,0x1_97b8		; DriverFuncTable
af7c: 08000000                 ld	%r0,[%r0]
af80: 20000080                 b	0xaf88 = FD_INT_GetHandler+0x28
af84: 50000000                 sub	%r0,%r0,%r0
af88: 380f8000                 j	[%blink]
FH_ARC_set_AuxStatus:
af8c: 121f8000                 sr	%r0,[%status]
af90: 380f8000                 j	[%blink]
FH_ARC_get_AuxStatus:
af94: 081fa000                 lr	%r0,[%status]
af98: 380f8000                 j	[%blink]
FH_ARC_set_AuxSemaphore:
af9c: 121f8001                 sr	%r0,[%semaphore]
afa0: 380f8000                 j	[%blink]
FH_ARC_get_AuxSemaphore:
afa4: 081fa001                 lr	%r0,[%semaphore]
afa8: 380f8000                 j	[%blink]
FH_ARC_set_AuxLoopStart:
afac: 121f8002                 sr	%r0,[%lp_start]
afb0: 380f8000                 j	[%blink]
FH_ARC_get_AuxLoopStart:
afb4: 081fa002                 lr	%r0,[%lp_start]
afb8: 380f8000                 j	[%blink]
FH_ARC_set_AuxLoopStop:
afbc: 121f8003                 sr	%r0,[%lp_end]
afc0: 380f8000                 j	[%blink]
FH_ARC_get_AuxLoopStop:
afc4: 081fa003                 lr	%r0,[%lp_end]
afc8: 380f8000                 j	[%blink]
FH_ARC_get_AuxIdentity:
afcc: 081fa004                 lr	%r0,[%identity]
afd0: 380f8000                 j	[%blink]
FH_ARC_get_AuxDebug:
afd4: 081fa005                 lr	%r0,[%debug]
afd8: 380f8000                 j	[%blink]
FH_ARC_set_AuxInvalidateICache:
afdc: 121f8010                 sr	%r0,[0x10]
afe0: 380f8000                 j	[%blink]
FH_ARC_get_AuxInvalidateICache:
afe4: 081fa010                 lr	%r0,[0x10]
afe8: 380f8000                 j	[%blink]
FH_ARC_set_AuxCacheControl:
afec: 121f8011                 sr	%r0,[0x11]
aff0: 380f8000                 j	[%blink]
FH_ARC_get_AuxCacheControl:
aff4: 081fa011                 lr	%r0,[0x11]
aff8: 380f8000                 j	[%blink]
FH_ARC_set_AuxMulHigh:
affc: 603f7c00 0001981c        mov	%r1,0x1_981c		; m_arc_auxmulhigh
b004: 10008000                 st	%r0,[%r1]
b008: 121f8012                 sr	%r0,[%mulhi]
b00c: 380f8000                 j	[%blink]
FH_ARC_getm_AuxMulHigh:
b010: 601f7c00 0001981c        mov	%r0,0x1_981c		; m_arc_auxmulhigh
b018: 08000000                 ld	%r0,[%r0]
b01c: 380f8000                 j	[%blink]
FH_ARC_set_AuxTimer1:
b020: 121f8021                 sr	%r0,[0x21]
b024: 380f8000                 j	[%blink]
FH_ARC_get_AuxTimer1:
b028: 081fa021                 lr	%r0,[0x21]
b02c: 380f8000                 j	[%blink]
FH_ARC_set_AuxTimer1_M:
b030: 538e7e04                 sub	%sp,%sp,4
b034: 083fa021                 lr	%r1,[0x21]
b038: 100e0200                 st	%r1,[%sp]
b03c: 108e0000                 stw	%r0,[%sp]
b040: 080e0000                 ld	%r0,[%sp]
b044: 121f8021                 sr	%r0,[0x21]
b048: 438e7e04                 add	%sp,%sp,4
b04c: 380f8000                 j	[%blink]
FH_ARC_get_AuxTimer1_M:
b050: 538e7e04                 sub	%sp,%sp,4
b054: 081fa021                 lr	%r0,[0x21]
b058: 100e0000                 st	%r0,[%sp]
b05c: 080e0800                 ldw	%r0,[%sp]
b060: 438e7e04                 add	%sp,%sp,4
b064: 380f8000                 j	[%blink]
FH_ARC_set_AuxTimer1_N:
b068: 538e7e04                 sub	%sp,%sp,4
b06c: 083fa021                 lr	%r1,[0x21]
b070: 100e0200                 st	%r1,[%sp]
b074: 108e0002                 stw	%r0,[%sp,2]
b078: 080e0000                 ld	%r0,[%sp]
b07c: 121f8021                 sr	%r0,[0x21]
b080: 438e7e04                 add	%sp,%sp,4
b084: 380f8000                 j	[%blink]
FH_ARC_get_AuxTimer1_N:
b088: 538e7e04                 sub	%sp,%sp,4
b08c: 081fa021                 lr	%r0,[0x21]
b090: 100e0000                 st	%r0,[%sp]
b094: 080e0802                 ldw	%r0,[%sp,2]
b098: 438e7e04                 add	%sp,%sp,4
b09c: 380f8000                 j	[%blink]
FH_ARC_set_AuxTimer2:
b0a0: 121f8022                 sr	%r0,[0x22]
b0a4: 380f8000                 j	[%blink]
FH_ARC_get_AuxTimer2:
b0a8: 081fa022                 lr	%r0,[0x22]
b0ac: 380f8000                 j	[%blink]
FH_ARC_set_AuxTimer2_M:
b0b0: 538e7e04                 sub	%sp,%sp,4
b0b4: 083fa022                 lr	%r1,[0x22]
b0b8: 100e0200                 st	%r1,[%sp]
b0bc: 108e0000                 stw	%r0,[%sp]
b0c0: 080e0000                 ld	%r0,[%sp]
b0c4: 121f8022                 sr	%r0,[0x22]
b0c8: 438e7e04                 add	%sp,%sp,4
b0cc: 380f8000                 j	[%blink]
FH_ARC_get_AuxTimer2_M:
b0d0: 538e7e04                 sub	%sp,%sp,4
b0d4: 081fa022                 lr	%r0,[0x22]
b0d8: 100e0000                 st	%r0,[%sp]
b0dc: 080e0800                 ldw	%r0,[%sp]
b0e0: 438e7e04                 add	%sp,%sp,4
b0e4: 380f8000                 j	[%blink]
FH_ARC_set_AuxTimer2_N:
b0e8: 538e7e04                 sub	%sp,%sp,4
b0ec: 083fa022                 lr	%r1,[0x22]
b0f0: 100e0200                 st	%r1,[%sp]
b0f4: 108e0002                 stw	%r0,[%sp,2]
b0f8: 080e0000                 ld	%r0,[%sp]
b0fc: 121f8022                 sr	%r0,[0x22]
b100: 438e7e04                 add	%sp,%sp,4
b104: 380f8000                 j	[%blink]
FH_ARC_get_AuxTimer2_N:
b108: 538e7e04                 sub	%sp,%sp,4
b10c: 081fa022                 lr	%r0,[0x22]
b110: 100e0000                 st	%r0,[%sp]
b114: 080e0802                 ldw	%r0,[%sp,2]
b118: 438e7e04                 add	%sp,%sp,4
b11c: 380f8000                 j	[%blink]
FH_ARC_set_AuxTimeStampTimer:
b120: 121f8023                 sr	%r0,[0x23]
b124: 380f8000                 j	[%blink]
FH_ARC_get_AuxTimeStampTimer:
b128: 081fa023                 lr	%r0,[0x23]
b12c: 380f8000                 j	[%blink]
FH_ARC_set_AuxInvalidateDCache:
b130: 121f8047                 sr	%r0,[0x47]
b134: 380f8000                 j	[%blink]
FH_ARC_get_AuxInvalidateDCache:
b138: 081fa047                 lr	%r0,[0x47]
b13c: 380f8000                 j	[%blink]
FH_ARC_set_AuxIRQLevel:
b140: 121f0000 00000200        sr	%r0,[0x200]		; 0x200 = FEXP_MAX+0x101
b148: 380f8000                 j	[%blink]
FH_ARC_get_AuxIRQLevel:
b14c: 081f2000 00000200        lr	%r0,[0x200]		; 0x200 = FEXP_MAX+0x101
b154: 380f8000                 j	[%blink]
FH_ARC_set_AuxIRQHint:
b158: 603f7c00 00019820        mov	%r1,0x1_9820		; m_arc_auxirqhint
b160: 10008000                 st	%r0,[%r1]
b164: 121f0000 00000201        sr	%r0,[0x201]		; 0x201 = FEXP_MAX+0x102
b16c: 380f8000                 j	[%blink]
FH_ARC_getm_AuxIRQHint:
b170: 601f7c00 00019820        mov	%r0,0x1_9820		; m_arc_auxirqhint
b178: 08000000                 ld	%r0,[%r0]
b17c: 380f8000                 j	[%blink]
FH_ARC_set_AuxIRQMask:
b180: 121f0000 00000202        sr	%r0,[0x202]		; 0x202 = FEXP_MAX+0x103
b188: 380f8000                 j	[%blink]
FH_ARC_get_AuxIRQMask:
b18c: 081f2000 00000202        lr	%r0,[0x202]		; 0x202 = FEXP_MAX+0x103
b194: 380f8000                 j	[%blink]
FH_ARC_set_AuxIRQBaseAddress:
b198: 121f0000 00000203        sr	%r0,[0x203]		; 0x203 = FEXP_MAX+0x104
b1a0: 380f8000                 j	[%blink]
FH_ARC_get_AuxIRQBaseAddress:
b1a4: 081f2000 00000203        lr	%r0,[0x203]		; 0x203 = FEXP_MAX+0x104
b1ac: 380f8000                 j	[%blink]
FH_ARC_set_IRQInvert:
b1b0: 603f7c00 0a060000        mov	%r1,0xa06_0000		; 0xa06_0000 = .regmask_hi+0x60000
b1b8: 14008028                 st.di	%r0,[%r1,40]
b1bc: 380f8000                 j	[%blink]
FH_ARC_get_IRQInvert:
b1c0: 601f7c00 0a060000        mov	%r0,0xa06_0000		; 0xa06_0000 = .regmask_hi+0x60000
b1c8: 08004028                 ld.di	%r0,[%r0,40]
b1cc: 380f8000                 j	[%blink]
FH_ARC_set_IRQEdge:
b1d0: 603f7c00 0a060000        mov	%r1,0xa06_0000		; 0xa06_0000 = .regmask_hi+0x60000
b1d8: 1400802c                 st.di	%r0,[%r1,44]
b1dc: 380f8000                 j	[%blink]
FH_ARC_get_IRQEdge:
b1e0: 601f7c00 0a060000        mov	%r0,0xa06_0000		; 0xa06_0000 = .regmask_hi+0x60000
b1e8: 0800402c                 ld.di	%r0,[%r0,44]
b1ec: 380f8000                 j	[%blink]
FH_ARC_set_IRQClear:
b1f0: 603f7c00 0a060000        mov	%r1,0xa06_0000		; 0xa06_0000 = .regmask_hi+0x60000
b1f8: 14008030                 st.di	%r0,[%r1,48]
b1fc: 380f8000                 j	[%blink]
FH_ARC_get_IRQClear:
b200: 601f7c00 0a060000        mov	%r0,0xa06_0000		; 0xa06_0000 = .regmask_hi+0x60000
b208: 08004030                 ld.di	%r0,[%r0,48]
b20c: 380f8000                 j	[%blink]
FH_ARC_set_IRQEnable:
b210: 603f7c00 0a060000        mov	%r1,0xa06_0000		; 0xa06_0000 = .regmask_hi+0x60000
b218: 14008034                 st.di	%r0,[%r1,52]
b21c: 380f8000                 j	[%blink]
FH_ARC_get_IRQEnable:
b220: 601f7c00 0a060000        mov	%r0,0xa06_0000		; 0xa06_0000 = .regmask_hi+0x60000
b228: 08004034                 ld.di	%r0,[%r0,52]
b22c: 380f8000                 j	[%blink]
FH_ARC_set_IRQCombineEnable:
b230: 603f7c00 00019824        mov	%r1,0x1_9824		; m_arc_irqcombineenable
b238: 10008000                 st	%r0,[%r1]
b23c: 603f7c00 0a060000        mov	%r1,0xa06_0000		; 0xa06_0000 = .regmask_hi+0x60000
b244: 14008038                 st.di	%r0,[%r1,56]
b248: 380f8000                 j	[%blink]
FH_ARC_getm_IRQCombineEnable:
b24c: 601f7c00 00019824        mov	%r0,0x1_9824		; m_arc_irqcombineenable
b254: 08000000                 ld	%r0,[%r0]
b258: 380f8000                 j	[%blink]
FH_ARC_get_IRQStatus:
b25c: 601f7c00 0a060000        mov	%r0,0xa06_0000		; 0xa06_0000 = .regmask_hi+0x60000
b264: 0800403c                 ld.di	%r0,[%r0,60]
b268: 380f8000                 j	[%blink]
FH_ARC_get_IRQInputValue:
b26c: 601f7c00 0a060000        mov	%r0,0xa06_0000		; 0xa06_0000 = .regmask_hi+0x60000
b274: 08004040                 ld.di	%r0,[%r0,64]
b278: 380f8000                 j	[%blink]
FH_ARC_set_IRQ24:
b27c: 603f7c00 0a060000        mov	%r1,0xa06_0000		; 0xa06_0000 = .regmask_hi+0x60000
b284: 14008060                 st.di	%r0,[%r1,96]
b288: 380f8000                 j	[%blink]
FH_ARC_get_IRQ24:
b28c: 601f7c00 0a060000        mov	%r0,0xa06_0000		; 0xa06_0000 = .regmask_hi+0x60000
b294: 08004060                 ld.di	%r0,[%r0,96]
b298: 380f8000                 j	[%blink]
FH_ARC_get_ChipID:
b29c: 601f7c00 0a060000        mov	%r0,0xa06_0000		; 0xa06_0000 = .regmask_hi+0x60000
b2a4: 08004020                 ld.di	%r0,[%r0,32]
b2a8: 380f8000                 j	[%blink]
FH_ARC_set_DebugPortDisable:
b2ac: 603f7c00 00019828        mov	%r1,0x1_9828		; m_arc_debugportdisable
b2b4: 10008000                 st	%r0,[%r1]
b2b8: 603f7c00 0a060000        mov	%r1,0xa06_0000		; 0xa06_0000 = .regmask_hi+0x60000
b2c0: 1400806c                 st.di	%r0,[%r1,108]
b2c4: 380f8000                 j	[%blink]
FH_ARC_getm_DebugPortDisable:
b2c8: 601f7c00 00019828        mov	%r0,0x1_9828		; m_arc_debugportdisable
b2d0: 08000000                 ld	%r0,[%r0]
b2d4: 380f8000                 j	[%blink]
FH_ARC_set_CompareStream:
b2d8: 603f7c00 0001982c        mov	%r1,0x1_982c		; m_arc_comparestream
b2e0: 10008000                 st	%r0,[%r1]
b2e4: 603f7c00 0a060000        mov	%r1,0xa06_0000		; 0xa06_0000 = .regmask_hi+0x60000
b2ec: 14008080                 st.di	%r0,[%r1,128]
b2f0: 380f8000                 j	[%blink]
FH_ARC_getm_CompareStream:
b2f4: 601f7c00 0001982c        mov	%r0,0x1_982c		; m_arc_comparestream
b2fc: 08000000                 ld	%r0,[%r0]
b300: 380f8000                 j	[%blink]
FH_ARC_set_SearchCompare:
b304: 603f7c00 00019830        mov	%r1,0x1_9830		; m_arc_searchcompare
b30c: 10008000                 st	%r0,[%r1]
b310: 603f7c00 0a060000        mov	%r1,0xa06_0000		; 0xa06_0000 = .regmask_hi+0x60000
b318: 14008084                 st.di	%r0,[%r1,132]
b31c: 380f8000                 j	[%blink]
FH_ARC_getm_SearchCompare:
b320: 601f7c00 00019830        mov	%r0,0x1_9830		; m_arc_searchcompare
b328: 08000000                 ld	%r0,[%r0]
b32c: 380f8000                 j	[%blink]
FH_ARC_set_MaskCompare:
b330: 603f7c00 00019834        mov	%r1,0x1_9834		; m_arc_maskcompare
b338: 10008000                 st	%r0,[%r1]
b33c: 603f7c00 0a060000        mov	%r1,0xa06_0000		; 0xa06_0000 = .regmask_hi+0x60000
b344: 14008088                 st.di	%r0,[%r1,136]
b348: 380f8000                 j	[%blink]
FH_ARC_getm_MaskCompare:
b34c: 601f7c00 00019834        mov	%r0,0x1_9834		; m_arc_maskcompare
b354: 08000000                 ld	%r0,[%r0]
b358: 380f8000                 j	[%blink]
FH_ARC_set_TimerConfig:
b35c: 603f7c00 0a060100        mov	%r1,0xa06_0100		; 0xa06_0100 = .regmask_hi+0x60100
b364: 14008000                 st.di	%r0,[%r1]
b368: 380f8000                 j	[%blink]
FH_ARC_get_TimerValue:
b36c: 601f7c00 0a060100        mov	%r0,0xa06_0100		; 0xa06_0100 = .regmask_hi+0x60100
b374: 08004004                 ld.di	%r0,[%r0,4]
b378: 380f8000                 j	[%blink]
FH_ARC_set_TimerPrescaler:
b37c: 603f7c00 0a060100        mov	%r1,0xa06_0100		; 0xa06_0100 = .regmask_hi+0x60100
b384: 1400800c                 st.di	%r0,[%r1,12]
b388: 380f8000                 j	[%blink]
FH_ARC_init:
b38c: 380f8000                 j	[%blink]
FH_UART_set_Data:
b390: 603f7c00 08340400        mov	%r1,0x834_0400		; 0x834_0400 = .regmask_hi+0x340400
b398: 14008000                 st.di	%r0,[%r1]
b39c: 380f8000                 j	[%blink]
FH_UART_get_Data:
b3a0: 601f7c00 08340400        mov	%r0,0x834_0400		; 0x834_0400 = .regmask_hi+0x340400
b3a8: 08004000                 ld.di	%r0,[%r0]
b3ac: 380f8000                 j	[%blink]
FH_UART_set_LineControl:
b3b0: 603f7c00 08340400        mov	%r1,0x834_0400		; 0x834_0400 = .regmask_hi+0x340400
b3b8: 14008004                 st.di	%r0,[%r1,4]
b3bc: 380f8000                 j	[%blink]
FH_UART_get_LineControl:
b3c0: 601f7c00 08340400        mov	%r0,0x834_0400		; 0x834_0400 = .regmask_hi+0x340400
b3c8: 08004004                 ld.di	%r0,[%r0,4]
b3cc: 380f8000                 j	[%blink]
FH_UART_set_LineControl_STOP_BITS:
b3d0: 605f7c00 08340400        mov	%r2,0x834_0400		; 0x834_0400 = .regmask_hi+0x340400
b3d8: 08214004                 ld.di	%r1,[%r2,4]
b3dc: 60007e01                 and	%r0,%r0,1
b3e0: 6020fffe                 and	%r1,%r1,-2
b3e4: 68208000                 or	%r1,%r1,%r0
b3e8: 14010204                 st.di	%r1,[%r2,4]
b3ec: 380f8000                 j	[%blink]
FH_UART_get_LineControl_STOP_BITS:
b3f0: 601f7c00 08340400        mov	%r0,0x834_0400		; 0x834_0400 = .regmask_hi+0x340400
b3f8: 08004404                 ldb.di	%r0,[%r0,4]
b3fc: 60007e01                 and	%r0,%r0,1
b400: 18000e00                 extb	%r0,%r0
b404: 380f8000                 j	[%blink]
FH_UART_set_LineControl_POLARITY:
b408: 605f7c00 08340400        mov	%r2,0x834_0400		; 0x834_0400 = .regmask_hi+0x340400
b410: 08214004                 ld.di	%r1,[%r2,4]
b414: 60007e01                 and	%r0,%r0,1
b418: 40000000                 asl	%r0,%r0
b41c: 6020fffd                 and	%r1,%r1,-3
b420: 68208000                 or	%r1,%r1,%r0
b424: 14010204                 st.di	%r1,[%r2,4]
b428: 380f8000                 j	[%blink]
FH_UART_get_LineControl_POLARITY:
b42c: 601f7c00 08340400        mov	%r0,0x834_0400		; 0x834_0400 = .regmask_hi+0x340400
b434: 08004404                 ldb.di	%r0,[%r0,4]
b438: 18000400                 lsr	%r0,%r0
b43c: 60007e01                 and	%r0,%r0,1
b440: 18000e00                 extb	%r0,%r0
b444: 380f8000                 j	[%blink]
FH_UART_set_LineControl_PARITY:
b448: 605f7c00 08340400        mov	%r2,0x834_0400		; 0x834_0400 = .regmask_hi+0x340400
b450: 08214004                 ld.di	%r1,[%r2,4]
b454: 60007e03                 and	%r0,%r0,3
b458: 80007e02                 asl	%r0,%r0,2
b45c: 6020fff3                 and	%r1,%r1,-13
b460: 68208000                 or	%r1,%r1,%r0
b464: 14010204                 st.di	%r1,[%r2,4]
b468: 380f8000                 j	[%blink]
FH_UART_get_LineControl_PARITY:
b46c: 601f7c00 08340400        mov	%r0,0x834_0400		; 0x834_0400 = .regmask_hi+0x340400
b474: 08004404                 ldb.di	%r0,[%r0,4]
b478: 88007e02                 lsr	%r0,%r0,2
b47c: 60007e03                 and	%r0,%r0,3
b480: 18000e00                 extb	%r0,%r0
b484: 380f8000                 j	[%blink]
FH_UART_set_LineControl_ORDER:
b488: 605f7c00 08340400        mov	%r2,0x834_0400		; 0x834_0400 = .regmask_hi+0x340400
b490: 08214004                 ld.di	%r1,[%r2,4]
b494: 60007e01                 and	%r0,%r0,1
b498: 80007e04                 asl	%r0,%r0,4
b49c: 6020ffef                 and	%r1,%r1,-17
b4a0: 68208000                 or	%r1,%r1,%r0
b4a4: 14010204                 st.di	%r1,[%r2,4]
b4a8: 380f8000                 j	[%blink]
FH_UART_get_LineControl_ORDER:
b4ac: 601f7c00 08340400        mov	%r0,0x834_0400		; 0x834_0400 = .regmask_hi+0x340400
b4b4: 08004404                 ldb.di	%r0,[%r0,4]
b4b8: 88007e04                 lsr	%r0,%r0,4
b4bc: 60007e01                 and	%r0,%r0,1
b4c0: 18000e00                 extb	%r0,%r0
b4c4: 380f8000                 j	[%blink]
FH_UART_set_LineControl_LENGTH:
b4c8: 605f7c00 08340400        mov	%r2,0x834_0400		; 0x834_0400 = .regmask_hi+0x340400
b4d0: 08214004                 ld.di	%r1,[%r2,4]
b4d4: 60007e07                 and	%r0,%r0,7
b4d8: 80007e05                 asl	%r0,%r0,5
b4dc: 6020ff1f                 and	%r1,%r1,-225
b4e0: 68208000                 or	%r1,%r1,%r0
b4e4: 14010204                 st.di	%r1,[%r2,4]
b4e8: 380f8000                 j	[%blink]
FH_UART_get_LineControl_LENGTH:
b4ec: 601f7c00 08340400        mov	%r0,0x834_0400		; 0x834_0400 = .regmask_hi+0x340400
b4f4: 08004404                 ldb.di	%r0,[%r0,4]
b4f8: 88007e05                 lsr	%r0,%r0,5
b4fc: 18000e00                 extb	%r0,%r0
b500: 380f8000                 j	[%blink]
FH_UART_set_Control:
b504: 603f7c00 08340400        mov	%r1,0x834_0400		; 0x834_0400 = .regmask_hi+0x340400
b50c: 14008008                 st.di	%r0,[%r1,8]
b510: 380f8000                 j	[%blink]
FH_UART_get_Control:
b514: 601f7c00 08340400        mov	%r0,0x834_0400		; 0x834_0400 = .regmask_hi+0x340400
b51c: 08004008                 ld.di	%r0,[%r0,8]
b520: 380f8000                 j	[%blink]
FH_UART_set_Control_ENABLE_TX:
b524: 605f7c00 08340400        mov	%r2,0x834_0400		; 0x834_0400 = .regmask_hi+0x340400
b52c: 08214008                 ld.di	%r1,[%r2,8]
b530: 60007e01                 and	%r0,%r0,1
b534: 6020fffe                 and	%r1,%r1,-2
b538: 68208000                 or	%r1,%r1,%r0
b53c: 14010208                 st.di	%r1,[%r2,8]
b540: 380f8000                 j	[%blink]
FH_UART_get_Control_ENABLE_TX:
b544: 601f7c00 08340400        mov	%r0,0x834_0400		; 0x834_0400 = .regmask_hi+0x340400
b54c: 08004408                 ldb.di	%r0,[%r0,8]
b550: 60007e01                 and	%r0,%r0,1
b554: 18000e00                 extb	%r0,%r0
b558: 380f8000                 j	[%blink]
FH_UART_set_Control_ENABLE_RX:
b55c: 605f7c00 08340400        mov	%r2,0x834_0400		; 0x834_0400 = .regmask_hi+0x340400
b564: 08214008                 ld.di	%r1,[%r2,8]
b568: 60007e01                 and	%r0,%r0,1
b56c: 40000000                 asl	%r0,%r0
b570: 6020fffd                 and	%r1,%r1,-3
b574: 68208000                 or	%r1,%r1,%r0
b578: 14010208                 st.di	%r1,[%r2,8]
b57c: 380f8000                 j	[%blink]
FH_UART_get_Control_ENABLE_RX:
b580: 601f7c00 08340400        mov	%r0,0x834_0400		; 0x834_0400 = .regmask_hi+0x340400
b588: 08004408                 ldb.di	%r0,[%r0,8]
b58c: 18000400                 lsr	%r0,%r0
b590: 60007e01                 and	%r0,%r0,1
b594: 18000e00                 extb	%r0,%r0
b598: 380f8000                 j	[%blink]
FH_UART_set_Control_CLK_EDGE_POL:
b59c: 605f7c00 08340400        mov	%r2,0x834_0400		; 0x834_0400 = .regmask_hi+0x340400
b5a4: 08214008                 ld.di	%r1,[%r2,8]
b5a8: 60007e01                 and	%r0,%r0,1
b5ac: 80007e02                 asl	%r0,%r0,2
b5b0: 6020fffb                 and	%r1,%r1,-5
b5b4: 68208000                 or	%r1,%r1,%r0
b5b8: 14010208                 st.di	%r1,[%r2,8]
b5bc: 380f8000                 j	[%blink]
FH_UART_get_Control_CLK_EDGE_POL:
b5c0: 601f7c00 08340400        mov	%r0,0x834_0400		; 0x834_0400 = .regmask_hi+0x340400
b5c8: 08004408                 ldb.di	%r0,[%r0,8]
b5cc: 88007e02                 lsr	%r0,%r0,2
b5d0: 60007e01                 and	%r0,%r0,1
b5d4: 18000e00                 extb	%r0,%r0
b5d8: 380f8000                 j	[%blink]
FH_UART_set_Delta1:
b5dc: 603f7c00 08340400        mov	%r1,0x834_0400		; 0x834_0400 = .regmask_hi+0x340400
b5e4: 1400800c                 st.di	%r0,[%r1,12]
b5e8: 380f8000                 j	[%blink]
FH_UART_get_Delta1:
b5ec: 601f7c00 08340400        mov	%r0,0x834_0400		; 0x834_0400 = .regmask_hi+0x340400
b5f4: 0800400c                 ld.di	%r0,[%r0,12]
b5f8: 380f8000                 j	[%blink]
FH_UART_set_DiffDelta:
b5fc: 603f7c00 08340400        mov	%r1,0x834_0400		; 0x834_0400 = .regmask_hi+0x340400
b604: 14008010                 st.di	%r0,[%r1,16]
b608: 380f8000                 j	[%blink]
FH_UART_get_DiffDelta:
b60c: 601f7c00 08340400        mov	%r0,0x834_0400		; 0x834_0400 = .regmask_hi+0x340400
b614: 08004010                 ld.di	%r0,[%r0,16]
b618: 380f8000                 j	[%blink]
FH_UART_set_ClockBound:
b61c: 603f7c00 08340400        mov	%r1,0x834_0400		; 0x834_0400 = .regmask_hi+0x340400
b624: 14008014                 st.di	%r0,[%r1,20]
b628: 380f8000                 j	[%blink]
FH_UART_get_ClockBound:
b62c: 601f7c00 08340400        mov	%r0,0x834_0400		; 0x834_0400 = .regmask_hi+0x340400
b634: 08004014                 ld.di	%r0,[%r0,20]
b638: 380f8000                 j	[%blink]
FH_UART_get_IRQStatus:
b63c: 601f7c00 08340400        mov	%r0,0x834_0400		; 0x834_0400 = .regmask_hi+0x340400
b644: 08004024                 ld.di	%r0,[%r0,36]
b648: 380f8000                 j	[%blink]
FH_UART_get_IRQStatus_RX_PARITY_IRQ:
b64c: 601f7c00 08340400        mov	%r0,0x834_0400		; 0x834_0400 = .regmask_hi+0x340400
b654: 08004424                 ldb.di	%r0,[%r0,36]
b658: 60007e01                 and	%r0,%r0,1
b65c: 18000e00                 extb	%r0,%r0
b660: 380f8000                 j	[%blink]
FH_UART_get_IRQStatus_RX_IRQ:
b664: 601f7c00 08340400        mov	%r0,0x834_0400		; 0x834_0400 = .regmask_hi+0x340400
b66c: 08004424                 ldb.di	%r0,[%r0,36]
b670: 18000400                 lsr	%r0,%r0
b674: 60007e01                 and	%r0,%r0,1
b678: 18000e00                 extb	%r0,%r0
b67c: 380f8000                 j	[%blink]
FH_UART_set_IRQClear:
b680: 603f7c00 00019838        mov	%r1,0x1_9838		; m_uart_irqclear
b688: 10008000                 st	%r0,[%r1]
b68c: 603f7c00 08340400        mov	%r1,0x834_0400		; 0x834_0400 = .regmask_hi+0x340400
b694: 14008028                 st.di	%r0,[%r1,40]
b698: 380f8000                 j	[%blink]
FH_UART_getm_IRQClear:
b69c: 601f7c00 00019838        mov	%r0,0x1_9838		; m_uart_irqclear
b6a4: 08000000                 ld	%r0,[%r0]
b6a8: 380f8000                 j	[%blink]
FH_UART_set_IRQClear_RX_PARITY_IRQ:
b6ac: 60407e01                 and	%r2,%r0,1
b6b0: 603f7c00 00019838        mov	%r1,0x1_9838		; m_uart_irqclear
b6b8: 08008000                 ld	%r0,[%r1]
b6bc: 60007ffe                 and	%r0,%r0,-2
b6c0: 68000400                 or	%r0,%r0,%r2
b6c4: 10008000                 st	%r0,[%r1]
b6c8: 603f7c00 08340400        mov	%r1,0x834_0400		; 0x834_0400 = .regmask_hi+0x340400
b6d0: 14008028                 st.di	%r0,[%r1,40]
b6d4: 380f8000                 j	[%blink]
FH_UART_getm_IRQClear_RX_PARITY_IRQ:
b6d8: 601f7c00 00019838        mov	%r0,0x1_9838		; m_uart_irqclear
b6e0: 08000000                 ld	%r0,[%r0]
b6e4: 60007e01                 and	%r0,%r0,1
b6e8: 18000e00                 extb	%r0,%r0
b6ec: 380f8000                 j	[%blink]
FH_UART_set_IRQClear_RX_IRQ:
b6f0: 60007e01                 and	%r0,%r0,1
b6f4: 40400000                 asl	%r2,%r0
b6f8: 603f7c00 00019838        mov	%r1,0x1_9838		; m_uart_irqclear
b700: 08008000                 ld	%r0,[%r1]
b704: 60007ffd                 and	%r0,%r0,-3
b708: 68000400                 or	%r0,%r0,%r2
b70c: 10008000                 st	%r0,[%r1]
b710: 603f7c00 08340400        mov	%r1,0x834_0400		; 0x834_0400 = .regmask_hi+0x340400
b718: 14008028                 st.di	%r0,[%r1,40]
b71c: 380f8000                 j	[%blink]
FH_UART_getm_IRQClear_RX_IRQ:
b720: 601f7c00 00019838        mov	%r0,0x1_9838		; m_uart_irqclear
b728: 08000000                 ld	%r0,[%r0]
b72c: 18000400                 lsr	%r0,%r0
b730: 60007e01                 and	%r0,%r0,1
b734: 18000e00                 extb	%r0,%r0
b738: 380f8000                 j	[%blink]
FH_UART_set_IRQMask:
b73c: 603f7c00 08340400        mov	%r1,0x834_0400		; 0x834_0400 = .regmask_hi+0x340400
b744: 1400802c                 st.di	%r0,[%r1,44]
b748: 380f8000                 j	[%blink]
FH_UART_get_IRQMask:
b74c: 601f7c00 08340400        mov	%r0,0x834_0400		; 0x834_0400 = .regmask_hi+0x340400
b754: 0800402c                 ld.di	%r0,[%r0,44]
b758: 380f8000                 j	[%blink]
FH_UART_set_IRQMask_RX_PARITY_IRQ:
b75c: 605f7c00 08340400        mov	%r2,0x834_0400		; 0x834_0400 = .regmask_hi+0x340400
b764: 0821402c                 ld.di	%r1,[%r2,44]
b768: 60007e01                 and	%r0,%r0,1
b76c: 6020fffe                 and	%r1,%r1,-2
b770: 68208000                 or	%r1,%r1,%r0
b774: 1401022c                 st.di	%r1,[%r2,44]
b778: 380f8000                 j	[%blink]
FH_UART_get_IRQMask_RX_PARITY_IRQ:
b77c: 601f7c00 08340400        mov	%r0,0x834_0400		; 0x834_0400 = .regmask_hi+0x340400
b784: 0800442c                 ldb.di	%r0,[%r0,44]
b788: 60007e01                 and	%r0,%r0,1
b78c: 18000e00                 extb	%r0,%r0
b790: 380f8000                 j	[%blink]
FH_UART_set_IRQMask_RX_IRQ:
b794: 605f7c00 08340400        mov	%r2,0x834_0400		; 0x834_0400 = .regmask_hi+0x340400
b79c: 0821402c                 ld.di	%r1,[%r2,44]
b7a0: 60007e01                 and	%r0,%r0,1
b7a4: 40000000                 asl	%r0,%r0
b7a8: 6020fffd                 and	%r1,%r1,-3
b7ac: 68208000                 or	%r1,%r1,%r0
b7b0: 1401022c                 st.di	%r1,[%r2,44]
b7b4: 380f8000                 j	[%blink]
FH_UART_get_IRQMask_RX_IRQ:
b7b8: 601f7c00 08340400        mov	%r0,0x834_0400		; 0x834_0400 = .regmask_hi+0x340400
b7c0: 0800442c                 ldb.di	%r0,[%r0,44]
b7c4: 18000400                 lsr	%r0,%r0
b7c8: 60007e01                 and	%r0,%r0,1
b7cc: 18000e00                 extb	%r0,%r0
b7d0: 380f8000                 j	[%blink]
FH_UART_get_TXRXControl:
b7d4: 601f7c00 08340400        mov	%r0,0x834_0400		; 0x834_0400 = .regmask_hi+0x340400
b7dc: 08004030                 ld.di	%r0,[%r0,48]
b7e0: 380f8000                 j	[%blink]
FH_UART_get_TXRXControl_RX_BUSY:
b7e4: 601f7c00 08340400        mov	%r0,0x834_0400		; 0x834_0400 = .regmask_hi+0x340400
b7ec: 08004430                 ldb.di	%r0,[%r0,48]
b7f0: 60007e01                 and	%r0,%r0,1
b7f4: 18000e00                 extb	%r0,%r0
b7f8: 380f8000                 j	[%blink]
FH_UART_get_TXRXControl_RX_EMPTY:
b7fc: 601f7c00 08340400        mov	%r0,0x834_0400		; 0x834_0400 = .regmask_hi+0x340400
b804: 08004430                 ldb.di	%r0,[%r0,48]
b808: 18000400                 lsr	%r0,%r0
b80c: 60007e01                 and	%r0,%r0,1
b810: 18000e00                 extb	%r0,%r0
b814: 380f8000                 j	[%blink]
FH_UART_get_TXRXControl_RX_FULL:
b818: 601f7c00 08340400        mov	%r0,0x834_0400		; 0x834_0400 = .regmask_hi+0x340400
b820: 08004430                 ldb.di	%r0,[%r0,48]
b824: 88007e02                 lsr	%r0,%r0,2
b828: 60007e01                 and	%r0,%r0,1
b82c: 18000e00                 extb	%r0,%r0
b830: 380f8000                 j	[%blink]
FH_UART_get_TXRXControl_RX_LEVEL:
b834: 601f7c00 08340400        mov	%r0,0x834_0400		; 0x834_0400 = .regmask_hi+0x340400
b83c: 08004430                 ldb.di	%r0,[%r0,48]
b840: 88007e03                 lsr	%r0,%r0,3
b844: 60007e0f                 and	%r0,%r0,15
b848: 18000e00                 extb	%r0,%r0
b84c: 380f8000                 j	[%blink]
FH_UART_get_TXRXControl_TX_BUSY:
b850: 601f7c00 08340400        mov	%r0,0x834_0400		; 0x834_0400 = .regmask_hi+0x340400
b858: 08004430                 ldb.di	%r0,[%r0,48]
b85c: 88007e07                 lsr	%r0,%r0,7
b860: 18000e00                 extb	%r0,%r0
b864: 380f8000                 j	[%blink]
FH_UART_get_TXRXControl_TX_EMPTY:
b868: 601f7c00 08340400        mov	%r0,0x834_0400		; 0x834_0400 = .regmask_hi+0x340400
b870: 08004830                 ldw.di	%r0,[%r0,48]
b874: 88007e08                 lsr	%r0,%r0,8
b878: 60007e01                 and	%r0,%r0,1
b87c: 18000e00                 extb	%r0,%r0
b880: 380f8000                 j	[%blink]
FH_UART_get_TXRXControl_TX_FULL:
b884: 601f7c00 08340400        mov	%r0,0x834_0400		; 0x834_0400 = .regmask_hi+0x340400
b88c: 08004830                 ldw.di	%r0,[%r0,48]
b890: 88007e09                 lsr	%r0,%r0,9
b894: 60007e01                 and	%r0,%r0,1
b898: 18000e00                 extb	%r0,%r0
b89c: 380f8000                 j	[%blink]
FH_UART_get_TXRXControl_TX_LEVEL:
b8a0: 601f7c00 08340400        mov	%r0,0x834_0400		; 0x834_0400 = .regmask_hi+0x340400
b8a8: 08004830                 ldw.di	%r0,[%r0,48]
b8ac: 88007e0a                 lsr	%r0,%r0,10
b8b0: 60007e0f                 and	%r0,%r0,15
b8b4: 18000e00                 extb	%r0,%r0
b8b8: 380f8000                 j	[%blink]
FH_UART_init:
b8bc: 50208200                 sub	%r1,%r1,%r1
b8c0: 605f7c00 08340400        mov	%r2,0x834_0400		; 0x834_0400 = .regmask_hi+0x340400
b8c8: 14010200                 st.di	%r1,[%r2]
b8cc: 14010204                 st.di	%r1,[%r2,4]
b8d0: 14010208                 st.di	%r1,[%r2,8]
b8d4: 1401020c                 st.di	%r1,[%r2,12]
b8d8: 14010210                 st.di	%r1,[%r2,16]
b8dc: 14010214                 st.di	%r1,[%r2,20]
b8e0: 601f7c00 00019838        mov	%r0,0x1_9838		; m_uart_irqclear
b8e8: 10000200                 st	%r1,[%r0]
b8ec: 14010228                 st.di	%r1,[%r2,40]
b8f0: 1401022c                 st.di	%r1,[%r2,44]
b8f4: 380f8000                 j	[%blink]
FH_GPIO_get_DataInLower:
b8f8: 601f7c00 08380000        mov	%r0,0x838_0000		; 0x838_0000 = .regmask_hi+0x380000
b900: 08004000                 ld.di	%r0,[%r0]
b904: 380f8000                 j	[%blink]
FH_GPIO_get_DataInUpper:
b908: 601f7c00 08380000        mov	%r0,0x838_0000		; 0x838_0000 = .regmask_hi+0x380000
b910: 08004004                 ld.di	%r0,[%r0,4]
b914: 380f8000                 j	[%blink]
FH_GPIO_get_IRQStatusLower:
b918: 601f7c00 08380000        mov	%r0,0x838_0000		; 0x838_0000 = .regmask_hi+0x380000
b920: 08004008                 ld.di	%r0,[%r0,8]
b924: 603f7c00 0001983c        mov	%r1,0x1_983c		; m_gpio_irqstatuslower
b92c: 10008000                 st	%r0,[%r1]
b930: 380f8000                 j	[%blink]
FH_GPIO_getm_IRQStatusLower:
b934: 601f7c00 0001983c        mov	%r0,0x1_983c		; m_gpio_irqstatuslower
b93c: 08000000                 ld	%r0,[%r0]
b940: 380f8000                 j	[%blink]
FH_GPIO_get_IRQStatusUpper:
b944: 601f7c00 08380000        mov	%r0,0x838_0000		; 0x838_0000 = .regmask_hi+0x380000
b94c: 0800400c                 ld.di	%r0,[%r0,12]
b950: 603f7c00 00019840        mov	%r1,0x1_9840		; m_gpio_irqstatusupper
b958: 10008000                 st	%r0,[%r1]
b95c: 380f8000                 j	[%blink]
FH_GPIO_getm_IRQStatusUpper:
b960: 601f7c00 00019840        mov	%r0,0x1_9840		; m_gpio_irqstatusupper
b968: 08000000                 ld	%r0,[%r0]
b96c: 380f8000                 j	[%blink]
FH_GPIO_set_DirectionLower:
b970: 603f7c00 00019844        mov	%r1,0x1_9844		; m_gpio_directionlower
b978: 10008000                 st	%r0,[%r1]
b97c: 603f7c00 08380000        mov	%r1,0x838_0000		; 0x838_0000 = .regmask_hi+0x380000
b984: 14008010                 st.di	%r0,[%r1,16]
b988: 380f8000                 j	[%blink]
FH_GPIO_getm_DirectionLower:
b98c: 601f7c00 00019844        mov	%r0,0x1_9844		; m_gpio_directionlower
b994: 08000000                 ld	%r0,[%r0]
b998: 380f8000                 j	[%blink]
FH_GPIO_set_DirectionUpper:
b99c: 603f7c00 00019848        mov	%r1,0x1_9848		; m_gpio_directionupper
b9a4: 10008000                 st	%r0,[%r1]
b9a8: 603f7c00 08380000        mov	%r1,0x838_0000		; 0x838_0000 = .regmask_hi+0x380000
b9b0: 14008014                 st.di	%r0,[%r1,20]
b9b4: 380f8000                 j	[%blink]
FH_GPIO_getm_DirectionUpper:
b9b8: 601f7c00 00019848        mov	%r0,0x1_9848		; m_gpio_directionupper
b9c0: 08000000                 ld	%r0,[%r0]
b9c4: 380f8000                 j	[%blink]
FH_GPIO_set_IRQEnableLower:
b9c8: 603f7c00 0001984c        mov	%r1,0x1_984c		; m_gpio_irqenablelower
b9d0: 10008000                 st	%r0,[%r1]
b9d4: 603f7c00 08380000        mov	%r1,0x838_0000		; 0x838_0000 = .regmask_hi+0x380000
b9dc: 14008018                 st.di	%r0,[%r1,24]
b9e0: 380f8000                 j	[%blink]
FH_GPIO_getm_IRQEnableLower:
b9e4: 601f7c00 0001984c        mov	%r0,0x1_984c		; m_gpio_irqenablelower
b9ec: 08000000                 ld	%r0,[%r0]
b9f0: 380f8000                 j	[%blink]
FH_GPIO_set_IRQEnableUpper:
b9f4: 603f7c00 00019850        mov	%r1,0x1_9850		; m_gpio_irqenableupper
b9fc: 10008000                 st	%r0,[%r1]
ba00: 603f7c00 08380000        mov	%r1,0x838_0000		; 0x838_0000 = .regmask_hi+0x380000
ba08: 1400801c                 st.di	%r0,[%r1,28]
ba0c: 380f8000                 j	[%blink]
FH_GPIO_getm_IRQEnableUpper:
ba10: 601f7c00 00019850        mov	%r0,0x1_9850		; m_gpio_irqenableupper
ba18: 08000000                 ld	%r0,[%r0]
ba1c: 380f8000                 j	[%blink]
FH_GPIO_set_IRQLevelLower:
ba20: 603f7c00 00019854        mov	%r1,0x1_9854		; m_gpio_irqlevellower
ba28: 10008000                 st	%r0,[%r1]
ba2c: 603f7c00 08380000        mov	%r1,0x838_0000		; 0x838_0000 = .regmask_hi+0x380000
ba34: 14008020                 st.di	%r0,[%r1,32]
ba38: 380f8000                 j	[%blink]
FH_GPIO_getm_IRQLevelLower:
ba3c: 601f7c00 00019854        mov	%r0,0x1_9854		; m_gpio_irqlevellower
ba44: 08000000                 ld	%r0,[%r0]
ba48: 380f8000                 j	[%blink]
FH_GPIO_set_IRQLevelUpper:
ba4c: 603f7c00 00019858        mov	%r1,0x1_9858		; m_gpio_irqlevelupper
ba54: 10008000                 st	%r0,[%r1]
ba58: 603f7c00 08380000        mov	%r1,0x838_0000		; 0x838_0000 = .regmask_hi+0x380000
ba60: 14008024                 st.di	%r0,[%r1,36]
ba64: 380f8000                 j	[%blink]
FH_GPIO_getm_IRQLevelUpper:
ba68: 601f7c00 00019858        mov	%r0,0x1_9858		; m_gpio_irqlevelupper
ba70: 08000000                 ld	%r0,[%r0]
ba74: 380f8000                 j	[%blink]
FH_GPIO_set_IRQPolarityLower:
ba78: 603f7c00 0001985c        mov	%r1,0x1_985c		; m_gpio_irqpolaritylower
ba80: 10008000                 st	%r0,[%r1]
ba84: 603f7c00 08380000        mov	%r1,0x838_0000		; 0x838_0000 = .regmask_hi+0x380000
ba8c: 14008028                 st.di	%r0,[%r1,40]
ba90: 380f8000                 j	[%blink]
FH_GPIO_getm_IRQPolarityLower:
ba94: 601f7c00 0001985c        mov	%r0,0x1_985c		; m_gpio_irqpolaritylower
ba9c: 08000000                 ld	%r0,[%r0]
baa0: 380f8000                 j	[%blink]
FH_GPIO_set_IRQPolarityUpper:
baa4: 603f7c00 00019860        mov	%r1,0x1_9860		; m_gpio_irqpolarityupper
baac: 10008000                 st	%r0,[%r1]
bab0: 603f7c00 08380000        mov	%r1,0x838_0000		; 0x838_0000 = .regmask_hi+0x380000
bab8: 1400802c                 st.di	%r0,[%r1,44]
babc: 380f8000                 j	[%blink]
FH_GPIO_getm_IRQPolarityUpper:
bac0: 601f7c00 00019860        mov	%r0,0x1_9860		; m_gpio_irqpolarityupper
bac8: 08000000                 ld	%r0,[%r0]
bacc: 380f8000                 j	[%blink]
FH_GPIO_set_OpenDrainLower:
bad0: 603f7c00 00019864        mov	%r1,0x1_9864		; m_gpio_opendrainlower
bad8: 10008000                 st	%r0,[%r1]
badc: 603f7c00 08380000        mov	%r1,0x838_0000		; 0x838_0000 = .regmask_hi+0x380000
bae4: 14008030                 st.di	%r0,[%r1,48]
bae8: 380f8000                 j	[%blink]
FH_GPIO_getm_OpenDrainLower:
baec: 601f7c00 00019864        mov	%r0,0x1_9864		; m_gpio_opendrainlower
baf4: 08000000                 ld	%r0,[%r0]
baf8: 380f8000                 j	[%blink]
FH_GPIO_set_OpenDrainUpper:
bafc: 603f7c00 00019868        mov	%r1,0x1_9868		; m_gpio_opendrainupper
bb04: 10008000                 st	%r0,[%r1]
bb08: 603f7c00 08380000        mov	%r1,0x838_0000		; 0x838_0000 = .regmask_hi+0x380000
bb10: 14008034                 st.di	%r0,[%r1,52]
bb14: 380f8000                 j	[%blink]
FH_GPIO_getm_OpenDrainUpper:
bb18: 601f7c00 00019868        mov	%r0,0x1_9868		; m_gpio_opendrainupper
bb20: 08000000                 ld	%r0,[%r0]
bb24: 380f8000                 j	[%blink]
FH_GPIO_set_Data0:
bb28: 603f7c00 0001986c        mov	%r1,0x1_986c		; m_gpio_data0
bb30: 10008000                 st	%r0,[%r1]
bb34: 603f7c00 08380000        mov	%r1,0x838_0000		; 0x838_0000 = .regmask_hi+0x380000
bb3c: 1400803c                 st.di	%r0,[%r1,60]
bb40: 380f8000                 j	[%blink]
FH_GPIO_getm_Data0:
bb44: 601f7c00 0001986c        mov	%r0,0x1_986c		; m_gpio_data0
bb4c: 08000000                 ld	%r0,[%r0]
bb50: 380f8000                 j	[%blink]
FH_GPIO_set_Data1:
bb54: 603f7c00 00019870        mov	%r1,0x1_9870		; m_gpio_data1
bb5c: 10008000                 st	%r0,[%r1]
bb60: 603f7c00 08380000        mov	%r1,0x838_0000		; 0x838_0000 = .regmask_hi+0x380000
bb68: 14008040                 st.di	%r0,[%r1,64]
bb6c: 380f8000                 j	[%blink]
FH_GPIO_getm_Data1:
bb70: 601f7c00 00019870        mov	%r0,0x1_9870		; m_gpio_data1
bb78: 08000000                 ld	%r0,[%r0]
bb7c: 380f8000                 j	[%blink]
FH_GPIO_set_Data2:
bb80: 603f7c00 00019874        mov	%r1,0x1_9874		; m_gpio_data2
bb88: 10008000                 st	%r0,[%r1]
bb8c: 603f7c00 08380000        mov	%r1,0x838_0000		; 0x838_0000 = .regmask_hi+0x380000
bb94: 14008044                 st.di	%r0,[%r1,68]
bb98: 380f8000                 j	[%blink]
FH_GPIO_getm_Data2:
bb9c: 601f7c00 00019874        mov	%r0,0x1_9874		; m_gpio_data2
bba4: 08000000                 ld	%r0,[%r0]
bba8: 380f8000                 j	[%blink]
FH_GPIO_set_Data3:
bbac: 603f7c00 00019878        mov	%r1,0x1_9878		; m_gpio_data3
bbb4: 10008000                 st	%r0,[%r1]
bbb8: 603f7c00 08380000        mov	%r1,0x838_0000		; 0x838_0000 = .regmask_hi+0x380000
bbc0: 14008048                 st.di	%r0,[%r1,72]
bbc4: 380f8000                 j	[%blink]
FH_GPIO_getm_Data3:
bbc8: 601f7c00 00019878        mov	%r0,0x1_9878		; m_gpio_data3
bbd0: 08000000                 ld	%r0,[%r0]
bbd4: 380f8000                 j	[%blink]
FH_GPIO_set_MuxSelectLower:
bbd8: 603f7c00 0001987c        mov	%r1,0x1_987c		; m_gpio_muxselectlower
bbe0: 10008000                 st	%r0,[%r1]
bbe4: 603f7c00 08380000        mov	%r1,0x838_0000		; 0x838_0000 = .regmask_hi+0x380000
bbec: 1400804c                 st.di	%r0,[%r1,76]
bbf0: 380f8000                 j	[%blink]
FH_GPIO_getm_MuxSelectLower:
bbf4: 601f7c00 0001987c        mov	%r0,0x1_987c		; m_gpio_muxselectlower
bbfc: 08000000                 ld	%r0,[%r0]
bc00: 380f8000                 j	[%blink]
FH_GPIO_set_MuxSelectUpper:
bc04: 603f7c00 00019880        mov	%r1,0x1_9880		; m_gpio_muxselectupper
bc0c: 10008000                 st	%r0,[%r1]
bc10: 603f7c00 08380000        mov	%r1,0x838_0000		; 0x838_0000 = .regmask_hi+0x380000
bc18: 14008050                 st.di	%r0,[%r1,80]
bc1c: 380f8000                 j	[%blink]
FH_GPIO_getm_MuxSelectUpper:
bc20: 601f7c00 00019880        mov	%r0,0x1_9880		; m_gpio_muxselectupper
bc28: 08000000                 ld	%r0,[%r0]
bc2c: 380f8000                 j	[%blink]
FH_GPIO_init:
bc30: 50208200                 sub	%r1,%r1,%r1
bc34: 601f7c00 00019844        mov	%r0,0x1_9844		; m_gpio_directionlower
bc3c: 10000200                 st	%r1,[%r0]
bc40: 605f7c00 08380000        mov	%r2,0x838_0000		; 0x838_0000 = .regmask_hi+0x380000
bc48: 14010210                 st.di	%r1,[%r2,16]
bc4c: 601f7c00 00019848        mov	%r0,0x1_9848		; m_gpio_directionupper
bc54: 10000200                 st	%r1,[%r0]
bc58: 14010214                 st.di	%r1,[%r2,20]
bc5c: 601f7c00 0001984c        mov	%r0,0x1_984c		; m_gpio_irqenablelower
bc64: 10000200                 st	%r1,[%r0]
bc68: 14010218                 st.di	%r1,[%r2,24]
bc6c: 601f7c00 00019850        mov	%r0,0x1_9850		; m_gpio_irqenableupper
bc74: 10000200                 st	%r1,[%r0]
bc78: 1401021c                 st.di	%r1,[%r2,28]
bc7c: 601f7c00 00019854        mov	%r0,0x1_9854		; m_gpio_irqlevellower
bc84: 10000200                 st	%r1,[%r0]
bc88: 14010220                 st.di	%r1,[%r2,32]
bc8c: 601f7c00 00019858        mov	%r0,0x1_9858		; m_gpio_irqlevelupper
bc94: 10000200                 st	%r1,[%r0]
bc98: 14010224                 st.di	%r1,[%r2,36]
bc9c: 601f7c00 0001985c        mov	%r0,0x1_985c		; m_gpio_irqpolaritylower
bca4: 10000200                 st	%r1,[%r0]
bca8: 14010228                 st.di	%r1,[%r2,40]
bcac: 601f7c00 00019860        mov	%r0,0x1_9860		; m_gpio_irqpolarityupper
bcb4: 10000200                 st	%r1,[%r0]
bcb8: 1401022c                 st.di	%r1,[%r2,44]
bcbc: 601f7c00 00019864        mov	%r0,0x1_9864		; m_gpio_opendrainlower
bcc4: 10000200                 st	%r1,[%r0]
bcc8: 14010230                 st.di	%r1,[%r2,48]
bccc: 601f7c00 00019868        mov	%r0,0x1_9868		; m_gpio_opendrainupper
bcd4: 10000200                 st	%r1,[%r0]
bcd8: 14010234                 st.di	%r1,[%r2,52]
bcdc: 601f7c00 0001986c        mov	%r0,0x1_986c		; m_gpio_data0
bce4: 10000200                 st	%r1,[%r0]
bce8: 1401023c                 st.di	%r1,[%r2,60]
bcec: 601f7c00 00019870        mov	%r0,0x1_9870		; m_gpio_data1
bcf4: 10000200                 st	%r1,[%r0]
bcf8: 14010240                 st.di	%r1,[%r2,64]
bcfc: 601f7c00 00019874        mov	%r0,0x1_9874		; m_gpio_data2
bd04: 10000200                 st	%r1,[%r0]
bd08: 14010244                 st.di	%r1,[%r2,68]
bd0c: 601f7c00 00019878        mov	%r0,0x1_9878		; m_gpio_data3
bd14: 10000200                 st	%r1,[%r0]
bd18: 14010248                 st.di	%r1,[%r2,72]
bd1c: 601f7c00 0001987c        mov	%r0,0x1_987c		; m_gpio_muxselectlower
bd24: 10000200                 st	%r1,[%r0]
bd28: 1401024c                 st.di	%r1,[%r2,76]
bd2c: 601f7c00 00019880        mov	%r0,0x1_9880		; m_gpio_muxselectupper
bd34: 10000200                 st	%r1,[%r0]
bd38: 14010250                 st.di	%r1,[%r2,80]
bd3c: 08214008                 ld.di	%r1,[%r2,8]
bd40: 601f7c00 0001983c        mov	%r0,0x1_983c		; m_gpio_irqstatuslower
bd48: 10000200                 st	%r1,[%r0]
bd4c: 0821400c                 ld.di	%r1,[%r2,12]
bd50: 601f7c00 00019840        mov	%r0,0x1_9840		; m_gpio_irqstatusupper
bd58: 10000200                 st	%r1,[%r0]
bd5c: 380f8000                 j	[%blink]
FH_UPI_set_Mode:
bd60: 80007e06                 asl	%r0,%r0,6
bd64: 40007c00 0f800000        add	%r0,%r0,0xf80_0000		; 0xf80_0000 = .regmask_hi+0x5800000
bd6c: 14000200                 st.di	%r1,[%r0]
bd70: 380f8000                 j	[%blink]
FH_UPI_get_Mode:
bd74: 80007e06                 asl	%r0,%r0,6
bd78: 40007c00 0f800000        add	%r0,%r0,0xf80_0000		; 0xf80_0000 = .regmask_hi+0x5800000
bd80: 08004000                 ld.di	%r0,[%r0]
bd84: 380f8000                 j	[%blink]
FH_UPI_set_TALS:
bd88: 80007e06                 asl	%r0,%r0,6
bd8c: 40007c00 0f800004        add	%r0,%r0,0xf80_0004		; 0xf80_0004 = .regmask_hi+0x5800004
bd94: 14000200                 st.di	%r1,[%r0]
bd98: 380f8000                 j	[%blink]
FH_UPI_get_TALS:
bd9c: 80007e06                 asl	%r0,%r0,6
bda0: 40007c00 0f800004        add	%r0,%r0,0xf80_0004		; 0xf80_0004 = .regmask_hi+0x5800004
bda8: 08004000                 ld.di	%r0,[%r0]
bdac: 380f8000                 j	[%blink]
FH_UPI_set_TALH:
bdb0: 80007e06                 asl	%r0,%r0,6
bdb4: 40007c00 0f800008        add	%r0,%r0,0xf80_0008		; 0xf80_0008 = .regmask_hi+0x5800008
bdbc: 14000200                 st.di	%r1,[%r0]
bdc0: 380f8000                 j	[%blink]
FH_UPI_get_TALH:
bdc4: 80007e06                 asl	%r0,%r0,6
bdc8: 40007c00 0f800008        add	%r0,%r0,0xf80_0008		; 0xf80_0008 = .regmask_hi+0x5800008
bdd0: 08004000                 ld.di	%r0,[%r0]
bdd4: 380f8000                 j	[%blink]
FH_UPI_set_TRS:
bdd8: 80007e06                 asl	%r0,%r0,6
bddc: 40007c00 0f80000c        add	%r0,%r0,0xf80_000c		; 0xf80_000c = .regmask_hi+0x580000c
bde4: 14000200                 st.di	%r1,[%r0]
bde8: 380f8000                 j	[%blink]
FH_UPI_get_TRS:
bdec: 80007e06                 asl	%r0,%r0,6
bdf0: 40007c00 0f80000c        add	%r0,%r0,0xf80_000c		; 0xf80_000c = .regmask_hi+0x580000c
bdf8: 08004000                 ld.di	%r0,[%r0]
bdfc: 380f8000                 j	[%blink]
FH_UPI_set_TRDS:
be00: 80007e06                 asl	%r0,%r0,6
be04: 40007c00 0f800010        add	%r0,%r0,0xf80_0010		; 0xf80_0010 = .regmask_hi+0x5800010
be0c: 14000200                 st.di	%r1,[%r0]
be10: 380f8000                 j	[%blink]
FH_UPI_get_TRDS:
be14: 80007e06                 asl	%r0,%r0,6
be18: 40007c00 0f800010        add	%r0,%r0,0xf80_0010		; 0xf80_0010 = .regmask_hi+0x5800010
be20: 08004000                 ld.di	%r0,[%r0]
be24: 380f8000                 j	[%blink]
FH_UPI_set_TRDH:
be28: 80007e06                 asl	%r0,%r0,6
be2c: 40007c00 0f800014        add	%r0,%r0,0xf80_0014		; 0xf80_0014 = .regmask_hi+0x5800014
be34: 14000200                 st.di	%r1,[%r0]
be38: 380f8000                 j	[%blink]
FH_UPI_get_TRDH:
be3c: 80007e06                 asl	%r0,%r0,6
be40: 40007c00 0f800014        add	%r0,%r0,0xf80_0014		; 0xf80_0014 = .regmask_hi+0x5800014
be48: 08004000                 ld.di	%r0,[%r0]
be4c: 380f8000                 j	[%blink]
FH_UPI_set_TRR:
be50: 80007e06                 asl	%r0,%r0,6
be54: 40007c00 0f800018        add	%r0,%r0,0xf80_0018		; 0xf80_0018 = .regmask_hi+0x5800018
be5c: 14000200                 st.di	%r1,[%r0]
be60: 380f8000                 j	[%blink]
FH_UPI_get_TRR:
be64: 80007e06                 asl	%r0,%r0,6
be68: 40007c00 0f800018        add	%r0,%r0,0xf80_0018		; 0xf80_0018 = .regmask_hi+0x5800018
be70: 08004000                 ld.di	%r0,[%r0]
be74: 380f8000                 j	[%blink]
FH_UPI_set_TWS:
be78: 80007e06                 asl	%r0,%r0,6
be7c: 40007c00 0f80001c        add	%r0,%r0,0xf80_001c		; 0xf80_001c = .regmask_hi+0x580001c
be84: 14000200                 st.di	%r1,[%r0]
be88: 380f8000                 j	[%blink]
FH_UPI_get_TWS:
be8c: 80007e06                 asl	%r0,%r0,6
be90: 40007c00 0f80001c        add	%r0,%r0,0xf80_001c		; 0xf80_001c = .regmask_hi+0x580001c
be98: 08004000                 ld.di	%r0,[%r0]
be9c: 380f8000                 j	[%blink]
FH_UPI_set_TWP:
bea0: 80007e06                 asl	%r0,%r0,6
bea4: 40007c00 0f800020        add	%r0,%r0,0xf80_0020		; 0xf80_0020 = .regmask_hi+0x5800020
beac: 14000200                 st.di	%r1,[%r0]
beb0: 380f8000                 j	[%blink]
FH_UPI_get_TWP:
beb4: 80007e06                 asl	%r0,%r0,6
beb8: 40007c00 0f800020        add	%r0,%r0,0xf80_0020		; 0xf80_0020 = .regmask_hi+0x5800020
bec0: 08004000                 ld.di	%r0,[%r0]
bec4: 380f8000                 j	[%blink]
FH_UPI_set_TWR:
bec8: 80007e06                 asl	%r0,%r0,6
becc: 40007c00 0f800024        add	%r0,%r0,0xf80_0024		; 0xf80_0024 = .regmask_hi+0x5800024
bed4: 14000200                 st.di	%r1,[%r0]
bed8: 380f8000                 j	[%blink]
FH_UPI_get_TWR:
bedc: 80007e06                 asl	%r0,%r0,6
bee0: 40007c00 0f800024        add	%r0,%r0,0xf80_0024		; 0xf80_0024 = .regmask_hi+0x5800024
bee8: 08004000                 ld.di	%r0,[%r0]
beec: 380f8000                 j	[%blink]
FH_UPI_set_WaitMask:
bef0: 80007e06                 asl	%r0,%r0,6
bef4: 40007c00 0f800028        add	%r0,%r0,0xf80_0028		; 0xf80_0028 = .regmask_hi+0x5800028
befc: 14000200                 st.di	%r1,[%r0]
bf00: 380f8000                 j	[%blink]
FH_UPI_get_WaitMask:
bf04: 80007e06                 asl	%r0,%r0,6
bf08: 40007c00 0f800028        add	%r0,%r0,0xf80_0028		; 0xf80_0028 = .regmask_hi+0x5800028
bf10: 08004000                 ld.di	%r0,[%r0]
bf14: 380f8000                 j	[%blink]
FH_UPI_set_BufferEnable:
bf18: 80007e06                 asl	%r0,%r0,6
bf1c: 40007c00 0f80002c        add	%r0,%r0,0xf80_002c		; 0xf80_002c = .regmask_hi+0x580002c
bf24: 14000200                 st.di	%r1,[%r0]
bf28: 380f8000                 j	[%blink]
FH_UPI_get_BufferEnable:
bf2c: 80007e06                 asl	%r0,%r0,6
bf30: 40007c00 0f80002c        add	%r0,%r0,0xf80_002c		; 0xf80_002c = .regmask_hi+0x580002c
bf38: 08004000                 ld.di	%r0,[%r0]
bf3c: 380f8000                 j	[%blink]
FH_UPI_set_WaitTime:
bf40: 603f7c00 0f800000        mov	%r1,0xf80_0000		; 0xf80_0000 = .regmask_hi+0x5800000
bf48: 14008030                 st.di	%r0,[%r1,48]
bf4c: 380f8000                 j	[%blink]
FH_UPI_get_WaitTime:
bf50: 601f7c00 0f800000        mov	%r0,0xf80_0000		; 0xf80_0000 = .regmask_hi+0x5800000
bf58: 08004030                 ld.di	%r0,[%r0,48]
bf5c: 380f8000                 j	[%blink]
FH_UPI_set_WaitTimerEnable:
bf60: 603f7c00 0f800000        mov	%r1,0xf80_0000		; 0xf80_0000 = .regmask_hi+0x5800000
bf68: 14008034                 st.di	%r0,[%r1,52]
bf6c: 380f8000                 j	[%blink]
FH_UPI_get_WaitTimerEnable:
bf70: 601f7c00 0f800000        mov	%r0,0xf80_0000		; 0xf80_0000 = .regmask_hi+0x5800000
bf78: 08004034                 ld.di	%r0,[%r0,52]
bf7c: 380f8000                 j	[%blink]
FH_UPI_get_LastWaitTime:
bf80: 601f7c00 0f800000        mov	%r0,0xf80_0000		; 0xf80_0000 = .regmask_hi+0x5800000
bf88: 08004038                 ld.di	%r0,[%r0,56]
bf8c: 380f8000                 j	[%blink]
FH_UPI_get_WaitTimerStatus:
bf90: 601f7c00 0f800000        mov	%r0,0xf80_0000		; 0xf80_0000 = .regmask_hi+0x5800000
bf98: 0800403c                 ld.di	%r0,[%r0,60]
bf9c: 380f8000                 j	[%blink]
FH_UPI_get_WaitTimerStatus_ACTIVATED:
bfa0: 601f7c00 0f800000        mov	%r0,0xf80_0000		; 0xf80_0000 = .regmask_hi+0x5800000
bfa8: 0800443c                 ldb.di	%r0,[%r0,60]
bfac: 60007e01                 and	%r0,%r0,1
bfb0: 18000e00                 extb	%r0,%r0
bfb4: 380f8000                 j	[%blink]
FH_UPI_get_WaitTimerStatus_LINE_STATUS:
bfb8: 601f7c00 0f800000        mov	%r0,0xf80_0000		; 0xf80_0000 = .regmask_hi+0x5800000
bfc0: 0800443c                 ldb.di	%r0,[%r0,60]
bfc4: 18000400                 lsr	%r0,%r0
bfc8: 60007e01                 and	%r0,%r0,1
bfcc: 18000e00                 extb	%r0,%r0
bfd0: 380f8000                 j	[%blink]
FH_UPI_set_AddrExt:
bfd4: 603f7c00 00019884        mov	%r1,0x1_9884		; m_upi_addrext
bfdc: 10008000                 st	%r0,[%r1]
bfe0: 603f7c00 0f800000        mov	%r1,0xf80_0000		; 0xf80_0000 = .regmask_hi+0x5800000
bfe8: 140080c0                 st.di	%r0,[%r1,192]
bfec: 380f8000                 j	[%blink]
FH_UPI_getm_AddrExt:
bff0: 601f7c00 00019884        mov	%r0,0x1_9884		; m_upi_addrext
bff8: 08000000                 ld	%r0,[%r0]
bffc: 380f8000                 j	[%blink]
FH_UPI_set_AddrExt_EXT_ADDR_0:
c000: 60407e01                 and	%r2,%r0,1
c004: 603f7c00 00019884        mov	%r1,0x1_9884		; m_upi_addrext
c00c: 08008000                 ld	%r0,[%r1]
c010: 60007ffe                 and	%r0,%r0,-2
c014: 68000400                 or	%r0,%r0,%r2
c018: 10008000                 st	%r0,[%r1]
c01c: 603f7c00 0f800000        mov	%r1,0xf80_0000		; 0xf80_0000 = .regmask_hi+0x5800000
c024: 140080c0                 st.di	%r0,[%r1,192]
c028: 380f8000                 j	[%blink]
FH_UPI_getm_AddrExt_EXT_ADDR_0:
c02c: 601f7c00 00019884        mov	%r0,0x1_9884		; m_upi_addrext
c034: 08000000                 ld	%r0,[%r0]
c038: 60007e01                 and	%r0,%r0,1
c03c: 18000e00                 extb	%r0,%r0
c040: 380f8000                 j	[%blink]
FH_UPI_set_AddrExt_EXT_ADDR_1:
c044: 60007e01                 and	%r0,%r0,1
c048: 40400000                 asl	%r2,%r0
c04c: 603f7c00 00019884        mov	%r1,0x1_9884		; m_upi_addrext
c054: 08008000                 ld	%r0,[%r1]
c058: 60007ffd                 and	%r0,%r0,-3
c05c: 68000400                 or	%r0,%r0,%r2
c060: 10008000                 st	%r0,[%r1]
c064: 603f7c00 0f800000        mov	%r1,0xf80_0000		; 0xf80_0000 = .regmask_hi+0x5800000
c06c: 140080c0                 st.di	%r0,[%r1,192]
c070: 380f8000                 j	[%blink]
FH_UPI_getm_AddrExt_EXT_ADDR_1:
c074: 601f7c00 00019884        mov	%r0,0x1_9884		; m_upi_addrext
c07c: 08000000                 ld	%r0,[%r0]
c080: 18000400                 lsr	%r0,%r0
c084: 60007e01                 and	%r0,%r0,1
c088: 18000e00                 extb	%r0,%r0
c08c: 380f8000                 j	[%blink]
FH_UPI_set_AddrExt_EXT_ADDR_2:
c090: 60007e01                 and	%r0,%r0,1
c094: 80407e02                 asl	%r2,%r0,2
c098: 603f7c00 00019884        mov	%r1,0x1_9884		; m_upi_addrext
c0a0: 08008000                 ld	%r0,[%r1]
c0a4: 60007ffb                 and	%r0,%r0,-5
c0a8: 68000400                 or	%r0,%r0,%r2
c0ac: 10008000                 st	%r0,[%r1]
c0b0: 603f7c00 0f800000        mov	%r1,0xf80_0000		; 0xf80_0000 = .regmask_hi+0x5800000
c0b8: 140080c0                 st.di	%r0,[%r1,192]
c0bc: 380f8000                 j	[%blink]
FH_UPI_getm_AddrExt_EXT_ADDR_2:
c0c0: 601f7c00 00019884        mov	%r0,0x1_9884		; m_upi_addrext
c0c8: 08000000                 ld	%r0,[%r0]
c0cc: 88007e02                 lsr	%r0,%r0,2
c0d0: 60007e01                 and	%r0,%r0,1
c0d4: 18000e00                 extb	%r0,%r0
c0d8: 380f8000                 j	[%blink]
FH_UPI_set_AddrExt_LIN_MODE_0:
c0dc: 60007e01                 and	%r0,%r0,1
c0e0: 80407e03                 asl	%r2,%r0,3
c0e4: 603f7c00 00019884        mov	%r1,0x1_9884		; m_upi_addrext
c0ec: 08008000                 ld	%r0,[%r1]
c0f0: 60007ff7                 and	%r0,%r0,-9
c0f4: 68000400                 or	%r0,%r0,%r2
c0f8: 10008000                 st	%r0,[%r1]
c0fc: 603f7c00 0f800000        mov	%r1,0xf80_0000		; 0xf80_0000 = .regmask_hi+0x5800000
c104: 140080c0                 st.di	%r0,[%r1,192]
c108: 380f8000                 j	[%blink]
FH_UPI_getm_AddrExt_LIN_MODE_0:
c10c: 601f7c00 00019884        mov	%r0,0x1_9884		; m_upi_addrext
c114: 08000000                 ld	%r0,[%r0]
c118: 88007e03                 lsr	%r0,%r0,3
c11c: 60007e01                 and	%r0,%r0,1
c120: 18000e00                 extb	%r0,%r0
c124: 380f8000                 j	[%blink]
FH_UPI_set_AddrExt_LIN_MODE_1:
c128: 60007e01                 and	%r0,%r0,1
c12c: 80407e04                 asl	%r2,%r0,4
c130: 603f7c00 00019884        mov	%r1,0x1_9884		; m_upi_addrext
c138: 08008000                 ld	%r0,[%r1]
c13c: 60007fef                 and	%r0,%r0,-17
c140: 68000400                 or	%r0,%r0,%r2
c144: 10008000                 st	%r0,[%r1]
c148: 603f7c00 0f800000        mov	%r1,0xf80_0000		; 0xf80_0000 = .regmask_hi+0x5800000
c150: 140080c0                 st.di	%r0,[%r1,192]
c154: 380f8000                 j	[%blink]
FH_UPI_getm_AddrExt_LIN_MODE_1:
c158: 601f7c00 00019884        mov	%r0,0x1_9884		; m_upi_addrext
c160: 08000000                 ld	%r0,[%r0]
c164: 88007e04                 lsr	%r0,%r0,4
c168: 60007e01                 and	%r0,%r0,1
c16c: 18000e00                 extb	%r0,%r0
c170: 380f8000                 j	[%blink]
FH_UPI_set_AddrExt_LIN_MODE_2:
c174: 60007e01                 and	%r0,%r0,1
c178: 80407e05                 asl	%r2,%r0,5
c17c: 603f7c00 00019884        mov	%r1,0x1_9884		; m_upi_addrext
c184: 08008000                 ld	%r0,[%r1]
c188: 60007fdf                 and	%r0,%r0,-33
c18c: 68000400                 or	%r0,%r0,%r2
c190: 10008000                 st	%r0,[%r1]
c194: 603f7c00 0f800000        mov	%r1,0xf80_0000		; 0xf80_0000 = .regmask_hi+0x5800000
c19c: 140080c0                 st.di	%r0,[%r1,192]
c1a0: 380f8000                 j	[%blink]
FH_UPI_getm_AddrExt_LIN_MODE_2:
c1a4: 601f7c00 00019884        mov	%r0,0x1_9884		; m_upi_addrext
c1ac: 08000000                 ld	%r0,[%r0]
c1b0: 88007e05                 lsr	%r0,%r0,5
c1b4: 60007e01                 and	%r0,%r0,1
c1b8: 18000e00                 extb	%r0,%r0
c1bc: 380f8000                 j	[%blink]
FH_UPI_set_CSSel:
c1c0: 603f7c00 00019888        mov	%r1,0x1_9888		; m_upi_cssel
c1c8: 10008000                 st	%r0,[%r1]
c1cc: 603f7c00 0f800000        mov	%r1,0xf80_0000		; 0xf80_0000 = .regmask_hi+0x5800000
c1d4: 140080c4                 st.di	%r0,[%r1,196]
c1d8: 380f8000                 j	[%blink]
FH_UPI_getm_CSSel:
c1dc: 601f7c00 00019888        mov	%r0,0x1_9888		; m_upi_cssel
c1e4: 08000000                 ld	%r0,[%r0]
c1e8: 380f8000                 j	[%blink]
FH_UPI_set_CSMode:
c1ec: 603f7c00 0001988c        mov	%r1,0x1_988c		; m_upi_csmode
c1f4: 10008000                 st	%r0,[%r1]
c1f8: 603f7c00 0f800000        mov	%r1,0xf80_0000		; 0xf80_0000 = .regmask_hi+0x5800000
c200: 140080c8                 st.di	%r0,[%r1,200]
c204: 380f8000                 j	[%blink]
FH_UPI_getm_CSMode:
c208: 601f7c00 0001988c        mov	%r0,0x1_988c		; m_upi_csmode
c210: 08000000                 ld	%r0,[%r0]
c214: 380f8000                 j	[%blink]
FH_UPI_set_CSMode_CS1_INVERT:
c218: 60407e01                 and	%r2,%r0,1
c21c: 603f7c00 0001988c        mov	%r1,0x1_988c		; m_upi_csmode
c224: 08008000                 ld	%r0,[%r1]
c228: 60007ffe                 and	%r0,%r0,-2
c22c: 68000400                 or	%r0,%r0,%r2
c230: 10008000                 st	%r0,[%r1]
c234: 603f7c00 0f800000        mov	%r1,0xf80_0000		; 0xf80_0000 = .regmask_hi+0x5800000
c23c: 140080c8                 st.di	%r0,[%r1,200]
c240: 380f8000                 j	[%blink]
FH_UPI_getm_CSMode_CS1_INVERT:
c244: 601f7c00 0001988c        mov	%r0,0x1_988c		; m_upi_csmode
c24c: 08000000                 ld	%r0,[%r0]
c250: 60007e01                 and	%r0,%r0,1
c254: 18000e00                 extb	%r0,%r0
c258: 380f8000                 j	[%blink]
FH_UPI_set_CSMode_CS2_INVERT:
c25c: 60007e01                 and	%r0,%r0,1
c260: 40400000                 asl	%r2,%r0
c264: 603f7c00 0001988c        mov	%r1,0x1_988c		; m_upi_csmode
c26c: 08008000                 ld	%r0,[%r1]
c270: 60007ffd                 and	%r0,%r0,-3
c274: 68000400                 or	%r0,%r0,%r2
c278: 10008000                 st	%r0,[%r1]
c27c: 603f7c00 0f800000        mov	%r1,0xf80_0000		; 0xf80_0000 = .regmask_hi+0x5800000
c284: 140080c8                 st.di	%r0,[%r1,200]
c288: 380f8000                 j	[%blink]
FH_UPI_getm_CSMode_CS2_INVERT:
c28c: 601f7c00 0001988c        mov	%r0,0x1_988c		; m_upi_csmode
c294: 08000000                 ld	%r0,[%r0]
c298: 18000400                 lsr	%r0,%r0
c29c: 60007e01                 and	%r0,%r0,1
c2a0: 18000e00                 extb	%r0,%r0
c2a4: 380f8000                 j	[%blink]
FH_UPI_set_CSMode_CS1_WEMODE:
c2a8: 60007e01                 and	%r0,%r0,1
c2ac: 80407e02                 asl	%r2,%r0,2
c2b0: 603f7c00 0001988c        mov	%r1,0x1_988c		; m_upi_csmode
c2b8: 08008000                 ld	%r0,[%r1]
c2bc: 60007ffb                 and	%r0,%r0,-5
c2c0: 68000400                 or	%r0,%r0,%r2
c2c4: 10008000                 st	%r0,[%r1]
c2c8: 603f7c00 0f800000        mov	%r1,0xf80_0000		; 0xf80_0000 = .regmask_hi+0x5800000
c2d0: 140080c8                 st.di	%r0,[%r1,200]
c2d4: 380f8000                 j	[%blink]
FH_UPI_getm_CSMode_CS1_WEMODE:
c2d8: 601f7c00 0001988c        mov	%r0,0x1_988c		; m_upi_csmode
c2e0: 08000000                 ld	%r0,[%r0]
c2e4: 88007e02                 lsr	%r0,%r0,2
c2e8: 60007e01                 and	%r0,%r0,1
c2ec: 18000e00                 extb	%r0,%r0
c2f0: 380f8000                 j	[%blink]
FH_UPI_set_CSMode_CS2_WEMODE:
c2f4: 60007e01                 and	%r0,%r0,1
c2f8: 80407e03                 asl	%r2,%r0,3
c2fc: 603f7c00 0001988c        mov	%r1,0x1_988c		; m_upi_csmode
c304: 08008000                 ld	%r0,[%r1]
c308: 60007ff7                 and	%r0,%r0,-9
c30c: 68000400                 or	%r0,%r0,%r2
c310: 10008000                 st	%r0,[%r1]
c314: 603f7c00 0f800000        mov	%r1,0xf80_0000		; 0xf80_0000 = .regmask_hi+0x5800000
c31c: 140080c8                 st.di	%r0,[%r1,200]
c320: 380f8000                 j	[%blink]
FH_UPI_getm_CSMode_CS2_WEMODE:
c324: 601f7c00 0001988c        mov	%r0,0x1_988c		; m_upi_csmode
c32c: 08000000                 ld	%r0,[%r0]
c330: 88007e03                 lsr	%r0,%r0,3
c334: 60007e01                 and	%r0,%r0,1
c338: 18000e00                 extb	%r0,%r0
c33c: 380f8000                 j	[%blink]
FH_UPI_init:
c340: 50208200                 sub	%r1,%r1,%r1
c344: 601f7c00 00019884        mov	%r0,0x1_9884		; m_upi_addrext
c34c: 10000200                 st	%r1,[%r0]
c350: 605f7c00 0f800000        mov	%r2,0xf80_0000		; 0xf80_0000 = .regmask_hi+0x5800000
c358: 140102c0                 st.di	%r1,[%r2,192]
c35c: 601f7c00 00019888        mov	%r0,0x1_9888		; m_upi_cssel
c364: 10000200                 st	%r1,[%r0]
c368: 140102c4                 st.di	%r1,[%r2,196]
c36c: 601f7c00 0001988c        mov	%r0,0x1_988c		; m_upi_csmode
c374: 10000200                 st	%r1,[%r0]
c378: 140102c8                 st.di	%r1,[%r2,200]
c37c: 380f8000                 j	[%blink]
FH_VE_set_RGBConf:
c380: 603f7c00 00019890        mov	%r1,0x1_9890		; m_ve_rgbconf
c388: 10008000                 st	%r0,[%r1]
c38c: 603f7c00 081a0000        mov	%r1,0x81a_0000		; 0x81a_0000 = .regmask_hi+0x1a0000
c394: 14008000                 st.di	%r0,[%r1]
c398: 380f8000                 j	[%blink]
FH_VE_getm_RGBConf:
c39c: 601f7c00 00019890        mov	%r0,0x1_9890		; m_ve_rgbconf
c3a4: 08000000                 ld	%r0,[%r0]
c3a8: 380f8000                 j	[%blink]
FH_VE_set_RGBConf_RGB_DELAY_ENABLE:
c3ac: 60007e03                 and	%r0,%r0,3
c3b0: 80407e04                 asl	%r2,%r0,4
c3b4: 603f7c00 00019890        mov	%r1,0x1_9890		; m_ve_rgbconf
c3bc: 08008000                 ld	%r0,[%r1]
c3c0: 60007fcf                 and	%r0,%r0,-49
c3c4: 68000400                 or	%r0,%r0,%r2
c3c8: 10008000                 st	%r0,[%r1]
c3cc: 603f7c00 081a0000        mov	%r1,0x81a_0000		; 0x81a_0000 = .regmask_hi+0x1a0000
c3d4: 14008000                 st.di	%r0,[%r1]
c3d8: 380f8000                 j	[%blink]
FH_VE_getm_RGBConf_RGB_DELAY_ENABLE:
c3dc: 601f7c00 00019890        mov	%r0,0x1_9890		; m_ve_rgbconf
c3e4: 08000000                 ld	%r0,[%r0]
c3e8: 88007e04                 lsr	%r0,%r0,4
c3ec: 60007e03                 and	%r0,%r0,3
c3f0: 18000e00                 extb	%r0,%r0
c3f4: 380f8000                 j	[%blink]
FH_VE_set_RGBConf_SYNCON_RED:
c3f8: 60007e01                 and	%r0,%r0,1
c3fc: 80407e06                 asl	%r2,%r0,6
c400: 603f7c00 00019890        mov	%r1,0x1_9890		; m_ve_rgbconf
c408: 08008000                 ld	%r0,[%r1]
c40c: 60007fbf                 and	%r0,%r0,-65
c410: 68000400                 or	%r0,%r0,%r2
c414: 10008000                 st	%r0,[%r1]
c418: 603f7c00 081a0000        mov	%r1,0x81a_0000		; 0x81a_0000 = .regmask_hi+0x1a0000
c420: 14008000                 st.di	%r0,[%r1]
c424: 380f8000                 j	[%blink]
FH_VE_getm_RGBConf_SYNCON_RED:
c428: 601f7c00 00019890        mov	%r0,0x1_9890		; m_ve_rgbconf
c430: 08000000                 ld	%r0,[%r0]
c434: 88007e06                 lsr	%r0,%r0,6
c438: 60007e01                 and	%r0,%r0,1
c43c: 18000e00                 extb	%r0,%r0
c440: 380f8000                 j	[%blink]
FH_VE_set_RGBConf_SYNCON_GREEN:
c444: 60007e01                 and	%r0,%r0,1
c448: 80407e07                 asl	%r2,%r0,7
c44c: 603f7c00 00019890        mov	%r1,0x1_9890		; m_ve_rgbconf
c454: 08008000                 ld	%r0,[%r1]
c458: 60007f7f                 and	%r0,%r0,-129
c45c: 68000400                 or	%r0,%r0,%r2
c460: 10008000                 st	%r0,[%r1]
c464: 603f7c00 081a0000        mov	%r1,0x81a_0000		; 0x81a_0000 = .regmask_hi+0x1a0000
c46c: 14008000                 st.di	%r0,[%r1]
c470: 380f8000                 j	[%blink]
FH_VE_getm_RGBConf_SYNCON_GREEN:
c474: 601f7c00 00019890        mov	%r0,0x1_9890		; m_ve_rgbconf
c47c: 08000000                 ld	%r0,[%r0]
c480: 88007e07                 lsr	%r0,%r0,7
c484: 60007e01                 and	%r0,%r0,1
c488: 18000e00                 extb	%r0,%r0
c48c: 380f8000                 j	[%blink]
FH_VE_set_RGBConf_SYNCON_BLUE:
c490: 60007e01                 and	%r0,%r0,1
c494: 80407e08                 asl	%r2,%r0,8
c498: 603f7c00 00019890        mov	%r1,0x1_9890		; m_ve_rgbconf
c4a0: 08008000                 ld	%r0,[%r1]
c4a4: 60007c00 fffffeff        and	%r0,%r0,0xffff_feff		; 0xffff_feff = .regmask_lo+0x7fbff00
c4ac: 68000400                 or	%r0,%r0,%r2
c4b0: 10008000                 st	%r0,[%r1]
c4b4: 603f7c00 081a0000        mov	%r1,0x81a_0000		; 0x81a_0000 = .regmask_hi+0x1a0000
c4bc: 14008000                 st.di	%r0,[%r1]
c4c0: 380f8000                 j	[%blink]
FH_VE_getm_RGBConf_SYNCON_BLUE:
c4c4: 601f7c00 00019890        mov	%r0,0x1_9890		; m_ve_rgbconf
c4cc: 08000000                 ld	%r0,[%r0]
c4d0: 88007e08                 lsr	%r0,%r0,8
c4d4: 60007e01                 and	%r0,%r0,1
c4d8: 18000e00                 extb	%r0,%r0
c4dc: 380f8000                 j	[%blink]
FH_VE_set_RGBConf_BLK_ON:
c4e0: 60007e01                 and	%r0,%r0,1
c4e4: 80407e09                 asl	%r2,%r0,9
c4e8: 603f7c00 00019890        mov	%r1,0x1_9890		; m_ve_rgbconf
c4f0: 08008000                 ld	%r0,[%r1]
c4f4: 60007c00 fffffdff        and	%r0,%r0,0xffff_fdff		; 0xffff_fdff = .regmask_lo+0x7fbfe00
c4fc: 68000400                 or	%r0,%r0,%r2
c500: 10008000                 st	%r0,[%r1]
c504: 603f7c00 081a0000        mov	%r1,0x81a_0000		; 0x81a_0000 = .regmask_hi+0x1a0000
c50c: 14008000                 st.di	%r0,[%r1]
c510: 380f8000                 j	[%blink]
FH_VE_getm_RGBConf_BLK_ON:
c514: 601f7c00 00019890        mov	%r0,0x1_9890		; m_ve_rgbconf
c51c: 08000000                 ld	%r0,[%r0]
c520: 88007e09                 lsr	%r0,%r0,9
c524: 60007e01                 and	%r0,%r0,1
c528: 18000e00                 extb	%r0,%r0
c52c: 380f8000                 j	[%blink]
FH_VE_set_RGBConf_NTSC_ON:
c530: 60007e01                 and	%r0,%r0,1
c534: 80407e0a                 asl	%r2,%r0,10
c538: 603f7c00 00019890        mov	%r1,0x1_9890		; m_ve_rgbconf
c540: 08008000                 ld	%r0,[%r1]
c544: 60007c00 fffffbff        and	%r0,%r0,0xffff_fbff		; 0xffff_fbff = .regmask_lo+0x7fbfc00
c54c: 68000400                 or	%r0,%r0,%r2
c550: 10008000                 st	%r0,[%r1]
c554: 603f7c00 081a0000        mov	%r1,0x81a_0000		; 0x81a_0000 = .regmask_hi+0x1a0000
c55c: 14008000                 st.di	%r0,[%r1]
c560: 380f8000                 j	[%blink]
FH_VE_getm_RGBConf_NTSC_ON:
c564: 601f7c00 00019890        mov	%r0,0x1_9890		; m_ve_rgbconf
c56c: 08000000                 ld	%r0,[%r0]
c570: 88007e0a                 lsr	%r0,%r0,10
c574: 60007e01                 and	%r0,%r0,1
c578: 18000e00                 extb	%r0,%r0
c57c: 380f8000                 j	[%blink]
FH_VE_set_RGBConf_YCRCB:
c580: 60007e01                 and	%r0,%r0,1
c584: 80407e0b                 asl	%r2,%r0,11
c588: 603f7c00 00019890        mov	%r1,0x1_9890		; m_ve_rgbconf
c590: 08008000                 ld	%r0,[%r1]
c594: 60007c00 fffff7ff        and	%r0,%r0,0xffff_f7ff		; 0xffff_f7ff = .regmask_lo+0x7fbf800
c59c: 68000400                 or	%r0,%r0,%r2
c5a0: 10008000                 st	%r0,[%r1]
c5a4: 603f7c00 081a0000        mov	%r1,0x81a_0000		; 0x81a_0000 = .regmask_hi+0x1a0000
c5ac: 14008000                 st.di	%r0,[%r1]
c5b0: 380f8000                 j	[%blink]
FH_VE_getm_RGBConf_YCRCB:
c5b4: 601f7c00 00019890        mov	%r0,0x1_9890		; m_ve_rgbconf
c5bc: 08000000                 ld	%r0,[%r0]
c5c0: 88007e0b                 lsr	%r0,%r0,11
c5c4: 60007e01                 and	%r0,%r0,1
c5c8: 18000e00                 extb	%r0,%r0
c5cc: 380f8000                 j	[%blink]
FH_VE_set_RGBConf_COLBAR:
c5d0: 60007e01                 and	%r0,%r0,1
c5d4: 80407e0c                 asl	%r2,%r0,12
c5d8: 603f7c00 00019890        mov	%r1,0x1_9890		; m_ve_rgbconf
c5e0: 08008000                 ld	%r0,[%r1]
c5e4: 60007c00 ffffefff        and	%r0,%r0,0xffff_efff		; 0xffff_efff = .regmask_lo+0x7fbf000
c5ec: 68000400                 or	%r0,%r0,%r2
c5f0: 10008000                 st	%r0,[%r1]
c5f4: 603f7c00 081a0000        mov	%r1,0x81a_0000		; 0x81a_0000 = .regmask_hi+0x1a0000
c5fc: 14008000                 st.di	%r0,[%r1]
c600: 380f8000                 j	[%blink]
FH_VE_getm_RGBConf_COLBAR:
c604: 601f7c00 00019890        mov	%r0,0x1_9890		; m_ve_rgbconf
c60c: 08000000                 ld	%r0,[%r0]
c610: 88007e0c                 lsr	%r0,%r0,12
c614: 60007e01                 and	%r0,%r0,1
c618: 18000e00                 extb	%r0,%r0
c61c: 380f8000                 j	[%blink]
FH_VE_set_RGBLum:
c620: 603f7c00 00019894        mov	%r1,0x1_9894		; m_ve_rgblum
c628: 10008000                 st	%r0,[%r1]
c62c: 603f7c00 081a0000        mov	%r1,0x81a_0000		; 0x81a_0000 = .regmask_hi+0x1a0000
c634: 14008004                 st.di	%r0,[%r1,4]
c638: 380f8000                 j	[%blink]
FH_VE_getm_RGBLum:
c63c: 601f7c00 00019894        mov	%r0,0x1_9894		; m_ve_rgblum
c644: 08000000                 ld	%r0,[%r0]
c648: 380f8000                 j	[%blink]
FH_VE_set_RGBLum_YVAL:
c64c: 60407e7f                 and	%r2,%r0,127
c650: 603f7c00 00019894        mov	%r1,0x1_9894		; m_ve_rgblum
c658: 08008000                 ld	%r0,[%r1]
c65c: 60007f80                 and	%r0,%r0,-128
c660: 68000400                 or	%r0,%r0,%r2
c664: 10008000                 st	%r0,[%r1]
c668: 603f7c00 081a0000        mov	%r1,0x81a_0000		; 0x81a_0000 = .regmask_hi+0x1a0000
c670: 14008004                 st.di	%r0,[%r1,4]
c674: 380f8000                 j	[%blink]
FH_VE_getm_RGBLum_YVAL:
c678: 601f7c00 00019894        mov	%r0,0x1_9894		; m_ve_rgblum
c680: 08000000                 ld	%r0,[%r0]
c684: 60007e7f                 and	%r0,%r0,127
c688: 18000e00                 extb	%r0,%r0
c68c: 380f8000                 j	[%blink]
FH_VE_set_RGBLum_YOFF:
c690: 603f7c00 00019894        mov	%r1,0x1_9894		; m_ve_rgblum
c698: 10408001                 stb	%r0,[%r1,1]
c69c: 08208000                 ld	%r1,[%r1]
c6a0: 601f7c00 081a0000        mov	%r0,0x81a_0000		; 0x81a_0000 = .regmask_hi+0x1a0000
c6a8: 14000204                 st.di	%r1,[%r0,4]
c6ac: 380f8000                 j	[%blink]
FH_VE_getm_RGBLum_YOFF:
c6b0: 601f7c00 00019894        mov	%r0,0x1_9894		; m_ve_rgblum
c6b8: 08000401                 ldb	%r0,[%r0,1]
c6bc: 380f8000                 j	[%blink]
FH_VE_set_RGBChrom:
c6c0: 603f7c00 00019898        mov	%r1,0x1_9898		; m_ve_rgbchrom
c6c8: 10008000                 st	%r0,[%r1]
c6cc: 603f7c00 081a0000        mov	%r1,0x81a_0000		; 0x81a_0000 = .regmask_hi+0x1a0000
c6d4: 14008008                 st.di	%r0,[%r1,8]
c6d8: 380f8000                 j	[%blink]
FH_VE_getm_RGBChrom:
c6dc: 601f7c00 00019898        mov	%r0,0x1_9898		; m_ve_rgbchrom
c6e4: 08000000                 ld	%r0,[%r0]
c6e8: 380f8000                 j	[%blink]
FH_VE_set_RGBChrom_CBVAL:
c6ec: 60407e7f                 and	%r2,%r0,127
c6f0: 603f7c00 00019898        mov	%r1,0x1_9898		; m_ve_rgbchrom
c6f8: 08008000                 ld	%r0,[%r1]
c6fc: 60007f80                 and	%r0,%r0,-128
c700: 68000400                 or	%r0,%r0,%r2
c704: 10008000                 st	%r0,[%r1]
c708: 603f7c00 081a0000        mov	%r1,0x81a_0000		; 0x81a_0000 = .regmask_hi+0x1a0000
c710: 14008008                 st.di	%r0,[%r1,8]
c714: 380f8000                 j	[%blink]
FH_VE_getm_RGBChrom_CBVAL:
c718: 601f7c00 00019898        mov	%r0,0x1_9898		; m_ve_rgbchrom
c720: 08000000                 ld	%r0,[%r0]
c724: 60007e7f                 and	%r0,%r0,127
c728: 18000e00                 extb	%r0,%r0
c72c: 380f8000                 j	[%blink]
FH_VE_set_RGBChrom_CRVAL:
c730: 60007e7f                 and	%r0,%r0,127
c734: 80407e08                 asl	%r2,%r0,8
c738: 603f7c00 00019898        mov	%r1,0x1_9898		; m_ve_rgbchrom
c740: 08008000                 ld	%r0,[%r1]
c744: 60007c00 ffff80ff        and	%r0,%r0,0xffff_80ff		; 0xffff_80ff = .regmask_lo+0x7fb8100
c74c: 68000400                 or	%r0,%r0,%r2
c750: 10008000                 st	%r0,[%r1]
c754: 603f7c00 081a0000        mov	%r1,0x81a_0000		; 0x81a_0000 = .regmask_hi+0x1a0000
c75c: 14008008                 st.di	%r0,[%r1,8]
c760: 380f8000                 j	[%blink]
FH_VE_getm_RGBChrom_CRVAL:
c764: 601f7c00 00019898        mov	%r0,0x1_9898		; m_ve_rgbchrom
c76c: 08000000                 ld	%r0,[%r0]
c770: 88007e08                 lsr	%r0,%r0,8
c774: 60007e7f                 and	%r0,%r0,127
c778: 18000e00                 extb	%r0,%r0
c77c: 380f8000                 j	[%blink]
FH_VE_set_CEConf:
c780: 603f7c00 0001989c        mov	%r1,0x1_989c		; m_ve_ceconf
c788: 10008000                 st	%r0,[%r1]
c78c: 603f7c00 081a0000        mov	%r1,0x81a_0000		; 0x81a_0000 = .regmask_hi+0x1a0000
c794: 1400800c                 st.di	%r0,[%r1,12]
c798: 380f8000                 j	[%blink]
FH_VE_getm_CEConf:
c79c: 601f7c00 0001989c        mov	%r0,0x1_989c		; m_ve_ceconf
c7a4: 08000000                 ld	%r0,[%r0]
c7a8: 380f8000                 j	[%blink]
FH_VE_set_CEConf_PSLEV:
c7ac: 60407e01                 and	%r2,%r0,1
c7b0: 603f7c00 0001989c        mov	%r1,0x1_989c		; m_ve_ceconf
c7b8: 08008000                 ld	%r0,[%r1]
c7bc: 60007ffe                 and	%r0,%r0,-2
c7c0: 68000400                 or	%r0,%r0,%r2
c7c4: 10008000                 st	%r0,[%r1]
c7c8: 603f7c00 081a0000        mov	%r1,0x81a_0000		; 0x81a_0000 = .regmask_hi+0x1a0000
c7d0: 1400800c                 st.di	%r0,[%r1,12]
c7d4: 380f8000                 j	[%blink]
FH_VE_getm_CEConf_PSLEV:
c7d8: 601f7c00 0001989c        mov	%r0,0x1_989c		; m_ve_ceconf
c7e0: 08000000                 ld	%r0,[%r0]
c7e4: 60007e01                 and	%r0,%r0,1
c7e8: 18000e00                 extb	%r0,%r0
c7ec: 380f8000                 j	[%blink]
FH_VE_set_CEConf_M1M0:
c7f0: 60007e03                 and	%r0,%r0,3
c7f4: 40400000                 asl	%r2,%r0
c7f8: 603f7c00 0001989c        mov	%r1,0x1_989c		; m_ve_ceconf
c800: 08008000                 ld	%r0,[%r1]
c804: 60007ff9                 and	%r0,%r0,-7
c808: 68000400                 or	%r0,%r0,%r2
c80c: 10008000                 st	%r0,[%r1]
c810: 603f7c00 081a0000        mov	%r1,0x81a_0000		; 0x81a_0000 = .regmask_hi+0x1a0000
c818: 1400800c                 st.di	%r0,[%r1,12]
c81c: 380f8000                 j	[%blink]
FH_VE_getm_CEConf_M1M0:
c820: 601f7c00 0001989c        mov	%r0,0x1_989c		; m_ve_ceconf
c828: 08000000                 ld	%r0,[%r0]
c82c: 18000400                 lsr	%r0,%r0
c830: 60007e03                 and	%r0,%r0,3
c834: 18000e00                 extb	%r0,%r0
c838: 380f8000                 j	[%blink]
FH_VE_set_CEConf_PAL:
c83c: 60007e01                 and	%r0,%r0,1
c840: 80407e03                 asl	%r2,%r0,3
c844: 603f7c00 0001989c        mov	%r1,0x1_989c		; m_ve_ceconf
c84c: 08008000                 ld	%r0,[%r1]
c850: 60007ff7                 and	%r0,%r0,-9
c854: 68000400                 or	%r0,%r0,%r2
c858: 10008000                 st	%r0,[%r1]
c85c: 603f7c00 081a0000        mov	%r1,0x81a_0000		; 0x81a_0000 = .regmask_hi+0x1a0000
c864: 1400800c                 st.di	%r0,[%r1,12]
c868: 380f8000                 j	[%blink]
FH_VE_getm_CEConf_PAL:
c86c: 601f7c00 0001989c        mov	%r0,0x1_989c		; m_ve_ceconf
c874: 08000000                 ld	%r0,[%r0]
c878: 88007e03                 lsr	%r0,%r0,3
c87c: 60007e01                 and	%r0,%r0,1
c880: 18000e00                 extb	%r0,%r0
c884: 380f8000                 j	[%blink]
FH_VE_set_CEConf_PAL525:
c888: 60007e01                 and	%r0,%r0,1
c88c: 80407e04                 asl	%r2,%r0,4
c890: 603f7c00 0001989c        mov	%r1,0x1_989c		; m_ve_ceconf
c898: 08008000                 ld	%r0,[%r1]
c89c: 60007fef                 and	%r0,%r0,-17
c8a0: 68000400                 or	%r0,%r0,%r2
c8a4: 10008000                 st	%r0,[%r1]
c8a8: 603f7c00 081a0000        mov	%r1,0x81a_0000		; 0x81a_0000 = .regmask_hi+0x1a0000
c8b0: 1400800c                 st.di	%r0,[%r1,12]
c8b4: 380f8000                 j	[%blink]
FH_VE_getm_CEConf_PAL525:
c8b8: 601f7c00 0001989c        mov	%r0,0x1_989c		; m_ve_ceconf
c8c0: 08000000                 ld	%r0,[%r0]
c8c4: 88007e04                 lsr	%r0,%r0,4
c8c8: 60007e01                 and	%r0,%r0,1
c8cc: 18000e00                 extb	%r0,%r0
c8d0: 380f8000                 j	[%blink]
FH_VE_set_CEConf_M3DB:
c8d4: 60007e03                 and	%r0,%r0,3
c8d8: 80407e05                 asl	%r2,%r0,5
c8dc: 603f7c00 0001989c        mov	%r1,0x1_989c		; m_ve_ceconf
c8e4: 08008000                 ld	%r0,[%r1]
c8e8: 60007f9f                 and	%r0,%r0,-97
c8ec: 68000400                 or	%r0,%r0,%r2
c8f0: 10008000                 st	%r0,[%r1]
c8f4: 603f7c00 081a0000        mov	%r1,0x81a_0000		; 0x81a_0000 = .regmask_hi+0x1a0000
c8fc: 1400800c                 st.di	%r0,[%r1,12]
c900: 380f8000                 j	[%blink]
FH_VE_getm_CEConf_M3DB:
c904: 601f7c00 0001989c        mov	%r0,0x1_989c		; m_ve_ceconf
c90c: 08000000                 ld	%r0,[%r0]
c910: 88007e05                 lsr	%r0,%r0,5
c914: 60007e03                 and	%r0,%r0,3
c918: 18000e00                 extb	%r0,%r0
c91c: 380f8000                 j	[%blink]
FH_VE_set_CEConf_CYSEL:
c920: 60007e01                 and	%r0,%r0,1
c924: 80407e07                 asl	%r2,%r0,7
c928: 603f7c00 0001989c        mov	%r1,0x1_989c		; m_ve_ceconf
c930: 08008000                 ld	%r0,[%r1]
c934: 60007f7f                 and	%r0,%r0,-129
c938: 68000400                 or	%r0,%r0,%r2
c93c: 10008000                 st	%r0,[%r1]
c940: 603f7c00 081a0000        mov	%r1,0x81a_0000		; 0x81a_0000 = .regmask_hi+0x1a0000
c948: 1400800c                 st.di	%r0,[%r1,12]
c94c: 380f8000                 j	[%blink]
FH_VE_getm_CEConf_CYSEL:
c950: 601f7c00 0001989c        mov	%r0,0x1_989c		; m_ve_ceconf
c958: 08000000                 ld	%r0,[%r0]
c95c: 88007e07                 lsr	%r0,%r0,7
c960: 60007e01                 and	%r0,%r0,1
c964: 18000e00                 extb	%r0,%r0
c968: 380f8000                 j	[%blink]
FH_VE_set_CEConf_CYDLY:
c96c: 60007e07                 and	%r0,%r0,7
c970: 80407e08                 asl	%r2,%r0,8
c974: 603f7c00 0001989c        mov	%r1,0x1_989c		; m_ve_ceconf
c97c: 08008000                 ld	%r0,[%r1]
c980: 60007c00 fffff8ff        and	%r0,%r0,0xffff_f8ff		; 0xffff_f8ff = .regmask_lo+0x7fbf900
c988: 68000400                 or	%r0,%r0,%r2
c98c: 10008000                 st	%r0,[%r1]
c990: 603f7c00 081a0000        mov	%r1,0x81a_0000		; 0x81a_0000 = .regmask_hi+0x1a0000
c998: 1400800c                 st.di	%r0,[%r1,12]
c99c: 380f8000                 j	[%blink]
FH_VE_getm_CEConf_CYDLY:
c9a0: 601f7c00 0001989c        mov	%r0,0x1_989c		; m_ve_ceconf
c9a8: 08000000                 ld	%r0,[%r0]
c9ac: 88007e08                 lsr	%r0,%r0,8
c9b0: 60007e07                 and	%r0,%r0,7
c9b4: 18000e00                 extb	%r0,%r0
c9b8: 380f8000                 j	[%blink]
FH_VE_set_CEConf_XSYNCMX:
c9bc: 60007e01                 and	%r0,%r0,1
c9c0: 80407e0b                 asl	%r2,%r0,11
c9c4: 603f7c00 0001989c        mov	%r1,0x1_989c		; m_ve_ceconf
c9cc: 08008000                 ld	%r0,[%r1]
c9d0: 60007c00 fffff7ff        and	%r0,%r0,0xffff_f7ff		; 0xffff_f7ff = .regmask_lo+0x7fbf800
c9d8: 68000400                 or	%r0,%r0,%r2
c9dc: 10008000                 st	%r0,[%r1]
c9e0: 603f7c00 081a0000        mov	%r1,0x81a_0000		; 0x81a_0000 = .regmask_hi+0x1a0000
c9e8: 1400800c                 st.di	%r0,[%r1,12]
c9ec: 380f8000                 j	[%blink]
FH_VE_getm_CEConf_XSYNCMX:
c9f0: 601f7c00 0001989c        mov	%r0,0x1_989c		; m_ve_ceconf
c9f8: 08000000                 ld	%r0,[%r0]
c9fc: 88007e0b                 lsr	%r0,%r0,11
ca00: 60007e01                 and	%r0,%r0,1
ca04: 18000e00                 extb	%r0,%r0
ca08: 380f8000                 j	[%blink]
FH_VE_set_CEConf_BWGUI:
ca0c: 60007e01                 and	%r0,%r0,1
ca10: 80407e0c                 asl	%r2,%r0,12
ca14: 603f7c00 0001989c        mov	%r1,0x1_989c		; m_ve_ceconf
ca1c: 08008000                 ld	%r0,[%r1]
ca20: 60007c00 ffffefff        and	%r0,%r0,0xffff_efff		; 0xffff_efff = .regmask_lo+0x7fbf000
ca28: 68000400                 or	%r0,%r0,%r2
ca2c: 10008000                 st	%r0,[%r1]
ca30: 603f7c00 081a0000        mov	%r1,0x81a_0000		; 0x81a_0000 = .regmask_hi+0x1a0000
ca38: 1400800c                 st.di	%r0,[%r1,12]
ca3c: 380f8000                 j	[%blink]
FH_VE_getm_CEConf_BWGUI:
ca40: 601f7c00 0001989c        mov	%r0,0x1_989c		; m_ve_ceconf
ca48: 08000000                 ld	%r0,[%r0]
ca4c: 88007e0c                 lsr	%r0,%r0,12
ca50: 60007e01                 and	%r0,%r0,1
ca54: 18000e00                 extb	%r0,%r0
ca58: 380f8000                 j	[%blink]
FH_VE_set_CEConf_IPCE1SEL:
ca5c: 60007e01                 and	%r0,%r0,1
ca60: 80407e0d                 asl	%r2,%r0,13
ca64: 603f7c00 0001989c        mov	%r1,0x1_989c		; m_ve_ceconf
ca6c: 08008000                 ld	%r0,[%r1]
ca70: 60007c00 ffffdfff        and	%r0,%r0,0xffff_dfff		; 0xffff_dfff = .regmask_lo+0x7fbe000
ca78: 68000400                 or	%r0,%r0,%r2
ca7c: 10008000                 st	%r0,[%r1]
ca80: 603f7c00 081a0000        mov	%r1,0x81a_0000		; 0x81a_0000 = .regmask_hi+0x1a0000
ca88: 1400800c                 st.di	%r0,[%r1,12]
ca8c: 380f8000                 j	[%blink]
FH_VE_getm_CEConf_IPCE1SEL:
ca90: 601f7c00 0001989c        mov	%r0,0x1_989c		; m_ve_ceconf
ca98: 08000000                 ld	%r0,[%r0]
ca9c: 88007e0d                 lsr	%r0,%r0,13
caa0: 60007e01                 and	%r0,%r0,1
caa4: 18000e00                 extb	%r0,%r0
caa8: 380f8000                 j	[%blink]
FH_VE_set_CEConf_TTXEN:
caac: 60007e01                 and	%r0,%r0,1
cab0: 80407e0e                 asl	%r2,%r0,14
cab4: 603f7c00 0001989c        mov	%r1,0x1_989c		; m_ve_ceconf
cabc: 08008000                 ld	%r0,[%r1]
cac0: 60007c00 ffffbfff        and	%r0,%r0,0xffff_bfff		; 0xffff_bfff = .regmask_lo+0x7fbc000
cac8: 68000400                 or	%r0,%r0,%r2
cacc: 10008000                 st	%r0,[%r1]
cad0: 603f7c00 081a0000        mov	%r1,0x81a_0000		; 0x81a_0000 = .regmask_hi+0x1a0000
cad8: 1400800c                 st.di	%r0,[%r1,12]
cadc: 380f8000                 j	[%blink]
FH_VE_getm_CEConf_TTXEN:
cae0: 601f7c00 0001989c        mov	%r0,0x1_989c		; m_ve_ceconf
cae8: 08000000                 ld	%r0,[%r0]
caec: 88007e0e                 lsr	%r0,%r0,14
caf0: 60007e01                 and	%r0,%r0,1
caf4: 18000e00                 extb	%r0,%r0
caf8: 380f8000                 j	[%blink]
FH_VE_set_CEConf_SECAM:
cafc: 60007e01                 and	%r0,%r0,1
cb00: 80407e0f                 asl	%r2,%r0,15
cb04: 603f7c00 0001989c        mov	%r1,0x1_989c		; m_ve_ceconf
cb0c: 08008000                 ld	%r0,[%r1]
cb10: 60007c00 ffff7fff        and	%r0,%r0,0xffff_7fff		; 0xffff_7fff = .regmask_lo+0x7fb8000
cb18: 68000400                 or	%r0,%r0,%r2
cb1c: 10008000                 st	%r0,[%r1]
cb20: 603f7c00 081a0000        mov	%r1,0x81a_0000		; 0x81a_0000 = .regmask_hi+0x1a0000
cb28: 1400800c                 st.di	%r0,[%r1,12]
cb2c: 380f8000                 j	[%blink]
FH_VE_getm_CEConf_SECAM:
cb30: 601f7c00 0001989c        mov	%r0,0x1_989c		; m_ve_ceconf
cb38: 08000000                 ld	%r0,[%r0]
cb3c: 88007e0f                 lsr	%r0,%r0,15
cb40: 60007e01                 and	%r0,%r0,1
cb44: 18000e00                 extb	%r0,%r0
cb48: 380f8000                 j	[%blink]
FH_VE_set_CEBurstInt:
cb4c: 603f7c00 000198a0        mov	%r1,0x1_98a0		; m_ve_ceburstint
cb54: 10008000                 st	%r0,[%r1]
cb58: 603f7c00 081a0000        mov	%r1,0x81a_0000		; 0x81a_0000 = .regmask_hi+0x1a0000
cb60: 14008010                 st.di	%r0,[%r1,16]
cb64: 380f8000                 j	[%blink]
FH_VE_getm_CEBurstInt:
cb68: 601f7c00 000198a0        mov	%r0,0x1_98a0		; m_ve_ceburstint
cb70: 08000000                 ld	%r0,[%r0]
cb74: 380f8000                 j	[%blink]
FH_VE_set_CEBurstInt_FSCINT:
cb78: 60407c00 00000fff        and	%r2,%r0,0xfff		; 0xfff = DEXP_MAX+0x800
cb80: 603f7c00 000198a0        mov	%r1,0x1_98a0		; m_ve_ceburstint
cb88: 08008000                 ld	%r0,[%r1]
cb8c: 60007c00 fffff000        and	%r0,%r0,0xffff_f000		; 0xffff_f000 = .regmask_lo+0x7fbf001
cb94: 68000400                 or	%r0,%r0,%r2
cb98: 10008000                 st	%r0,[%r1]
cb9c: 603f7c00 081a0000        mov	%r1,0x81a_0000		; 0x81a_0000 = .regmask_hi+0x1a0000
cba4: 14008010                 st.di	%r0,[%r1,16]
cba8: 380f8000                 j	[%blink]
FH_VE_getm_CEBurstInt_FSCINT:
cbac: 601f7c00 000198a0        mov	%r0,0x1_98a0		; m_ve_ceburstint
cbb4: 08000000                 ld	%r0,[%r0]
cbb8: 60007c00 00000fff        and	%r0,%r0,0xfff		; 0xfff = DEXP_MAX+0x800
cbc0: 18001000                 extw	%r0,%r0
cbc4: 380f8000                 j	[%blink]
FH_VE_set_CEBurstInt_ENABLE_PAL_CORRECTION:
cbc8: 60007e01                 and	%r0,%r0,1
cbcc: 80407e0c                 asl	%r2,%r0,12
cbd0: 603f7c00 000198a0        mov	%r1,0x1_98a0		; m_ve_ceburstint
cbd8: 08008000                 ld	%r0,[%r1]
cbdc: 60007c00 ffffefff        and	%r0,%r0,0xffff_efff		; 0xffff_efff = .regmask_lo+0x7fbf000
cbe4: 68000400                 or	%r0,%r0,%r2
cbe8: 10008000                 st	%r0,[%r1]
cbec: 603f7c00 081a0000        mov	%r1,0x81a_0000		; 0x81a_0000 = .regmask_hi+0x1a0000
cbf4: 14008010                 st.di	%r0,[%r1,16]
cbf8: 380f8000                 j	[%blink]
FH_VE_getm_CEBurstInt_ENABLE_PAL_CORRECTION:
cbfc: 601f7c00 000198a0        mov	%r0,0x1_98a0		; m_ve_ceburstint
cc04: 08000000                 ld	%r0,[%r0]
cc08: 88007e0c                 lsr	%r0,%r0,12
cc0c: 60007e01                 and	%r0,%r0,1
cc10: 18000e00                 extb	%r0,%r0
cc14: 380f8000                 j	[%blink]
FH_VE_set_CEBurstFra1:
cc18: 603f7c00 000198a4        mov	%r1,0x1_98a4		; m_ve_ceburstfra1
cc20: 10008000                 st	%r0,[%r1]
cc24: 603f7c00 081a0000        mov	%r1,0x81a_0000		; 0x81a_0000 = .regmask_hi+0x1a0000
cc2c: 14008014                 st.di	%r0,[%r1,20]
cc30: 380f8000                 j	[%blink]
FH_VE_getm_CEBurstFra1:
cc34: 601f7c00 000198a4        mov	%r0,0x1_98a4		; m_ve_ceburstfra1
cc3c: 08000000                 ld	%r0,[%r0]
cc40: 380f8000                 j	[%blink]
FH_VE_set_CEBurstFra2:
cc44: 603f7c00 000198a8        mov	%r1,0x1_98a8		; m_ve_ceburstfra2
cc4c: 10008000                 st	%r0,[%r1]
cc50: 603f7c00 081a0000        mov	%r1,0x81a_0000		; 0x81a_0000 = .regmask_hi+0x1a0000
cc58: 14008018                 st.di	%r0,[%r1,24]
cc5c: 380f8000                 j	[%blink]
FH_VE_getm_CEBurstFra2:
cc60: 601f7c00 000198a8        mov	%r0,0x1_98a8		; m_ve_ceburstfra2
cc68: 08000000                 ld	%r0,[%r0]
cc6c: 380f8000                 j	[%blink]
FH_VE_set_MuxDacConf1:
cc70: 603f7c00 000198ac        mov	%r1,0x1_98ac		; m_ve_muxdacconf1
cc78: 10008000                 st	%r0,[%r1]
cc7c: 603f7c00 081a0000        mov	%r1,0x81a_0000		; 0x81a_0000 = .regmask_hi+0x1a0000
cc84: 1400801c                 st.di	%r0,[%r1,28]
cc88: 380f8000                 j	[%blink]
FH_VE_getm_MuxDacConf1:
cc8c: 601f7c00 000198ac        mov	%r0,0x1_98ac		; m_ve_muxdacconf1
cc94: 08000000                 ld	%r0,[%r0]
cc98: 380f8000                 j	[%blink]
FH_VE_set_MuxDacConf1_SEL1:
cc9c: 60407e07                 and	%r2,%r0,7
cca0: 603f7c00 000198ac        mov	%r1,0x1_98ac		; m_ve_muxdacconf1
cca8: 08008000                 ld	%r0,[%r1]
ccac: 60007ff8                 and	%r0,%r0,-8
ccb0: 68000400                 or	%r0,%r0,%r2
ccb4: 10008000                 st	%r0,[%r1]
ccb8: 603f7c00 081a0000        mov	%r1,0x81a_0000		; 0x81a_0000 = .regmask_hi+0x1a0000
ccc0: 1400801c                 st.di	%r0,[%r1,28]
ccc4: 380f8000                 j	[%blink]
FH_VE_getm_MuxDacConf1_SEL1:
ccc8: 601f7c00 000198ac        mov	%r0,0x1_98ac		; m_ve_muxdacconf1
ccd0: 08000000                 ld	%r0,[%r0]
ccd4: 60007e07                 and	%r0,%r0,7
ccd8: 18000e00                 extb	%r0,%r0
ccdc: 380f8000                 j	[%blink]
FH_VE_set_MuxDacConf1_SEL2:
cce0: 60007e07                 and	%r0,%r0,7
cce4: 80407e03                 asl	%r2,%r0,3
cce8: 603f7c00 000198ac        mov	%r1,0x1_98ac		; m_ve_muxdacconf1
ccf0: 08008000                 ld	%r0,[%r1]
ccf4: 60007fc7                 and	%r0,%r0,-57
ccf8: 68000400                 or	%r0,%r0,%r2
ccfc: 10008000                 st	%r0,[%r1]
cd00: 603f7c00 081a0000        mov	%r1,0x81a_0000		; 0x81a_0000 = .regmask_hi+0x1a0000
cd08: 1400801c                 st.di	%r0,[%r1,28]
cd0c: 380f8000                 j	[%blink]
FH_VE_getm_MuxDacConf1_SEL2:
cd10: 601f7c00 000198ac        mov	%r0,0x1_98ac		; m_ve_muxdacconf1
cd18: 08000000                 ld	%r0,[%r0]
cd1c: 88007e03                 lsr	%r0,%r0,3
cd20: 60007e07                 and	%r0,%r0,7
cd24: 18000e00                 extb	%r0,%r0
cd28: 380f8000                 j	[%blink]
FH_VE_set_MuxDacConf1_SEL3:
cd2c: 60007e07                 and	%r0,%r0,7
cd30: 80407e06                 asl	%r2,%r0,6
cd34: 603f7c00 000198ac        mov	%r1,0x1_98ac		; m_ve_muxdacconf1
cd3c: 08008000                 ld	%r0,[%r1]
cd40: 60007c00 fffffe3f        and	%r0,%r0,0xffff_fe3f		; 0xffff_fe3f = .regmask_lo+0x7fbfe40
cd48: 68000400                 or	%r0,%r0,%r2
cd4c: 10008000                 st	%r0,[%r1]
cd50: 603f7c00 081a0000        mov	%r1,0x81a_0000		; 0x81a_0000 = .regmask_hi+0x1a0000
cd58: 1400801c                 st.di	%r0,[%r1,28]
cd5c: 380f8000                 j	[%blink]
FH_VE_getm_MuxDacConf1_SEL3:
cd60: 601f7c00 000198ac        mov	%r0,0x1_98ac		; m_ve_muxdacconf1
cd68: 08000000                 ld	%r0,[%r0]
cd6c: 88007e06                 lsr	%r0,%r0,6
cd70: 60007e07                 and	%r0,%r0,7
cd74: 18000e00                 extb	%r0,%r0
cd78: 380f8000                 j	[%blink]
FH_VE_set_MuxDacConf1_SEL4:
cd7c: 60007e07                 and	%r0,%r0,7
cd80: 80407e09                 asl	%r2,%r0,9
cd84: 603f7c00 000198ac        mov	%r1,0x1_98ac		; m_ve_muxdacconf1
cd8c: 08008000                 ld	%r0,[%r1]
cd90: 60007c00 fffff1ff        and	%r0,%r0,0xffff_f1ff		; 0xffff_f1ff = .regmask_lo+0x7fbf200
cd98: 68000400                 or	%r0,%r0,%r2
cd9c: 10008000                 st	%r0,[%r1]
cda0: 603f7c00 081a0000        mov	%r1,0x81a_0000		; 0x81a_0000 = .regmask_hi+0x1a0000
cda8: 1400801c                 st.di	%r0,[%r1,28]
cdac: 380f8000                 j	[%blink]
FH_VE_getm_MuxDacConf1_SEL4:
cdb0: 601f7c00 000198ac        mov	%r0,0x1_98ac		; m_ve_muxdacconf1
cdb8: 08000000                 ld	%r0,[%r0]
cdbc: 88007e09                 lsr	%r0,%r0,9
cdc0: 60007e07                 and	%r0,%r0,7
cdc4: 18000e00                 extb	%r0,%r0
cdc8: 380f8000                 j	[%blink]
FH_VE_set_MuxDacConf1_SEL5:
cdcc: 60007e03                 and	%r0,%r0,3
cdd0: 80407e0c                 asl	%r2,%r0,12
cdd4: 603f7c00 000198ac        mov	%r1,0x1_98ac		; m_ve_muxdacconf1
cddc: 08008000                 ld	%r0,[%r1]
cde0: 60007c00 ffffcfff        and	%r0,%r0,0xffff_cfff		; 0xffff_cfff = .regmask_lo+0x7fbd000
cde8: 68000400                 or	%r0,%r0,%r2
cdec: 10008000                 st	%r0,[%r1]
cdf0: 603f7c00 081a0000        mov	%r1,0x81a_0000		; 0x81a_0000 = .regmask_hi+0x1a0000
cdf8: 1400801c                 st.di	%r0,[%r1,28]
cdfc: 380f8000                 j	[%blink]
FH_VE_getm_MuxDacConf1_SEL5:
ce00: 601f7c00 000198ac        mov	%r0,0x1_98ac		; m_ve_muxdacconf1
ce08: 08000000                 ld	%r0,[%r0]
ce0c: 88007e0c                 lsr	%r0,%r0,12
ce10: 60007e03                 and	%r0,%r0,3
ce14: 18000e00                 extb	%r0,%r0
ce18: 380f8000                 j	[%blink]
FH_VE_set_MuxDacConf1_PDREF1:
ce1c: 60007e01                 and	%r0,%r0,1
ce20: 80407e0e                 asl	%r2,%r0,14
ce24: 603f7c00 000198ac        mov	%r1,0x1_98ac		; m_ve_muxdacconf1
ce2c: 08008000                 ld	%r0,[%r1]
ce30: 60007c00 ffffbfff        and	%r0,%r0,0xffff_bfff		; 0xffff_bfff = .regmask_lo+0x7fbc000
ce38: 68000400                 or	%r0,%r0,%r2
ce3c: 10008000                 st	%r0,[%r1]
ce40: 603f7c00 081a0000        mov	%r1,0x81a_0000		; 0x81a_0000 = .regmask_hi+0x1a0000
ce48: 1400801c                 st.di	%r0,[%r1,28]
ce4c: 380f8000                 j	[%blink]
FH_VE_getm_MuxDacConf1_PDREF1:
ce50: 601f7c00 000198ac        mov	%r0,0x1_98ac		; m_ve_muxdacconf1
ce58: 08000000                 ld	%r0,[%r0]
ce5c: 88007e0e                 lsr	%r0,%r0,14
ce60: 60007e01                 and	%r0,%r0,1
ce64: 18000e00                 extb	%r0,%r0
ce68: 380f8000                 j	[%blink]
FH_VE_set_MuxDacConf1_PDREF2:
ce6c: 60007e01                 and	%r0,%r0,1
ce70: 80407e0f                 asl	%r2,%r0,15
ce74: 603f7c00 000198ac        mov	%r1,0x1_98ac		; m_ve_muxdacconf1
ce7c: 08008000                 ld	%r0,[%r1]
ce80: 60007c00 ffff7fff        and	%r0,%r0,0xffff_7fff		; 0xffff_7fff = .regmask_lo+0x7fb8000
ce88: 68000400                 or	%r0,%r0,%r2
ce8c: 10008000                 st	%r0,[%r1]
ce90: 603f7c00 081a0000        mov	%r1,0x81a_0000		; 0x81a_0000 = .regmask_hi+0x1a0000
ce98: 1400801c                 st.di	%r0,[%r1,28]
ce9c: 380f8000                 j	[%blink]
FH_VE_getm_MuxDacConf1_PDREF2:
cea0: 601f7c00 000198ac        mov	%r0,0x1_98ac		; m_ve_muxdacconf1
cea8: 08000000                 ld	%r0,[%r0]
ceac: 88007e0f                 lsr	%r0,%r0,15
ceb0: 60007e01                 and	%r0,%r0,1
ceb4: 18000e00                 extb	%r0,%r0
ceb8: 380f8000                 j	[%blink]
FH_VE_set_MuxDacConf2:
cebc: 603f7c00 000198b0        mov	%r1,0x1_98b0		; m_ve_muxdacconf2
cec4: 10008000                 st	%r0,[%r1]
cec8: 603f7c00 081a0000        mov	%r1,0x81a_0000		; 0x81a_0000 = .regmask_hi+0x1a0000
ced0: 14008020                 st.di	%r0,[%r1,32]
ced4: 380f8000                 j	[%blink]
FH_VE_getm_MuxDacConf2:
ced8: 601f7c00 000198b0        mov	%r0,0x1_98b0		; m_ve_muxdacconf2
cee0: 08000000                 ld	%r0,[%r0]
cee4: 380f8000                 j	[%blink]
FH_VE_set_MuxDacConf2_CONSTVAL1:
cee8: 60407c00 000003ff        and	%r2,%r0,0x3ff		; DEXP_BIAS
cef0: 603f7c00 000198b0        mov	%r1,0x1_98b0		; m_ve_muxdacconf2
cef8: 08008000                 ld	%r0,[%r1]
cefc: 60007c00 fffffc00        and	%r0,%r0,0xffff_fc00		; 0xffff_fc00 = .regmask_lo+0x7fbfc01
cf04: 68000400                 or	%r0,%r0,%r2
cf08: 10008000                 st	%r0,[%r1]
cf0c: 603f7c00 081a0000        mov	%r1,0x81a_0000		; 0x81a_0000 = .regmask_hi+0x1a0000
cf14: 14008020                 st.di	%r0,[%r1,32]
cf18: 380f8000                 j	[%blink]
FH_VE_getm_MuxDacConf2_CONSTVAL1:
cf1c: 601f7c00 000198b0        mov	%r0,0x1_98b0		; m_ve_muxdacconf2
cf24: 08000000                 ld	%r0,[%r0]
cf28: 60007c00 000003ff        and	%r0,%r0,0x3ff		; DEXP_BIAS
cf30: 18001000                 extw	%r0,%r0
cf34: 380f8000                 j	[%blink]
FH_VE_set_MuxDacConf2_PDDAC1:
cf38: 60007e01                 and	%r0,%r0,1
cf3c: 80407e0a                 asl	%r2,%r0,10
cf40: 603f7c00 000198b0        mov	%r1,0x1_98b0		; m_ve_muxdacconf2
cf48: 08008000                 ld	%r0,[%r1]
cf4c: 60007c00 fffffbff        and	%r0,%r0,0xffff_fbff		; 0xffff_fbff = .regmask_lo+0x7fbfc00
cf54: 68000400                 or	%r0,%r0,%r2
cf58: 10008000                 st	%r0,[%r1]
cf5c: 603f7c00 081a0000        mov	%r1,0x81a_0000		; 0x81a_0000 = .regmask_hi+0x1a0000
cf64: 14008020                 st.di	%r0,[%r1,32]
cf68: 380f8000                 j	[%blink]
FH_VE_getm_MuxDacConf2_PDDAC1:
cf6c: 601f7c00 000198b0        mov	%r0,0x1_98b0		; m_ve_muxdacconf2
cf74: 08000000                 ld	%r0,[%r0]
cf78: 88007e0a                 lsr	%r0,%r0,10
cf7c: 60007e01                 and	%r0,%r0,1
cf80: 18000e00                 extb	%r0,%r0
cf84: 380f8000                 j	[%blink]
FH_VE_set_MuxDacConf2_PDDAC2:
cf88: 60007e01                 and	%r0,%r0,1
cf8c: 80407e0b                 asl	%r2,%r0,11
cf90: 603f7c00 000198b0        mov	%r1,0x1_98b0		; m_ve_muxdacconf2
cf98: 08008000                 ld	%r0,[%r1]
cf9c: 60007c00 fffff7ff        and	%r0,%r0,0xffff_f7ff		; 0xffff_f7ff = .regmask_lo+0x7fbf800
cfa4: 68000400                 or	%r0,%r0,%r2
cfa8: 10008000                 st	%r0,[%r1]
cfac: 603f7c00 081a0000        mov	%r1,0x81a_0000		; 0x81a_0000 = .regmask_hi+0x1a0000
cfb4: 14008020                 st.di	%r0,[%r1,32]
cfb8: 380f8000                 j	[%blink]
FH_VE_getm_MuxDacConf2_PDDAC2:
cfbc: 601f7c00 000198b0        mov	%r0,0x1_98b0		; m_ve_muxdacconf2
cfc4: 08000000                 ld	%r0,[%r0]
cfc8: 88007e0b                 lsr	%r0,%r0,11
cfcc: 60007e01                 and	%r0,%r0,1
cfd0: 18000e00                 extb	%r0,%r0
cfd4: 380f8000                 j	[%blink]
FH_VE_set_MuxDacConf2_PDDAC3:
cfd8: 60007e01                 and	%r0,%r0,1
cfdc: 80407e0c                 asl	%r2,%r0,12
cfe0: 603f7c00 000198b0        mov	%r1,0x1_98b0		; m_ve_muxdacconf2
cfe8: 08008000                 ld	%r0,[%r1]
cfec: 60007c00 ffffefff        and	%r0,%r0,0xffff_efff		; 0xffff_efff = .regmask_lo+0x7fbf000
cff4: 68000400                 or	%r0,%r0,%r2
cff8: 10008000                 st	%r0,[%r1]
cffc: 603f7c00 081a0000        mov	%r1,0x81a_0000		; 0x81a_0000 = .regmask_hi+0x1a0000
d004: 14008020                 st.di	%r0,[%r1,32]
d008: 380f8000                 j	[%blink]
FH_VE_getm_MuxDacConf2_PDDAC3:
d00c: 601f7c00 000198b0        mov	%r0,0x1_98b0		; m_ve_muxdacconf2
d014: 08000000                 ld	%r0,[%r0]
d018: 88007e0c                 lsr	%r0,%r0,12
d01c: 60007e01                 and	%r0,%r0,1
d020: 18000e00                 extb	%r0,%r0
d024: 380f8000                 j	[%blink]
FH_VE_set_MuxDacConf2_PDDAC4:
d028: 60007e01                 and	%r0,%r0,1
d02c: 80407e0d                 asl	%r2,%r0,13
d030: 603f7c00 000198b0        mov	%r1,0x1_98b0		; m_ve_muxdacconf2
d038: 08008000                 ld	%r0,[%r1]
d03c: 60007c00 ffffdfff        and	%r0,%r0,0xffff_dfff		; 0xffff_dfff = .regmask_lo+0x7fbe000
d044: 68000400                 or	%r0,%r0,%r2
d048: 10008000                 st	%r0,[%r1]
d04c: 603f7c00 081a0000        mov	%r1,0x81a_0000		; 0x81a_0000 = .regmask_hi+0x1a0000
d054: 14008020                 st.di	%r0,[%r1,32]
d058: 380f8000                 j	[%blink]
FH_VE_getm_MuxDacConf2_PDDAC4:
d05c: 601f7c00 000198b0        mov	%r0,0x1_98b0		; m_ve_muxdacconf2
d064: 08000000                 ld	%r0,[%r0]
d068: 88007e0d                 lsr	%r0,%r0,13
d06c: 60007e01                 and	%r0,%r0,1
d070: 18000e00                 extb	%r0,%r0
d074: 380f8000                 j	[%blink]
FH_VE_set_MuxDacConf2_PDDAC5:
d078: 60007e01                 and	%r0,%r0,1
d07c: 80407e0e                 asl	%r2,%r0,14
d080: 603f7c00 000198b0        mov	%r1,0x1_98b0		; m_ve_muxdacconf2
d088: 08008000                 ld	%r0,[%r1]
d08c: 60007c00 ffffbfff        and	%r0,%r0,0xffff_bfff		; 0xffff_bfff = .regmask_lo+0x7fbc000
d094: 68000400                 or	%r0,%r0,%r2
d098: 10008000                 st	%r0,[%r1]
d09c: 603f7c00 081a0000        mov	%r1,0x81a_0000		; 0x81a_0000 = .regmask_hi+0x1a0000
d0a4: 14008020                 st.di	%r0,[%r1,32]
d0a8: 380f8000                 j	[%blink]
FH_VE_getm_MuxDacConf2_PDDAC5:
d0ac: 601f7c00 000198b0        mov	%r0,0x1_98b0		; m_ve_muxdacconf2
d0b4: 08000000                 ld	%r0,[%r0]
d0b8: 88007e0e                 lsr	%r0,%r0,14
d0bc: 60007e01                 and	%r0,%r0,1
d0c0: 18000e00                 extb	%r0,%r0
d0c4: 380f8000                 j	[%blink]
FH_VE_set_MuxDacConf3:
d0c8: 603f7c00 000198b4        mov	%r1,0x1_98b4		; m_ve_muxdacconf3
d0d0: 10008000                 st	%r0,[%r1]
d0d4: 603f7c00 081a0000        mov	%r1,0x81a_0000		; 0x81a_0000 = .regmask_hi+0x1a0000
d0dc: 14008024                 st.di	%r0,[%r1,36]
d0e0: 380f8000                 j	[%blink]
FH_VE_getm_MuxDacConf3:
d0e4: 601f7c00 000198b4        mov	%r0,0x1_98b4		; m_ve_muxdacconf3
d0ec: 08000000                 ld	%r0,[%r0]
d0f0: 380f8000                 j	[%blink]
FH_VE_set_MuxDacConf3_CONSTVAL2:
d0f4: 60407c00 000003ff        and	%r2,%r0,0x3ff		; DEXP_BIAS
d0fc: 603f7c00 000198b4        mov	%r1,0x1_98b4		; m_ve_muxdacconf3
d104: 08008000                 ld	%r0,[%r1]
d108: 60007c00 fffffc00        and	%r0,%r0,0xffff_fc00		; 0xffff_fc00 = .regmask_lo+0x7fbfc01
d110: 68000400                 or	%r0,%r0,%r2
d114: 10008000                 st	%r0,[%r1]
d118: 603f7c00 081a0000        mov	%r1,0x81a_0000		; 0x81a_0000 = .regmask_hi+0x1a0000
d120: 14008024                 st.di	%r0,[%r1,36]
d124: 380f8000                 j	[%blink]
FH_VE_getm_MuxDacConf3_CONSTVAL2:
d128: 601f7c00 000198b4        mov	%r0,0x1_98b4		; m_ve_muxdacconf3
d130: 08000000                 ld	%r0,[%r0]
d134: 60007c00 000003ff        and	%r0,%r0,0x3ff		; DEXP_BIAS
d13c: 18001000                 extw	%r0,%r0
d140: 380f8000                 j	[%blink]
FH_VE_set_MuxDacConf3_INVOP1:
d144: 60007e01                 and	%r0,%r0,1
d148: 80407e0a                 asl	%r2,%r0,10
d14c: 603f7c00 000198b4        mov	%r1,0x1_98b4		; m_ve_muxdacconf3
d154: 08008000                 ld	%r0,[%r1]
d158: 60007c00 fffffbff        and	%r0,%r0,0xffff_fbff		; 0xffff_fbff = .regmask_lo+0x7fbfc00
d160: 68000400                 or	%r0,%r0,%r2
d164: 10008000                 st	%r0,[%r1]
d168: 603f7c00 081a0000        mov	%r1,0x81a_0000		; 0x81a_0000 = .regmask_hi+0x1a0000
d170: 14008024                 st.di	%r0,[%r1,36]
d174: 380f8000                 j	[%blink]
FH_VE_getm_MuxDacConf3_INVOP1:
d178: 601f7c00 000198b4        mov	%r0,0x1_98b4		; m_ve_muxdacconf3
d180: 08000000                 ld	%r0,[%r0]
d184: 88007e0a                 lsr	%r0,%r0,10
d188: 60007e01                 and	%r0,%r0,1
d18c: 18000e00                 extb	%r0,%r0
d190: 380f8000                 j	[%blink]
FH_VE_set_MuxDacConf3_INVOP2:
d194: 60007e01                 and	%r0,%r0,1
d198: 80407e0b                 asl	%r2,%r0,11
d19c: 603f7c00 000198b4        mov	%r1,0x1_98b4		; m_ve_muxdacconf3
d1a4: 08008000                 ld	%r0,[%r1]
d1a8: 60007c00 fffff7ff        and	%r0,%r0,0xffff_f7ff		; 0xffff_f7ff = .regmask_lo+0x7fbf800
d1b0: 68000400                 or	%r0,%r0,%r2
d1b4: 10008000                 st	%r0,[%r1]
d1b8: 603f7c00 081a0000        mov	%r1,0x81a_0000		; 0x81a_0000 = .regmask_hi+0x1a0000
d1c0: 14008024                 st.di	%r0,[%r1,36]
d1c4: 380f8000                 j	[%blink]
FH_VE_getm_MuxDacConf3_INVOP2:
d1c8: 601f7c00 000198b4        mov	%r0,0x1_98b4		; m_ve_muxdacconf3
d1d0: 08000000                 ld	%r0,[%r0]
d1d4: 88007e0b                 lsr	%r0,%r0,11
d1d8: 60007e01                 and	%r0,%r0,1
d1dc: 18000e00                 extb	%r0,%r0
d1e0: 380f8000                 j	[%blink]
FH_VE_set_MuxDacConf3_INVOP3:
d1e4: 60007e01                 and	%r0,%r0,1
d1e8: 80407e0c                 asl	%r2,%r0,12
d1ec: 603f7c00 000198b4        mov	%r1,0x1_98b4		; m_ve_muxdacconf3
d1f4: 08008000                 ld	%r0,[%r1]
d1f8: 60007c00 ffffefff        and	%r0,%r0,0xffff_efff		; 0xffff_efff = .regmask_lo+0x7fbf000
d200: 68000400                 or	%r0,%r0,%r2
d204: 10008000                 st	%r0,[%r1]
d208: 603f7c00 081a0000        mov	%r1,0x81a_0000		; 0x81a_0000 = .regmask_hi+0x1a0000
d210: 14008024                 st.di	%r0,[%r1,36]
d214: 380f8000                 j	[%blink]
FH_VE_getm_MuxDacConf3_INVOP3:
d218: 601f7c00 000198b4        mov	%r0,0x1_98b4		; m_ve_muxdacconf3
d220: 08000000                 ld	%r0,[%r0]
d224: 88007e0c                 lsr	%r0,%r0,12
d228: 60007e01                 and	%r0,%r0,1
d22c: 18000e00                 extb	%r0,%r0
d230: 380f8000                 j	[%blink]
FH_VE_set_MuxDacConf3_INVOP4:
d234: 60007e01                 and	%r0,%r0,1
d238: 80407e0d                 asl	%r2,%r0,13
d23c: 603f7c00 000198b4        mov	%r1,0x1_98b4		; m_ve_muxdacconf3
d244: 08008000                 ld	%r0,[%r1]
d248: 60007c00 ffffdfff        and	%r0,%r0,0xffff_dfff		; 0xffff_dfff = .regmask_lo+0x7fbe000
d250: 68000400                 or	%r0,%r0,%r2
d254: 10008000                 st	%r0,[%r1]
d258: 603f7c00 081a0000        mov	%r1,0x81a_0000		; 0x81a_0000 = .regmask_hi+0x1a0000
d260: 14008024                 st.di	%r0,[%r1,36]
d264: 380f8000                 j	[%blink]
FH_VE_getm_MuxDacConf3_INVOP4:
d268: 601f7c00 000198b4        mov	%r0,0x1_98b4		; m_ve_muxdacconf3
d270: 08000000                 ld	%r0,[%r0]
d274: 88007e0d                 lsr	%r0,%r0,13
d278: 60007e01                 and	%r0,%r0,1
d27c: 18000e00                 extb	%r0,%r0
d280: 380f8000                 j	[%blink]
FH_VE_set_MuxDacConf3_INVOP5:
d284: 60007e01                 and	%r0,%r0,1
d288: 80407e0e                 asl	%r2,%r0,14
d28c: 603f7c00 000198b4        mov	%r1,0x1_98b4		; m_ve_muxdacconf3
d294: 08008000                 ld	%r0,[%r1]
d298: 60007c00 ffffbfff        and	%r0,%r0,0xffff_bfff		; 0xffff_bfff = .regmask_lo+0x7fbc000
d2a0: 68000400                 or	%r0,%r0,%r2
d2a4: 10008000                 st	%r0,[%r1]
d2a8: 603f7c00 081a0000        mov	%r1,0x81a_0000		; 0x81a_0000 = .regmask_hi+0x1a0000
d2b0: 14008024                 st.di	%r0,[%r1,36]
d2b4: 380f8000                 j	[%blink]
FH_VE_getm_MuxDacConf3_INVOP5:
d2b8: 601f7c00 000198b4        mov	%r0,0x1_98b4		; m_ve_muxdacconf3
d2c0: 08000000                 ld	%r0,[%r0]
d2c4: 88007e0e                 lsr	%r0,%r0,14
d2c8: 60007e01                 and	%r0,%r0,1
d2cc: 18000e00                 extb	%r0,%r0
d2d0: 380f8000                 j	[%blink]
FH_VE_set_Enc656WSS:
d2d4: 603f7c00 000198b8        mov	%r1,0x1_98b8		; m_ve_enc656wss
d2dc: 10008000                 st	%r0,[%r1]
d2e0: 603f7c00 081a0000        mov	%r1,0x81a_0000		; 0x81a_0000 = .regmask_hi+0x1a0000
d2e8: 14008028                 st.di	%r0,[%r1,40]
d2ec: 380f8000                 j	[%blink]
FH_VE_getm_Enc656WSS:
d2f0: 601f7c00 000198b8        mov	%r0,0x1_98b8		; m_ve_enc656wss
d2f8: 08000000                 ld	%r0,[%r0]
d2fc: 380f8000                 j	[%blink]
FH_VE_set_Enc656WSS_IP656SEL:
d300: 60407e03                 and	%r2,%r0,3
d304: 603f7c00 000198b8        mov	%r1,0x1_98b8		; m_ve_enc656wss
d30c: 08008000                 ld	%r0,[%r1]
d310: 60007ffc                 and	%r0,%r0,-4
d314: 68000400                 or	%r0,%r0,%r2
d318: 10008000                 st	%r0,[%r1]
d31c: 603f7c00 081a0000        mov	%r1,0x81a_0000		; 0x81a_0000 = .regmask_hi+0x1a0000
d324: 14008028                 st.di	%r0,[%r1,40]
d328: 380f8000                 j	[%blink]
FH_VE_getm_Enc656WSS_IP656SEL:
d32c: 601f7c00 000198b8        mov	%r0,0x1_98b8		; m_ve_enc656wss
d334: 08000000                 ld	%r0,[%r0]
d338: 60007e03                 and	%r0,%r0,3
d33c: 18000e00                 extb	%r0,%r0
d340: 380f8000                 j	[%blink]
FH_VE_set_Enc656WSS_TSDOPSEL:
d344: 60007e07                 and	%r0,%r0,7
d348: 80407e03                 asl	%r2,%r0,3
d34c: 603f7c00 000198b8        mov	%r1,0x1_98b8		; m_ve_enc656wss
d354: 08008000                 ld	%r0,[%r1]
d358: 60007fc7                 and	%r0,%r0,-57
d35c: 68000400                 or	%r0,%r0,%r2
d360: 10008000                 st	%r0,[%r1]
d364: 603f7c00 081a0000        mov	%r1,0x81a_0000		; 0x81a_0000 = .regmask_hi+0x1a0000
d36c: 14008028                 st.di	%r0,[%r1,40]
d370: 380f8000                 j	[%blink]
FH_VE_getm_Enc656WSS_TSDOPSEL:
d374: 601f7c00 000198b8        mov	%r0,0x1_98b8		; m_ve_enc656wss
d37c: 08000000                 ld	%r0,[%r0]
d380: 88007e03                 lsr	%r0,%r0,3
d384: 60007e07                 and	%r0,%r0,7
d388: 18000e00                 extb	%r0,%r0
d38c: 380f8000                 j	[%blink]
FH_VE_set_Enc656WSS_CC_M:
d390: 60007e03                 and	%r0,%r0,3
d394: 80407e06                 asl	%r2,%r0,6
d398: 603f7c00 000198b8        mov	%r1,0x1_98b8		; m_ve_enc656wss
d3a0: 08008000                 ld	%r0,[%r1]
d3a4: 60007f3f                 and	%r0,%r0,-193
d3a8: 68000400                 or	%r0,%r0,%r2
d3ac: 10008000                 st	%r0,[%r1]
d3b0: 603f7c00 081a0000        mov	%r1,0x81a_0000		; 0x81a_0000 = .regmask_hi+0x1a0000
d3b8: 14008028                 st.di	%r0,[%r1,40]
d3bc: 380f8000                 j	[%blink]
FH_VE_getm_Enc656WSS_CC_M:
d3c0: 601f7c00 000198b8        mov	%r0,0x1_98b8		; m_ve_enc656wss
d3c8: 08000000                 ld	%r0,[%r0]
d3cc: 88007e06                 lsr	%r0,%r0,6
d3d0: 60007e03                 and	%r0,%r0,3
d3d4: 18000e00                 extb	%r0,%r0
d3d8: 380f8000                 j	[%blink]
FH_VE_set_Enc656WSS_VBID_EN:
d3dc: 60007e01                 and	%r0,%r0,1
d3e0: 80407e08                 asl	%r2,%r0,8
d3e4: 603f7c00 000198b8        mov	%r1,0x1_98b8		; m_ve_enc656wss
d3ec: 08008000                 ld	%r0,[%r1]
d3f0: 60007c00 fffffeff        and	%r0,%r0,0xffff_feff		; 0xffff_feff = .regmask_lo+0x7fbff00
d3f8: 68000400                 or	%r0,%r0,%r2
d3fc: 10008000                 st	%r0,[%r1]
d400: 603f7c00 081a0000        mov	%r1,0x81a_0000		; 0x81a_0000 = .regmask_hi+0x1a0000
d408: 14008028                 st.di	%r0,[%r1,40]
d40c: 380f8000                 j	[%blink]
FH_VE_getm_Enc656WSS_VBID_EN:
d410: 601f7c00 000198b8        mov	%r0,0x1_98b8		; m_ve_enc656wss
d418: 08000000                 ld	%r0,[%r0]
d41c: 88007e08                 lsr	%r0,%r0,8
d420: 60007e01                 and	%r0,%r0,1
d424: 18000e00                 extb	%r0,%r0
d428: 380f8000                 j	[%blink]
FH_VE_set_Enc656WSS_CCMASK:
d42c: 60007e01                 and	%r0,%r0,1
d430: 80407e09                 asl	%r2,%r0,9
d434: 603f7c00 000198b8        mov	%r1,0x1_98b8		; m_ve_enc656wss
d43c: 08008000                 ld	%r0,[%r1]
d440: 60007c00 fffffdff        and	%r0,%r0,0xffff_fdff		; 0xffff_fdff = .regmask_lo+0x7fbfe00
d448: 68000400                 or	%r0,%r0,%r2
d44c: 10008000                 st	%r0,[%r1]
d450: 603f7c00 081a0000        mov	%r1,0x81a_0000		; 0x81a_0000 = .regmask_hi+0x1a0000
d458: 14008028                 st.di	%r0,[%r1,40]
d45c: 380f8000                 j	[%blink]
FH_VE_getm_Enc656WSS_CCMASK:
d460: 601f7c00 000198b8        mov	%r0,0x1_98b8		; m_ve_enc656wss
d468: 08000000                 ld	%r0,[%r0]
d46c: 88007e09                 lsr	%r0,%r0,9
d470: 60007e01                 and	%r0,%r0,1
d474: 18000e00                 extb	%r0,%r0
d478: 380f8000                 j	[%blink]
FH_VE_set_Enc656WSS_WSS_MODE:
d47c: 60007e01                 and	%r0,%r0,1
d480: 80407e0a                 asl	%r2,%r0,10
d484: 603f7c00 000198b8        mov	%r1,0x1_98b8		; m_ve_enc656wss
d48c: 08008000                 ld	%r0,[%r1]
d490: 60007c00 fffffbff        and	%r0,%r0,0xffff_fbff		; 0xffff_fbff = .regmask_lo+0x7fbfc00
d498: 68000400                 or	%r0,%r0,%r2
d49c: 10008000                 st	%r0,[%r1]
d4a0: 603f7c00 081a0000        mov	%r1,0x81a_0000		; 0x81a_0000 = .regmask_hi+0x1a0000
d4a8: 14008028                 st.di	%r0,[%r1,40]
d4ac: 380f8000                 j	[%blink]
FH_VE_getm_Enc656WSS_WSS_MODE:
d4b0: 601f7c00 000198b8        mov	%r0,0x1_98b8		; m_ve_enc656wss
d4b8: 08000000                 ld	%r0,[%r0]
d4bc: 88007e0a                 lsr	%r0,%r0,10
d4c0: 60007e01                 and	%r0,%r0,1
d4c4: 18000e00                 extb	%r0,%r0
d4c8: 380f8000                 j	[%blink]
FH_VE_set_Enc656WSS_WSS_BYPASS:
d4cc: 60007e01                 and	%r0,%r0,1
d4d0: 80407e0b                 asl	%r2,%r0,11
d4d4: 603f7c00 000198b8        mov	%r1,0x1_98b8		; m_ve_enc656wss
d4dc: 08008000                 ld	%r0,[%r1]
d4e0: 60007c00 fffff7ff        and	%r0,%r0,0xffff_f7ff		; 0xffff_f7ff = .regmask_lo+0x7fbf800
d4e8: 68000400                 or	%r0,%r0,%r2
d4ec: 10008000                 st	%r0,[%r1]
d4f0: 603f7c00 081a0000        mov	%r1,0x81a_0000		; 0x81a_0000 = .regmask_hi+0x1a0000
d4f8: 14008028                 st.di	%r0,[%r1,40]
d4fc: 380f8000                 j	[%blink]
FH_VE_getm_Enc656WSS_WSS_BYPASS:
d500: 601f7c00 000198b8        mov	%r0,0x1_98b8		; m_ve_enc656wss
d508: 08000000                 ld	%r0,[%r0]
d50c: 88007e0b                 lsr	%r0,%r0,11
d510: 60007e01                 and	%r0,%r0,1
d514: 18000e00                 extb	%r0,%r0
d518: 380f8000                 j	[%blink]
FH_VE_set_Enc656WSS_ITU_R656_EN0:
d51c: 60007e01                 and	%r0,%r0,1
d520: 80407e0c                 asl	%r2,%r0,12
d524: 603f7c00 000198b8        mov	%r1,0x1_98b8		; m_ve_enc656wss
d52c: 08008000                 ld	%r0,[%r1]
d530: 60007c00 ffffefff        and	%r0,%r0,0xffff_efff		; 0xffff_efff = .regmask_lo+0x7fbf000
d538: 68000400                 or	%r0,%r0,%r2
d53c: 10008000                 st	%r0,[%r1]
d540: 603f7c00 081a0000        mov	%r1,0x81a_0000		; 0x81a_0000 = .regmask_hi+0x1a0000
d548: 14008028                 st.di	%r0,[%r1,40]
d54c: 380f8000                 j	[%blink]
FH_VE_getm_Enc656WSS_ITU_R656_EN0:
d550: 601f7c00 000198b8        mov	%r0,0x1_98b8		; m_ve_enc656wss
d558: 08000000                 ld	%r0,[%r0]
d55c: 88007e0c                 lsr	%r0,%r0,12
d560: 60007e01                 and	%r0,%r0,1
d564: 18000e00                 extb	%r0,%r0
d568: 380f8000                 j	[%blink]
FH_VE_set_Enc656WSS_ITU_R656_EN1:
d56c: 60007e01                 and	%r0,%r0,1
d570: 80407e0d                 asl	%r2,%r0,13
d574: 603f7c00 000198b8        mov	%r1,0x1_98b8		; m_ve_enc656wss
d57c: 08008000                 ld	%r0,[%r1]
d580: 60007c00 ffffdfff        and	%r0,%r0,0xffff_dfff		; 0xffff_dfff = .regmask_lo+0x7fbe000
d588: 68000400                 or	%r0,%r0,%r2
d58c: 10008000                 st	%r0,[%r1]
d590: 603f7c00 081a0000        mov	%r1,0x81a_0000		; 0x81a_0000 = .regmask_hi+0x1a0000
d598: 14008028                 st.di	%r0,[%r1,40]
d59c: 380f8000                 j	[%blink]
FH_VE_getm_Enc656WSS_ITU_R656_EN1:
d5a0: 601f7c00 000198b8        mov	%r0,0x1_98b8		; m_ve_enc656wss
d5a8: 08000000                 ld	%r0,[%r0]
d5ac: 88007e0d                 lsr	%r0,%r0,13
d5b0: 60007e01                 and	%r0,%r0,1
d5b4: 18000e00                 extb	%r0,%r0
d5b8: 380f8000                 j	[%blink]
FH_VE_set_Enc656WSS_CLK27_INV:
d5bc: 60007e01                 and	%r0,%r0,1
d5c0: 80407e0e                 asl	%r2,%r0,14
d5c4: 603f7c00 000198b8        mov	%r1,0x1_98b8		; m_ve_enc656wss
d5cc: 08008000                 ld	%r0,[%r1]
d5d0: 60007c00 ffffbfff        and	%r0,%r0,0xffff_bfff		; 0xffff_bfff = .regmask_lo+0x7fbc000
d5d8: 68000400                 or	%r0,%r0,%r2
d5dc: 10008000                 st	%r0,[%r1]
d5e0: 603f7c00 081a0000        mov	%r1,0x81a_0000		; 0x81a_0000 = .regmask_hi+0x1a0000
d5e8: 14008028                 st.di	%r0,[%r1,40]
d5ec: 380f8000                 j	[%blink]
FH_VE_getm_Enc656WSS_CLK27_INV:
d5f0: 601f7c00 000198b8        mov	%r0,0x1_98b8		; m_ve_enc656wss
d5f8: 08000000                 ld	%r0,[%r0]
d5fc: 88007e0e                 lsr	%r0,%r0,14
d600: 60007e01                 and	%r0,%r0,1
d604: 18000e00                 extb	%r0,%r0
d608: 380f8000                 j	[%blink]
FH_VE_set_CCLine21:
d60c: 603f7c00 000198bc        mov	%r1,0x1_98bc		; m_ve_ccline21
d614: 10008000                 st	%r0,[%r1]
d618: 603f7c00 081a0000        mov	%r1,0x81a_0000		; 0x81a_0000 = .regmask_hi+0x1a0000
d620: 1400802c                 st.di	%r0,[%r1,44]
d624: 380f8000                 j	[%blink]
FH_VE_getm_CCLine21:
d628: 601f7c00 000198bc        mov	%r0,0x1_98bc		; m_ve_ccline21
d630: 08000000                 ld	%r0,[%r0]
d634: 380f8000                 j	[%blink]
FH_VE_set_CCLine21_L21C1:
d638: 60407e7f                 and	%r2,%r0,127
d63c: 603f7c00 000198bc        mov	%r1,0x1_98bc		; m_ve_ccline21
d644: 08008000                 ld	%r0,[%r1]
d648: 60007f80                 and	%r0,%r0,-128
d64c: 68000400                 or	%r0,%r0,%r2
d650: 10008000                 st	%r0,[%r1]
d654: 603f7c00 081a0000        mov	%r1,0x81a_0000		; 0x81a_0000 = .regmask_hi+0x1a0000
d65c: 1400802c                 st.di	%r0,[%r1,44]
d660: 380f8000                 j	[%blink]
FH_VE_getm_CCLine21_L21C1:
d664: 601f7c00 000198bc        mov	%r0,0x1_98bc		; m_ve_ccline21
d66c: 08000000                 ld	%r0,[%r0]
d670: 60007e7f                 and	%r0,%r0,127
d674: 18000e00                 extb	%r0,%r0
d678: 380f8000                 j	[%blink]
FH_VE_set_CCLine21_L21C2:
d67c: 60007e7f                 and	%r0,%r0,127
d680: 80407e08                 asl	%r2,%r0,8
d684: 603f7c00 000198bc        mov	%r1,0x1_98bc		; m_ve_ccline21
d68c: 08008000                 ld	%r0,[%r1]
d690: 60007c00 ffff80ff        and	%r0,%r0,0xffff_80ff		; 0xffff_80ff = .regmask_lo+0x7fb8100
d698: 68000400                 or	%r0,%r0,%r2
d69c: 10008000                 st	%r0,[%r1]
d6a0: 603f7c00 081a0000        mov	%r1,0x81a_0000		; 0x81a_0000 = .regmask_hi+0x1a0000
d6a8: 1400802c                 st.di	%r0,[%r1,44]
d6ac: 380f8000                 j	[%blink]
FH_VE_getm_CCLine21_L21C2:
d6b0: 601f7c00 000198bc        mov	%r0,0x1_98bc		; m_ve_ccline21
d6b8: 08000000                 ld	%r0,[%r0]
d6bc: 88007e08                 lsr	%r0,%r0,8
d6c0: 60007e7f                 and	%r0,%r0,127
d6c4: 18000e00                 extb	%r0,%r0
d6c8: 380f8000                 j	[%blink]
FH_VE_set_CCLine284:
d6cc: 603f7c00 000198c0        mov	%r1,0x1_98c0		; m_ve_ccline284
d6d4: 10008000                 st	%r0,[%r1]
d6d8: 603f7c00 081a0000        mov	%r1,0x81a_0000		; 0x81a_0000 = .regmask_hi+0x1a0000
d6e0: 14008030                 st.di	%r0,[%r1,48]
d6e4: 380f8000                 j	[%blink]
FH_VE_getm_CCLine284:
d6e8: 601f7c00 000198c0        mov	%r0,0x1_98c0		; m_ve_ccline284
d6f0: 08000000                 ld	%r0,[%r0]
d6f4: 380f8000                 j	[%blink]
FH_VE_set_CCLine284_L284C1:
d6f8: 60407e7f                 and	%r2,%r0,127
d6fc: 603f7c00 000198c0        mov	%r1,0x1_98c0		; m_ve_ccline284
d704: 08008000                 ld	%r0,[%r1]
d708: 60007f80                 and	%r0,%r0,-128
d70c: 68000400                 or	%r0,%r0,%r2
d710: 10008000                 st	%r0,[%r1]
d714: 603f7c00 081a0000        mov	%r1,0x81a_0000		; 0x81a_0000 = .regmask_hi+0x1a0000
d71c: 14008030                 st.di	%r0,[%r1,48]
d720: 380f8000                 j	[%blink]
FH_VE_getm_CCLine284_L284C1:
d724: 601f7c00 000198c0        mov	%r0,0x1_98c0		; m_ve_ccline284
d72c: 08000000                 ld	%r0,[%r0]
d730: 60007e7f                 and	%r0,%r0,127
d734: 18000e00                 extb	%r0,%r0
d738: 380f8000                 j	[%blink]
FH_VE_set_CCLine284_L284C2:
d73c: 60007e7f                 and	%r0,%r0,127
d740: 80407e08                 asl	%r2,%r0,8
d744: 603f7c00 000198c0        mov	%r1,0x1_98c0		; m_ve_ccline284
d74c: 08008000                 ld	%r0,[%r1]
d750: 60007c00 ffff80ff        and	%r0,%r0,0xffff_80ff		; 0xffff_80ff = .regmask_lo+0x7fb8100
d758: 68000400                 or	%r0,%r0,%r2
d75c: 10008000                 st	%r0,[%r1]
d760: 603f7c00 081a0000        mov	%r1,0x81a_0000		; 0x81a_0000 = .regmask_hi+0x1a0000
d768: 14008030                 st.di	%r0,[%r1,48]
d76c: 380f8000                 j	[%blink]
FH_VE_getm_CCLine284_L284C2:
d770: 601f7c00 000198c0        mov	%r0,0x1_98c0		; m_ve_ccline284
d778: 08000000                 ld	%r0,[%r0]
d77c: 88007e08                 lsr	%r0,%r0,8
d780: 60007e7f                 and	%r0,%r0,127
d784: 18000e00                 extb	%r0,%r0
d788: 380f8000                 j	[%blink]
FH_VE_set_VBIDWords:
d78c: 603f7c00 000198c4        mov	%r1,0x1_98c4		; m_ve_vbidwords
d794: 10008000                 st	%r0,[%r1]
d798: 603f7c00 081a0000        mov	%r1,0x81a_0000		; 0x81a_0000 = .regmask_hi+0x1a0000
d7a0: 14008034                 st.di	%r0,[%r1,52]
d7a4: 380f8000                 j	[%blink]
FH_VE_getm_VBIDWords:
d7a8: 601f7c00 000198c4        mov	%r0,0x1_98c4		; m_ve_vbidwords
d7b0: 08000000                 ld	%r0,[%r0]
d7b4: 380f8000                 j	[%blink]
FH_VE_set_VBIDWords_VBIDW0:
d7b8: 60407e03                 and	%r2,%r0,3
d7bc: 603f7c00 000198c4        mov	%r1,0x1_98c4		; m_ve_vbidwords
d7c4: 08008000                 ld	%r0,[%r1]
d7c8: 60007ffc                 and	%r0,%r0,-4
d7cc: 68000400                 or	%r0,%r0,%r2
d7d0: 10008000                 st	%r0,[%r1]
d7d4: 603f7c00 081a0000        mov	%r1,0x81a_0000		; 0x81a_0000 = .regmask_hi+0x1a0000
d7dc: 14008034                 st.di	%r0,[%r1,52]
d7e0: 380f8000                 j	[%blink]
FH_VE_getm_VBIDWords_VBIDW0:
d7e4: 601f7c00 000198c4        mov	%r0,0x1_98c4		; m_ve_vbidwords
d7ec: 08000000                 ld	%r0,[%r0]
d7f0: 60007e03                 and	%r0,%r0,3
d7f4: 18000e00                 extb	%r0,%r0
d7f8: 380f8000                 j	[%blink]
FH_VE_set_VBIDWords_VBIDW1:
d7fc: 60007e0f                 and	%r0,%r0,15
d800: 80407e02                 asl	%r2,%r0,2
d804: 603f7c00 000198c4        mov	%r1,0x1_98c4		; m_ve_vbidwords
d80c: 08008000                 ld	%r0,[%r1]
d810: 60007fc3                 and	%r0,%r0,-61
d814: 68000400                 or	%r0,%r0,%r2
d818: 10008000                 st	%r0,[%r1]
d81c: 603f7c00 081a0000        mov	%r1,0x81a_0000		; 0x81a_0000 = .regmask_hi+0x1a0000
d824: 14008034                 st.di	%r0,[%r1,52]
d828: 380f8000                 j	[%blink]
FH_VE_getm_VBIDWords_VBIDW1:
d82c: 601f7c00 000198c4        mov	%r0,0x1_98c4		; m_ve_vbidwords
d834: 08000000                 ld	%r0,[%r0]
d838: 88007e02                 lsr	%r0,%r0,2
d83c: 60007e0f                 and	%r0,%r0,15
d840: 18000e00                 extb	%r0,%r0
d844: 380f8000                 j	[%blink]
FH_VE_set_VBIDWords_VBIDW2:
d848: 18000e00                 extb	%r0,%r0
d84c: 80407e06                 asl	%r2,%r0,6
d850: 603f7c00 000198c4        mov	%r1,0x1_98c4		; m_ve_vbidwords
d858: 08008000                 ld	%r0,[%r1]
d85c: 60007c00 ffffc03f        and	%r0,%r0,0xffff_c03f		; 0xffff_c03f = .regmask_lo+0x7fbc040
d864: 68000400                 or	%r0,%r0,%r2
d868: 10008000                 st	%r0,[%r1]
d86c: 603f7c00 081a0000        mov	%r1,0x81a_0000		; 0x81a_0000 = .regmask_hi+0x1a0000
d874: 14008034                 st.di	%r0,[%r1,52]
d878: 380f8000                 j	[%blink]
FH_VE_getm_VBIDWords_VBIDW2:
d87c: 601f7c00 000198c4        mov	%r0,0x1_98c4		; m_ve_vbidwords
d884: 08000000                 ld	%r0,[%r0]
d888: 88007e06                 lsr	%r0,%r0,6
d88c: 18000e00                 extb	%r0,%r0
d890: 380f8000                 j	[%blink]
FH_VE_set_VBIDWords_EN_SECAM_TTX:
d894: 60007e01                 and	%r0,%r0,1
d898: 80407e0f                 asl	%r2,%r0,15
d89c: 603f7c00 000198c4        mov	%r1,0x1_98c4		; m_ve_vbidwords
d8a4: 08008000                 ld	%r0,[%r1]
d8a8: 60007c00 ffff7fff        and	%r0,%r0,0xffff_7fff		; 0xffff_7fff = .regmask_lo+0x7fb8000
d8b0: 68000400                 or	%r0,%r0,%r2
d8b4: 10008000                 st	%r0,[%r1]
d8b8: 603f7c00 081a0000        mov	%r1,0x81a_0000		; 0x81a_0000 = .regmask_hi+0x1a0000
d8c0: 14008034                 st.di	%r0,[%r1,52]
d8c4: 380f8000                 j	[%blink]
FH_VE_getm_VBIDWords_EN_SECAM_TTX:
d8c8: 601f7c00 000198c4        mov	%r0,0x1_98c4		; m_ve_vbidwords
d8d0: 08000000                 ld	%r0,[%r0]
d8d4: 88007e0f                 lsr	%r0,%r0,15
d8d8: 60007e01                 and	%r0,%r0,1
d8dc: 18000e00                 extb	%r0,%r0
d8e0: 380f8000                 j	[%blink]
FH_VE_set_WSSData:
d8e4: 603f7c00 000198c8        mov	%r1,0x1_98c8		; m_ve_wssdata
d8ec: 10008000                 st	%r0,[%r1]
d8f0: 603f7c00 081a0000        mov	%r1,0x81a_0000		; 0x81a_0000 = .regmask_hi+0x1a0000
d8f8: 14008038                 st.di	%r0,[%r1,56]
d8fc: 380f8000                 j	[%blink]
FH_VE_getm_WSSData:
d900: 601f7c00 000198c8        mov	%r0,0x1_98c8		; m_ve_wssdata
d908: 08000000                 ld	%r0,[%r0]
d90c: 380f8000                 j	[%blink]
FH_VE_set_ITRU656DirData:
d910: 603f7c00 000198cc        mov	%r1,0x1_98cc		; m_ve_itru656dirdata
d918: 10008000                 st	%r0,[%r1]
d91c: 603f7c00 081a0000        mov	%r1,0x81a_0000		; 0x81a_0000 = .regmask_hi+0x1a0000
d924: 1400803c                 st.di	%r0,[%r1,60]
d928: 380f8000                 j	[%blink]
FH_VE_getm_ITRU656DirData:
d92c: 601f7c00 000198cc        mov	%r0,0x1_98cc		; m_ve_itru656dirdata
d934: 08000000                 ld	%r0,[%r0]
d938: 380f8000                 j	[%blink]
FH_VE_set_Macrovision:
d93c: 603f7c00 000198d0        mov	%r1,0x1_98d0		; m_ve_macrovision
d944: 10008000                 st	%r0,[%r1]
d948: 603f7c00 081a0000        mov	%r1,0x81a_0000		; 0x81a_0000 = .regmask_hi+0x1a0000
d950: 14008064                 st.di	%r0,[%r1,100]
d954: 380f8000                 j	[%blink]
FH_VE_getm_Macrovision:
d958: 601f7c00 000198d0        mov	%r0,0x1_98d0		; m_ve_macrovision
d960: 08000000                 ld	%r0,[%r0]
d964: 380f8000                 j	[%blink]
FH_VE_set_Macrovision_AGC:
d968: 60407e3f                 and	%r2,%r0,63
d96c: 603f7c00 000198d0        mov	%r1,0x1_98d0		; m_ve_macrovision
d974: 08008000                 ld	%r0,[%r1]
d978: 60007fc0                 and	%r0,%r0,-64
d97c: 68000400                 or	%r0,%r0,%r2
d980: 10008000                 st	%r0,[%r1]
d984: 603f7c00 081a0000        mov	%r1,0x81a_0000		; 0x81a_0000 = .regmask_hi+0x1a0000
d98c: 14008064                 st.di	%r0,[%r1,100]
d990: 380f8000                 j	[%blink]
FH_VE_getm_Macrovision_AGC:
d994: 601f7c00 000198d0        mov	%r0,0x1_98d0		; m_ve_macrovision
d99c: 08000000                 ld	%r0,[%r0]
d9a0: 60007e3f                 and	%r0,%r0,63
d9a4: 18000e00                 extb	%r0,%r0
d9a8: 380f8000                 j	[%blink]
FH_VE_set_Macrovision_BP:
d9ac: 603f7c00 000198d0        mov	%r1,0x1_98d0		; m_ve_macrovision
d9b4: 10408001                 stb	%r0,[%r1,1]
d9b8: 08208000                 ld	%r1,[%r1]
d9bc: 601f7c00 081a0000        mov	%r0,0x81a_0000		; 0x81a_0000 = .regmask_hi+0x1a0000
d9c4: 14000264                 st.di	%r1,[%r0,100]
d9c8: 380f8000                 j	[%blink]
FH_VE_getm_Macrovision_BP:
d9cc: 601f7c00 000198d0        mov	%r0,0x1_98d0		; m_ve_macrovision
d9d4: 08000401                 ldb	%r0,[%r0,1]
d9d8: 380f8000                 j	[%blink]
FH_VE_set_CCIREnable:
d9dc: 603f7c00 000198d4        mov	%r1,0x1_98d4		; m_ve_ccirenable
d9e4: 10008000                 st	%r0,[%r1]
d9e8: 603f7c00 081a0000        mov	%r1,0x81a_0000		; 0x81a_0000 = .regmask_hi+0x1a0000
d9f0: 14008068                 st.di	%r0,[%r1,104]
d9f4: 380f8000                 j	[%blink]
FH_VE_getm_CCIREnable:
d9f8: 601f7c00 000198d4        mov	%r0,0x1_98d4		; m_ve_ccirenable
da00: 08000000                 ld	%r0,[%r0]
da04: 380f8000                 j	[%blink]
FH_VE_init:
da08: 50410400                 sub	%r2,%r2,%r2
da0c: 601f7c00 00019890        mov	%r0,0x1_9890		; m_ve_rgbconf
da14: 10000400                 st	%r2,[%r0]
da18: 603f7c00 081a0000        mov	%r1,0x81a_0000		; 0x81a_0000 = .regmask_hi+0x1a0000
da20: 14008400                 st.di	%r2,[%r1]
da24: 607ffe2f                 mov	%r3,47
da28: 601f7c00 00019894        mov	%r0,0x1_9894		; m_ve_rgblum
da30: 10000600                 st	%r3,[%r0]
da34: 14008604                 st.di	%r3,[%r1,4]
da38: 607f7c00 00002e2e        mov	%r3,0x2e2e		; 0x2e2e = _HEAPSIZE+0xe2e
da40: 601f7c00 00019898        mov	%r0,0x1_9898		; m_ve_rgbchrom
da48: 10000600                 st	%r3,[%r0]
da4c: 14008608                 st.di	%r3,[%r1,8]
da50: 607ffe08                 mov	%r3,8
da54: 601f7c00 0001989c        mov	%r0,0x1_989c		; m_ve_ceconf
da5c: 10000600                 st	%r3,[%r0]
da60: 1400860c                 st.di	%r3,[%r1,12]
da64: 607f7c00 00001541        mov	%r3,0x1541		; 0x1541 = DEXP_MAX+0xd42
da6c: 601f7c00 000198a0        mov	%r0,0x1_98a0		; m_ve_ceburstint
da74: 10000600                 st	%r3,[%r0]
da78: 14008610                 st.di	%r3,[%r1,16]
da7c: 607f7c00 00003159        mov	%r3,0x3159		; 0x3159 = _HEAPSIZE+0x1159
da84: 601f7c00 000198a4        mov	%r0,0x1_98a4		; m_ve_ceburstfra1
da8c: 10000600                 st	%r3,[%r0]
da90: 14008614                 st.di	%r3,[%r1,20]
da94: 607ffe68                 mov	%r3,104
da98: 601f7c00 000198a8        mov	%r0,0x1_98a8		; m_ve_ceburstfra2
daa0: 10000600                 st	%r3,[%r0]
daa4: 14008618                 st.di	%r3,[%r1,24]
daa8: 607f7c00 0000c598        mov	%r3,0xc598		; 0xc598 = FH_VE_set_RGBConf_YCRCB+0x18
dab0: 601f7c00 000198ac        mov	%r0,0x1_98ac		; m_ve_muxdacconf1
dab8: 10000600                 st	%r3,[%r0]
dabc: 1400861c                 st.di	%r3,[%r1,28]
dac0: 607f7c00 00007c00        mov	%r3,0x7c00		; 0x7c00 = _STACKSIZE+0x3c00
dac8: 601f7c00 000198b0        mov	%r0,0x1_98b0		; m_ve_muxdacconf2
dad0: 10000600                 st	%r3,[%r0]
dad4: 14008620                 st.di	%r3,[%r1,32]
dad8: 601f7c00 000198b4        mov	%r0,0x1_98b4		; m_ve_muxdacconf3
dae0: 10000400                 st	%r2,[%r0]
dae4: 14008424                 st.di	%r2,[%r1,36]
dae8: 607f7c00 00003000        mov	%r3,0x3000		; 0x3000 = _HEAPSIZE+0x1000
daf0: 601f7c00 000198b8        mov	%r0,0x1_98b8		; m_ve_enc656wss
daf8: 10000600                 st	%r3,[%r0]
dafc: 14008628                 st.di	%r3,[%r1,40]
db00: 601f7c00 000198bc        mov	%r0,0x1_98bc		; m_ve_ccline21
db08: 10000400                 st	%r2,[%r0]
db0c: 1400842c                 st.di	%r2,[%r1,44]
db10: 601f7c00 000198c0        mov	%r0,0x1_98c0		; m_ve_ccline284
db18: 10000400                 st	%r2,[%r0]
db1c: 14008430                 st.di	%r2,[%r1,48]
db20: 601f7c00 000198c4        mov	%r0,0x1_98c4		; m_ve_vbidwords
db28: 10000400                 st	%r2,[%r0]
db2c: 14008434                 st.di	%r2,[%r1,52]
db30: 601f7c00 000198c8        mov	%r0,0x1_98c8		; m_ve_wssdata
db38: 10000400                 st	%r2,[%r0]
db3c: 14008438                 st.di	%r2,[%r1,56]
db40: 601f7c00 000198cc        mov	%r0,0x1_98cc		; m_ve_itru656dirdata
db48: 10000400                 st	%r2,[%r0]
db4c: 1400843c                 st.di	%r2,[%r1,60]
db50: 607f7c00 0000ea33        mov	%r3,0xea33		; 0xea33 = _doprintnf+0x817
db58: 601f7c00 000198d0        mov	%r0,0x1_98d0		; m_ve_macrovision
db60: 10000600                 st	%r3,[%r0]
db64: 14008664                 st.di	%r3,[%r1,100]
db68: 601f7c00 000198d4        mov	%r0,0x1_98d4		; m_ve_ccirenable
db70: 10000400                 st	%r2,[%r0]
db74: 14008468                 st.di	%r2,[%r1,104]
db78: 380f8000                 j	[%blink]
_doprint:
db7c: 2000d380                 b	_doprintnf
_mwrtl_init:
db80: 100e3e04                 st	%blink,[%sp,4]
db84: 280c2b80                 bl	__prolog_save0
db88: 601f7c00 000020ac        mov	%r0,0x20ac		; 0x20ac = _HEAPSIZE+0xac
db90: 2801f000                 bl	atexit
db94: 381f0240 000020b5        jl	_init		; 0x20b5 = _HEAPSIZE+0xb5
db9c: 200c5580                 b	__epilog_restore0
_mwcall_main:
dba0: 100e3e04                 st	%blink,[%sp,4]
dba4: 280c3900                 bl	__prolog_save19
dba8: 61df7c00 0001857c        mov	%r14,0x1_857c		; 0x1_857c = __iob+0x2c
dbb0: 08070500                 ldb	%r0,[%r14,-256]
dbb4: 67e00100                 mov.f	0,%r0
dbb8: 28020602                 blnz	_enable
dbbc: 280c68a0                 bl.d	__argc
dbc0: 51a69a00                 sub	%r13,%r13,%r13
dbc4: 61e00000                 mov	%r15,%r0
dbc8: 40000000                 asl	%r0,%r0
dbcc: 40000000                 asl	%r0,%r0
dbd0: 40007e07                 add	%r0,%r0,7
dbd4: 60007ffc                 and	%r0,%r0,-4
dbd8: 57e7fa00                 sub.f	0,%r15,0
dbdc: 538e0000                 sub	%sp,%sp,%r0
dbe0: 20000aac                 ble.d	0xdc38 = _mwcall_main+0x98
dbe4: 420e7e10                 add	%r16,%sp,16
dbe8: 62279e00                 mov	%r17,%r15
dbec: 280c63a0                 bl.d	__argv
dbf0: 60069a00                 mov	%r0,%r13
dbf4: 28020320                 bl.d	strlen
dbf8: 62600000                 mov	%r19,%r0
dbfc: 40007e04                 add	%r0,%r0,4
dc00: 60007ffc                 and	%r0,%r0,-4
dc04: 538e0000                 sub	%sp,%sp,%r0
dc08: 424e7e10                 add	%r18,%sp,16
dc0c: 60092400                 mov	%r0,%r18
dc10: 280203a0                 bl.d	strcpy
dc14: 6029a600                 mov	%r1,%r19
dc18: 40069a00                 asl	%r0,%r13
dc1c: 40000000                 asl	%r0,%r0
dc20: 40080000                 add	%r0,%r16,%r0
dc24: 5228fe01                 sub	%r17,%r17,1
dc28: 57e8fa00                 sub.f	0,%r17,0
dc2c: 10002400                 st	%r18,[%r0]
dc30: 27fff72d                 bhi.d	0xdbec = _mwcall_main+0x4c
dc34: 41a6fe01                 add	%r13,%r13,1
dc38: 40279e00                 asl	%r1,%r15
dc3c: 40208200                 asl	%r1,%r1
dc40: 50000000                 sub	%r0,%r0,%r0
dc44: 40280200                 add	%r1,%r16,%r1
dc48: 10008000                 st	%r0,[%r1]
dc4c: 601ffe5b                 mov	%r0,91
dc50: 10070108                 st	%r0,[%r14,-248]
dc54: 60079e00                 mov	%r0,%r15
dc58: 28126820                 bl.d	main
dc5c: 60282000                 mov	%r1,%r16
dc60: 20020100                 b	exit
__arc_main:
dc64: 100e3e04                 st	%blink,[%sp,4]
dc68: 280c1180                 bl	__prolog_save13
dc6c: 601f7c00 00000000        mov	%r0,0		; .CC_I
dc74: 67e00100                 mov.f	0,%r0
dc78: 28020b01                 blz	_initcopy
dc7c: 61bf7c00 0001857c        mov	%r13,0x1_857c		; 0x1_857c = __iob+0x2c
dc84: 08068104                 ld	%r0,[%r13,-252]
dc88: 67e00100                 mov.f	0,%r0
dc8c: 601f7c02 000190a4        mov.nz	%r0,0x1_90a4		; _fbss
dc94: 603f7c02 000198d8        mov.nz	%r1,0x1_98d8		; _ebss
dc9c: 280c5022                 blnz.d	_memclr
dca0: 50208002                 sub.nz	%r1,%r1,%r0
dca4: 601f7c02 00000000        mov.nz	%r0,0		; .CC_I
dcac: 67e00102                 mov.nz.f	0,%r0
dcb0: 603f7c02 00000000        mov.nz	%r1,0		; .CC_I
dcb8: 280c4ca2                 blnz.d	_memclr
dcbc: 50208002                 sub.nz	%r1,%r1,%r0
dcc0: 28022480                 bl	_invalidate_dcache
dcc4: 50000000                 sub	%r0,%r0,%r0
dcc8: 280c6c20                 bl.d	__start_kernel
dccc: 10468100                 stb	%r0,[%r13,-256]
dcd0: 2fffd580                 bl	_mwrtl_init
dcd4: 2fffd900                 bl	_mwcall_main
dcd8: 200c2f00                 b	__epilog_restore13
vsprintf:
dcdc: 100e3e04                 st	%blink,[%sp,4]
dce0: 280c00a0                 bl.d	__prolog_save0sp
dce4: 619ffe14                 mov	%r12,20
dce8: 100d81fc                 st	%r0,[%fp,-4]
dcec: 601f7c00 0000375c        mov	%r0,0x375c		; 0x375c = _HEAPSIZE+0x175c
dcf4: 60808200                 mov	%r4,%r1
dcf8: 60610400                 mov	%r3,%r2
dcfc: 402dfffc                 add	%r1,%fp,-4
dd00: 2fffcf20                 bl.d	_doprint
dd04: 60420800                 mov	%r2,%r4
dd08: 084d81fc                 ld	%r2,[%fp,-4]
dd0c: 50208200                 sub	%r1,%r1,%r1
dd10: 10410200                 stb	%r1,[%r2]
dd14: 200c3c20                 b.d	__epilog_load0
dd18: 619ffe14                 mov	%r12,20
sprintf:
dd1c: 538e7e20                 sub	%sp,%sp,32
dd20: 100e3e04                 st	%blink,[%sp,4]
dd24: 280c6120                 bl.d	__store_va
dd28: 619ffe18                 mov	%r12,24
dd2c: 280bf9a0                 bl.d	__prolog_save13sp
dd30: 60408200                 mov	%r2,%r1
dd34: 100d81fc                 st	%r0,[%fp,-4]
dd38: 601f7c00 0000375c        mov	%r0,0x375c		; 0x375c = _HEAPSIZE+0x175c
dd40: 100d8214                 st	%r1,[%fp,20]
dd44: 406dfe18                 add	%r3,%fp,24
dd48: 2fffc620                 bl.d	_doprint
dd4c: 402dfffc                 add	%r1,%fp,-4
dd50: 082d81fc                 ld	%r1,[%fp,-4]
dd54: 51a69a00                 sub	%r13,%r13,%r13
dd58: 10409a00                 stb	%r13,[%r1]
dd5c: 09ae0010                 ld	%r13,[%sp,16]
dd60: 0bed8004                 ld	%blink,[%fp,4]
dd64: 0b6e1018                 ld.a	%fp,[%sp,24]
dd68: 380f8020                 j.d	[%blink]
dd6c: 438e7e20                 add	%sp,%sp,32
prstr:
dd70: 100e3e04                 st	%blink,[%sp,4]
dd74: 280bf500                 bl	__prolog_save15
dd78: 61e00000                 mov	%r15,%r0
dd7c: 61c10400                 mov	%r14,%r2
dd80: 09a00000                 ld	%r13,[%r0]
dd84: 28021520                 bl.d	memcpy
dd88: 60069a00                 mov	%r0,%r13
dd8c: 40269c00                 add	%r1,%r13,%r14
dd90: 50000000                 sub	%r0,%r0,%r0
dd94: 10408000                 stb	%r0,[%r1]
dd98: 200c1920                 b.d	__epilog_restore15
dd9c: 10078200                 st	%r1,[%r15]
freopen:
dda0: 607fffff                 mov	%r3,-1
dda4: 200228a0                 b.d	_dofopen
dda8: 50820800                 sub	%r4,%r4,%r4
vfprintf:
ddac: 100e3e04                 st	%blink,[%sp,4]
ddb0: 280bed80                 bl	__prolog_save15
ddb4: 61e00000                 mov	%r15,%r0
ddb8: 61c08200                 mov	%r14,%r1
ddbc: 28029720                 bl.d	_mwlock_file
ddc0: 61a10400                 mov	%r13,%r2
ddc4: 601f7c00 0000377c        mov	%r0,0x377c		; 0x377c = _HEAPSIZE+0x177c
ddcc: 60279e00                 mov	%r1,%r15
ddd0: 60471c00                 mov	%r2,%r14
ddd4: 2fffb4a0                 bl.d	_doprint
ddd8: 60669a00                 mov	%r3,%r13
dddc: 61a00000                 mov	%r13,%r0
dde0: 28029920                 bl.d	_mwunlock_file
dde4: 60079e00                 mov	%r0,%r15
dde8: 200c0f20                 b.d	__epilog_restore15
ddec: 60069a00                 mov	%r0,%r13
prfile:
ddf0: 100e3e04                 st	%blink,[%sp,4]
ddf4: 280be000                 bl	__prolog_save13
ddf8: 61a00000                 mov	%r13,%r0
ddfc: 60008200                 mov	%r0,%r1
de00: 603ffe01                 mov	%r1,1
de04: 2802aaa0                 bl.d	fwrite
de08: 60669a00                 mov	%r3,%r13
de0c: 0826840c                 ldb	%r1,[%r13,12]
de10: 67e0fa20                 and.f	0,%r1,32
de14: 200c0781                 bz	__epilog_restore13
de18: 200c0720                 b.d	__epilog_restore13
de1c: 601fffff                 mov	%r0,-1
fscanf:
de20: 538e7e20                 sub	%sp,%sp,32
de24: 100e3e04                 st	%blink,[%sp,4]
de28: 280c4080                 bl	__store_va
de2c: 280bdb80                 bl	__prolog_save14
de30: 61c00000                 mov	%r14,%r0
de34: 100d8214                 st	%r1,[%fp,20]
de38: 280287a0                 bl.d	_mwlock_file
de3c: 41adfe18                 add	%r13,%fp,24
de40: 601f7c00 000037d8        mov	%r0,0x37d8		; 0x37d8 = _HEAPSIZE+0x17d8
de48: 084d8014                 ld	%r2,[%fp,20]
de4c: 60271c00                 mov	%r1,%r14
de50: 28035a20                 bl.d	_doscan
de54: 60669a00                 mov	%r3,%r13
de58: 61a00000                 mov	%r13,%r0
de5c: 280289a0                 bl.d	_mwunlock_file
de60: 60071c00                 mov	%r0,%r14
de64: 60069a00                 mov	%r0,%r13
de68: 280c4a80                 bl	__load13to14
de6c: 0bed8004                 ld	%blink,[%fp,4]
de70: 0b6e1018                 ld.a	%fp,[%sp,24]
de74: 380f8020                 j.d	[%blink]
de78: 438e7e20                 add	%sp,%sp,32
scanf:
de7c: 538e7e20                 sub	%sp,%sp,32
de80: 100e3e04                 st	%blink,[%sp,4]
de84: 280c3500                 bl	__store_va
de88: 280bd000                 bl	__prolog_save14
de8c: 100d8010                 st	%r0,[%fp,16]
de90: 41cdfe14                 add	%r14,%fp,20
de94: 61bf7c00 00018550        mov	%r13,0x1_8550		; __iob
de9c: 28027b20                 bl.d	_mwlock_file
dea0: 60069a00                 mov	%r0,%r13
dea4: 601f7c00 000037d8        mov	%r0,0x37d8		; 0x37d8 = _HEAPSIZE+0x17d8
deac: 084d8010                 ld	%r2,[%fp,16]
deb0: 60269a00                 mov	%r1,%r13
deb4: 28034da0                 bl.d	_doscan
deb8: 60671c00                 mov	%r3,%r14
debc: 61c00000                 mov	%r14,%r0
dec0: 28027d20                 bl.d	_mwunlock_file
dec4: 60069a00                 mov	%r0,%r13
dec8: 27fff3a0                 b.d	0xde68 = fscanf+0x48
decc: 60071c00                 mov	%r0,%r14
_vfscanf:
ded0: 100e3e04                 st	%blink,[%sp,4]
ded4: 280bc900                 bl	__prolog_save15
ded8: 61e00000                 mov	%r15,%r0
dedc: 61c08200                 mov	%r14,%r1
dee0: 280272a0                 bl.d	_mwlock_file
dee4: 61a10400                 mov	%r13,%r2
dee8: 601f7c00 000037d8        mov	%r0,0x37d8		; 0x37d8 = _HEAPSIZE+0x17d8
def0: 60279e00                 mov	%r1,%r15
def4: 60471c00                 mov	%r2,%r14
def8: 28034520                 bl.d	_doscan
defc: 60669a00                 mov	%r3,%r13
df00: 61a00000                 mov	%r13,%r0
df04: 280274a0                 bl.d	_mwunlock_file
df08: 60079e00                 mov	%r0,%r15
df0c: 200beaa0                 b.d	__epilog_restore15
df10: 60069a00                 mov	%r0,%r13
_vscanf:
df14: 100e3e04                 st	%blink,[%sp,4]
df18: 280bc080                 bl	__prolog_save15
df1c: 61e00000                 mov	%r15,%r0
df20: 61a08200                 mov	%r13,%r1
df24: 61df7c00 00018550        mov	%r14,0x1_8550		; __iob
df2c: 28026920                 bl.d	_mwlock_file
df30: 60071c00                 mov	%r0,%r14
df34: 601f7c00 000037d8        mov	%r0,0x37d8		; 0x37d8 = _HEAPSIZE+0x17d8
df3c: 60271c00                 mov	%r1,%r14
df40: 60479e00                 mov	%r2,%r15
df44: 28033ba0                 bl.d	_doscan
df48: 60669a00                 mov	%r3,%r13
df4c: 61a00000                 mov	%r13,%r0
df50: 28026b20                 bl.d	_mwunlock_file
df54: 60071c00                 mov	%r0,%r14
df58: 200be120                 b.d	__epilog_restore15
df5c: 60069a00                 mov	%r0,%r13
_fscan:
df60: 60400000                 mov	%r2,%r0
df64: 60008300                 mov.f	%r0,%r1
df68: 200438a3                 bp.d	ungetc
df6c: 60210403                 mov.p	%r1,%r2
df70: 20046220                 b.d	fgetc
df74: 60010400                 mov	%r0,%r2
df78: 00000000                 ld	%r0,[%r0,%r0]
df7c: 00000000                 ld	%r0,[%r0,%r0]
strcmp:
df80: 57e00300                 sub.f	0,%r0,%r1
df84: 69800200                 or	%r12,%r0,%r1
df88: 20000801                 bz	0xdfcc = strcmp+0x4c
df8c: 67e67a03                 and.f	0,%r12,3
df90: 5020fe04                 sub	%r1,%r1,4
df94: 20001782                 bnz	0xe054 = strcmp+0xd4
df98: 08400000                 ld	%r2,[%r0]
df9c: 617f7c00 01010101        mov	%r11,0x101_0101		; 0x101_0101 = FOVF_BIT+0x10101
dfa4: 19858600                 ror	%r12,%r11
dfa8: 08609004                 ld.a	%r3,[%r1,4]
dfac: 57e10700                 sub.f	0,%r2,%r3
dfb0: 51411600                 sub	%r10,%r2,%r11
dfb4: 20000382                 bnz	0xdfd4 = strcmp+0x54
dfb8: 71450600                 bic	%r10,%r10,%r3
dfbc: 61451900                 and.f	%r10,%r10,%r12
dfc0: 7fffffff                 nop
dfc4: 27fffc41                 bz.jd	0xdfa8 = strcmp+0x28
dfc8: 08401004                 ld.a	%r2,[%r0,4]
dfcc: 380f8120                 j.f.d	[%blink]
dfd0: 601ffe00                 mov	%r0,0
dfd4: 617ffeff                 mov	%r11,255
dfd8: 60017eff                 and	%r0,%r2,255
dfdc: 6021feff                 and	%r1,%r3,255
dfe0: 57e00300                 sub.f	0,%r0,%r1
dfe4: 6021fc00 0000ff00        and	%r1,%r3,0xff00		; 0xff00 = _doscan+0x5dc
dfec: 20000b02                 bnz	0xe048 = strcmp+0xc8
dff0: 67e00100                 mov.f	0,%r0
dff4: 60017c00 0000ff00        and	%r0,%r2,0xff00		; 0xff00 = _doscan+0x5dc
dffc: 27fff981                 bz	0xdfcc = strcmp+0x4c
e000: 57e00300                 sub.f	0,%r0,%r1
e004: 6021fc00 00ff0000        and	%r1,%r3,0xff_0000		; 0xff_0000 = FHIDDEN_BIT+0x7f0000
e00c: 20000702                 bnz	0xe048 = strcmp+0xc8
e010: 67e00100                 mov.f	0,%r0
e014: 60017c00 00ff0000        and	%r0,%r2,0xff_0000		; 0xff_0000 = FHIDDEN_BIT+0x7f0000
e01c: 27fff581                 bz	0xdfcc = strcmp+0x4c
e020: 57e00300                 sub.f	0,%r0,%r1
e024: 6021fc00 ff000000        and	%r1,%r3,0xff00_0000		; 0xff00_0000 = .regmask_lo+0x6fc0001
e02c: 20000302                 bnz	0xe048 = strcmp+0xc8
e030: 67e00100                 mov.f	0,%r0
e034: 60017c00 ff000000        and	%r0,%r2,0xff00_0000		; 0xff00_0000 = .regmask_lo+0x6fc0001
e03c: 27fff181                 bz	0xdfcc = strcmp+0x4c
e040: 200000a0                 b.d	0xe048 = strcmp+0xc8
e044: 57e00300                 sub.f	0,%r0,%r1
e048: 601ffe01                 mov	%r0,1
e04c: 18058a05                 sexb.c	%r0,%r11
e050: 380f8100                 j.f	[%blink]
e054: 08400400                 ldb	%r2,[%r0]
e058: 4020fe03                 add	%r1,%r1,3
e05c: 08609401                 ldb.a	%r3,[%r1,1]
e060: 57e10700                 sub.f	0,%r2,%r3
e064: 617ffeff                 mov	%r11,255
e068: 27fffb82                 bnz	0xe048 = strcmp+0xc8
e06c: 67e10500                 mov.f	0,%r2
e070: 7fffffff                 nop
e074: 27fffcc2                 bnz.jd	0xe05c = strcmp+0xdc
e078: 08401401                 ldb.a	%r2,[%r0,1]
e07c: 380f8120                 j.f.d	[%blink]
e080: 601ffe00                 mov	%r0,0
uni_to_asc:
e084: 100e3e04                 st	%blink,[%sp,4]
e088: 280b9aa0                 bl.d	__prolog_save18sp
e08c: 619ffe2c                 mov	%r12,44
e090: 62000000                 mov	%r16,%r0
e094: 61e08200                 mov	%r15,%r1
e098: 61a10400                 mov	%r13,%r2
e09c: 62410400                 mov	%r18,%r2
e0a0: 61c18600                 mov	%r14,%r3
e0a4: 5228a200                 sub	%r17,%r17,%r17
e0a8: 6008a200                 mov	%r0,%r17
e0ac: 280441a0                 bl.d	wctomb
e0b0: 6028a200                 mov	%r1,%r17
e0b4: 20000100                 b	0xe0c0 = uni_to_asc+0x3c
e0b8: 42202200                 add	%r17,%r0,%r17
e0bc: 42497e02                 add	%r18,%r18,2
e0c0: 08290800                 ldw	%r1,[%r18]
e0c4: 67e08300                 mov.f	0,%r1
e0c8: 20000301                 bz	0xe0e4 = uni_to_asc+0x60
e0cc: 57e72300                 sub.f	0,%r14,%r17
e0d0: 2000020c                 ble	0xe0e4 = uni_to_asc+0x60
e0d4: 28043ca0                 bl.d	wctomb
e0d8: 400dffff                 add	%r0,%fp,-1
e0dc: 57e07a00                 sub.f	0,%r0,0
e0e0: 27fffa89                 bgt	0xe0b8 = uni_to_asc+0x34
e0e4: 4048fe01                 add	%r2,%r17,1
e0e8: 40017e03                 add	%r0,%r2,3
e0ec: 60007ffc                 and	%r0,%r0,-4
e0f0: 538e0000                 sub	%sp,%sp,%r0
e0f4: 422e7e10                 add	%r17,%sp,16
e0f8: 67e8a300                 mov.f	0,%r17
e0fc: 20000421                 bz.d	0xe120 = uni_to_asc+0x9c
e100: 601fffff                 mov	%r0,-1
e104: 6008a200                 mov	%r0,%r17
e108: 28043920                 bl.d	wcstombs
e10c: 60269a00                 mov	%r1,%r13
e110: 60079e00                 mov	%r0,%r15
e114: 6028a200                 mov	%r1,%r17
e118: 38080220                 jl.d	[%r16]
e11c: 60471c00                 mov	%r2,%r14
e120: 09ad81e4                 ld	%r13,[%fp,-28]
e124: 09cd81e8                 ld	%r14,[%fp,-24]
e128: 09ed81ec                 ld	%r15,[%fp,-20]
e12c: 0a0d81f0                 ld	%r16,[%fp,-16]
e130: 0a2d81f4                 ld	%r17,[%fp,-12]
e134: 0a4d81f8                 ld	%r18,[%fp,-8]
e138: 0bed8004                 ld	%blink,[%fp,4]
e13c: 638db600                 mov	%sp,%fp
e140: 380f8020                 j.d	[%blink]
e144: 0b6d8000                 ld	%fp,[%fp]
_doprintnf.getnum:
e148: 100e3e04                 st	%blink,[%sp,4]
e14c: 280b7280                 bl	__prolog_save0
e150: 080581d4                 ld	%r0,[%r11,-44]
e154: 08200400                 ldb	%r1,[%r0]
e158: 57e0fa2a                 sub.f	0,%r1,42
e15c: 20000482                 bnz	0xe184 = _doprintnf.getnum+0x3c
e160: 40007e01                 add	%r0,%r0,1
e164: 4185ffd4                 add	%r12,%r11,-44
e168: 10060000                 st	%r0,[%r12]
e16c: 08058018                 ld	%r0,[%r11,24]
e170: 4165fe18                 add	%r11,%r11,24
e174: 40007e04                 add	%r0,%r0,4
e178: 10058000                 st	%r0,[%r11]
e17c: 200b99a0                 b.d	__epilog_restore0
e180: 080001fc                 ld	%r0,[%r0,-4]
e184: 4025ffd4                 add	%r1,%r11,-44
e188: 28042fa0                 bl.d	_cnvs2u
e18c: 50410400                 sub	%r2,%r2,%r2
e190: 200b9700                 b	__epilog_restore0
_doprintnf.pad:
e194: 100e3e04                 st	%blink,[%sp,4]
e198: 280b7580                 bl	__prolog_save17
e19c: 61e00000                 mov	%r15,%r0
e1a0: 67e08300                 mov.f	0,%r1
e1a4: 603f7c02 00000001        mov.nz	%r1,1		; 0x1 = .regmask_lo+1
e1ac: 61bf7c00 00018c94        mov	%r13,0x1_8c94		; b.L64
e1b4: 42008200                 asl	%r16,%r1
e1b8: 0a258014                 ld	%r17,[%r11,20]
e1bc: 42082000                 asl	%r16,%r16
e1c0: 4026a000                 add	%r1,%r13,%r16
e1c4: 08208000                 ld	%r1,[%r1]
e1c8: 09c58010                 ld	%r14,[%r11,16]
e1cc: 6008a200                 mov	%r0,%r17
e1d0: 38070220                 jl.d	[%r14]
e1d4: 6047fe0f                 and	%r2,%r15,15
e1d8: 57e07bff                 sub.f	0,%r0,-1
e1dc: 20000482                 bnz	0xe204 = _doprintnf.pad+0x70
e1e0: 20000600                 b	0xe214 = _doprintnf.pad+0x80
e1e4: 4026a000                 add	%r1,%r13,%r16
e1e8: 08208000                 ld	%r1,[%r1]
e1ec: 6008a200                 mov	%r0,%r17
e1f0: 38070220                 jl.d	[%r14]
e1f4: 605ffe10                 mov	%r2,16
e1f8: 57e07bff                 sub.f	0,%r0,-1
e1fc: 20000281                 bz	0xe214 = _doprintnf.pad+0x80
e200: 51e7fe10                 sub	%r15,%r15,16
e204: 57e7fa10                 sub.f	0,%r15,16
e208: 27fffb0a                 bge	0xe1e4 = _doprintnf.pad+0x50
e20c: 200b8ca0                 b.d	__epilog_restore17
e210: 50000000                 sub	%r0,%r0,%r0
e214: 200b8ba0                 b.d	__epilog_restore17
e218: 601fffff                 mov	%r0,-1
_doprintnf:
e21c: 538e7e0c                 sub	%sp,%sp,12
e220: 100e3e04                 st	%blink,[%sp,4]
e224: 280b78a0                 bl.d	__prolog_save25sp
e228: 619ffe90                 mov	%r12,144
e22c: 100d81cc                 st	%r0,[%fp,-52]
e230: 100d8010                 st	%r0,[%fp,16]
e234: 100d83c8                 st	%r1,[%fp,-56]
e238: 100d8214                 st	%r1,[%fp,20]
e23c: 100d8618                 st	%r3,[%fp,24]
e240: 52cb2c00                 sub	%r22,%r22,%r22
e244: 100dadc4                 st	%r22,[%fp,-60]
e248: 630b2c00                 mov	%r24,%r22
e24c: 100d85d4                 st	%r2,[%fp,-44]
e250: 626b2c00                 mov	%r19,%r22
e254: 62eb2c00                 mov	%r23,%r22
e258: 20011220                 b.d	0xeaec = _doprintnf+0x8d0
e25c: 100dadc0                 st	%r22,[%fp,-64]
e260: 080d8018                 ld	%r0,[%fp,24]
e264: 40007e04                 add	%r0,%r0,4
e268: 100d8018                 st	%r0,[%fp,24]
e26c: 080001fc                 ld	%r0,[%r0,-4]
e270: 20010f20                 b.d	0xeaec = _doprintnf+0x8d0
e274: 100d81d4                 st	%r0,[%fp,-44]
e278: 50208200                 sub	%r1,%r1,%r1
e27c: 19bf87fe                 ror	%r13,-2
e280: 280467a0                 bl.d	memchr
e284: 60469a00                 mov	%r2,%r13
e288: 67e00100                 mov.f	0,%r0
e28c: 20000101                 bz	0xe298 = _doprintnf+0x7c
e290: 082d81d4                 ld	%r1,[%fp,-44]
e294: 51a00200                 sub	%r13,%r0,%r1
e298: 080d81d4                 ld	%r0,[%fp,-44]
e29c: 603ffe25                 mov	%r1,37
e2a0: 280463a0                 bl.d	memchr
e2a4: 60469a00                 mov	%r2,%r13
e2a8: 61c00100                 mov.f	%r14,%r0
e2ac: 082d81d4                 ld	%r1,[%fp,-44]
e2b0: 41c09a01                 add.z	%r14,%r1,%r13
e2b4: 51a70300                 sub.f	%r13,%r14,%r1
e2b8: 20000301                 bz	0xe2d4 = _doprintnf+0xb8
e2bc: 086d81cc                 ld	%r3,[%fp,-52]
e2c0: 080d81c8                 ld	%r0,[%fp,-56]
e2c4: 38018220                 jl.d	[%r3]
e2c8: 60469a00                 mov	%r2,%r13
e2cc: 57e07bff                 sub.f	0,%r0,-1
e2d0: 20007081                 bz	0xe658 = _doprintnf+0x43c
e2d4: 080d81c0                 ld	%r0,[%fp,-64]
e2d8: 40068000                 add	%r0,%r13,%r0
e2dc: 100d81c0                 st	%r0,[%fp,-64]
e2e0: 08070400                 ldb	%r0,[%r14]
e2e4: 67e00100                 mov.f	0,%r0
e2e8: 20010201                 bz	0xeafc = _doprintnf+0x8e0
e2ec: 08070401                 ldb	%r0,[%r14,1]
e2f0: 67e00100                 mov.f	0,%r0
e2f4: 27ffed01                 bz	0xe260 = _doprintnf+0x44
e2f8: 20000120                 b.d	0xe304 = _doprintnf+0xe8
e2fc: 52aaaa00                 sub	%r21,%r21,%r21
e300: 6aaafe01                 or	%r21,%r21,1
e304: 41c77e01                 add	%r14,%r14,1
e308: 08070400                 ldb	%r0,[%r14]
e30c: 50207e20                 sub	%r1,%r0,32
e310: 57e0fa0d                 sub.f	0,%r1,13
e314: 2000098d                 bhi	0xe364 = _doprintnf+0x148
e318: 41808200                 asl	%r12,%r1
e31c: 01867c05 0000e330        ldw.x	%r12,[%r12,0xe330]		; 0xe330 = _doprintnf+0x114
e324: 41867c00 000038cc        add	%r12,%r12,0x38cc		; 0x38cc = _HEAPSIZE+0x18cc
e32c: 38060000                 j	[%r12]
e330: 0009                     .short	GB+7
e332: 000d                     .short	GB+11
e334: 000d                     .short	GB+11
e336: 000b                     .short	GB+9
e338: 000d                     .short	GB+11
e33a: 000d                     .short	GB+11
e33c: 000d                     .short	GB+11
e33e: 000d                     .short	GB+11
e340: 000d                     .short	GB+11
e342: 000d                     .short	GB+11
e344: 000d                     .short	GB+11
e346: 0007                     .short	GB+5
e348: 000d                     .short	GB+11
e34a: fff4                     .short	_doscan+0x6d0
e34c: 27fff6a0                 b.d	0xe304 = _doprintnf+0xe8
e350: 6aaafe02                 or	%r21,%r21,2
e354: 27fff5a0                 b.d	0xe304 = _doprintnf+0xe8
e358: 6aaafe04                 or	%r21,%r21,4
e35c: 27fff4a0                 b.d	0xe304 = _doprintnf+0xe8
e360: 6aaafe08                 or	%r21,%r21,8
e364: 61ff7c00 000171f4        mov	%r15,0x1_71f4		; __ctype
e36c: 40201e00                 add	%r1,%r0,%r15
e370: 08208401                 ldb	%r1,[%r1,1]
e374: 67e0fa04                 and.f	0,%r1,4
e378: 200001a2                 bnz.d	0xe388 = _doprintnf+0x16c
e37c: 100d9dd4                 st	%r14,[%fp,-44]
e380: 57e07a2a                 sub.f	0,%r0,42
e384: 20000682                 bnz	0xe3bc = _doprintnf+0x1a0
e388: 57e07a30                 sub.f	0,%r0,48
e38c: 6aaafe20                 or	%r21,%r21,32
e390: 20000222                 bnz.d	0xe3a4 = _doprintnf+0x188
e394: 52cb2c00                 sub	%r22,%r22,%r22
e398: 62dffe31                 mov	%r22,49
e39c: 41c77e01                 add	%r14,%r14,1
e3a0: 100d9dd4                 st	%r14,[%fp,-44]
e3a4: 2fffb420                 bl.d	_doprintnf.getnum
e3a8: 616db600                 mov	%r11,%fp
e3ac: 62e00100                 mov.f	%r23,%r0
e3b0: 20000103                 bp	0xe3bc = _doprintnf+0x1a0
e3b4: 52ffae00                 sub	%r23,0,%r23
e3b8: 6aaafe01                 or	%r21,%r21,1
e3bc: 080d81d4                 ld	%r0,[%fp,-44]
e3c0: 08200400                 ldb	%r1,[%r0]
e3c4: 57e0fa2e                 sub.f	0,%r1,46
e3c8: 20000822                 bnz.d	0xe40c = _doprintnf+0x1f0
e3cc: 61dffe01                 mov	%r14,1
e3d0: 40207e01                 add	%r1,%r0,1
e3d4: 100d83d4                 st	%r1,[%fp,-44]
e3d8: 08208400                 ldb	%r1,[%r1]
e3dc: 57e0fa2d                 sub.f	0,%r1,45
e3e0: 20000282                 bnz	0xe3f8 = _doprintnf+0x1dc
e3e4: 40007e02                 add	%r0,%r0,2
e3e8: 100d81d4                 st	%r0,[%fp,-44]
e3ec: 2fffab20                 bl.d	_doprintnf.getnum
e3f0: 616db600                 mov	%r11,%fp
e3f4: 20000280                 b	0xe40c = _doprintnf+0x1f0
e3f8: 2fffa9a0                 bl.d	_doprintnf.getnum
e3fc: 616db600                 mov	%r11,%fp
e400: 61c00100                 mov.f	%r14,%r0
e404: 6aaafc03 00000040        or.p	%r21,%r21,64		; 0x40 = DMANT_BITS+11
e40c: 080d81d4                 ld	%r0,[%fp,-44]
e410: 50208200                 sub	%r1,%r1,%r1
e414: 0a000400                 ldb	%r16,[%r0]
e418: 40007e01                 add	%r0,%r0,1
e41c: 100d81d4                 st	%r0,[%fp,-44]
e420: 57e87a68                 sub.f	0,%r16,104
e424: 57e87d02 0000004c        sub.nz.f	0,%r16,76		; 0x4c = DMANT_BITS+0x17
e42c: 20000501                 bz	0xe458 = _doprintnf+0x23c
e430: 57e87a6c                 sub.f	0,%r16,108
e434: 62482002                 mov.nz	%r18,%r16
e438: 20000522                 bnz.d	0xe464 = _doprintnf+0x248
e43c: 62008202                 mov.nz	%r16,%r1
e440: 0a400400                 ldb	%r18,[%r0]
e444: 57e97a6c                 sub.f	0,%r18,108
e448: 40007e01                 add	%r0,%r0,1
e44c: 200002a2                 bnz.d	0xe464 = _doprintnf+0x248
e450: 100d81d4                 st	%r0,[%fp,-44]
e454: 621ffe4c                 mov	%r16,76
e458: 0a400400                 ldb	%r18,[%r0]
e45c: 40007e01                 add	%r0,%r0,1
e460: 100d81d4                 st	%r0,[%fp,-44]
e464: 57e97a25                 sub.f	0,%r18,37
e468: 200023a1                 bz.d	0xe588 = _doprintnf+0x36c
e46c: 51a69a00                 sub	%r13,%r13,%r13
e470: 50097e45                 sub	%r0,%r18,69
e474: 57e07a33                 sub.f	0,%r0,51
e478: 2000110d                 bhi	0xe504 = _doprintnf+0x2e8
e47c: 41800000                 asl	%r12,%r0
e480: 01867c05 0000e494        ldw.x	%r12,[%r12,0xe494]		; 0xe494 = _doprintnf+0x278
e488: 41867c00 00003925        add	%r12,%r12,0x3925		; 0x3925 = _HEAPSIZE+0x1925
e490: 38060000                 j	[%r12]
e494: 010d                     .short	FEXP_MAX+14
e496: 001c                     .short	FMANT_BITS+4
e498: 010d                     .short	FEXP_MAX+14
e49a: 001c                     .short	FMANT_BITS+4
e49c: 001c                     .short	FMANT_BITS+4
e49e: 001c                     .short	FMANT_BITS+4
e4a0: 001c                     .short	FMANT_BITS+4
e4a2: 001c                     .short	FMANT_BITS+4
e4a4: 001c                     .short	FMANT_BITS+4
e4a6: 001c                     .short	FMANT_BITS+4
e4a8: 001c                     .short	FMANT_BITS+4
e4aa: 001c                     .short	FMANT_BITS+4
e4ac: 001c                     .short	FMANT_BITS+4
e4ae: 001c                     .short	FMANT_BITS+4
e4b0: 001c                     .short	FMANT_BITS+4
e4b2: 001c                     .short	FMANT_BITS+4
e4b4: 001c                     .short	FMANT_BITS+4
e4b6: 001c                     .short	FMANT_BITS+4
e4b8: 001c                     .short	FMANT_BITS+4
e4ba: 00b9                     .short	FEXP_BIAS+0x3a
e4bc: 001c                     .short	FMANT_BITS+4
e4be: 001c                     .short	FMANT_BITS+4
e4c0: 001c                     .short	FMANT_BITS+4
e4c2: 001c                     .short	FMANT_BITS+4
e4c4: 001c                     .short	FMANT_BITS+4
e4c6: 001c                     .short	FMANT_BITS+4
e4c8: 001c                     .short	FMANT_BITS+4
e4ca: 001c                     .short	FMANT_BITS+4
e4cc: 001c                     .short	FMANT_BITS+4
e4ce: 001c                     .short	FMANT_BITS+4
e4d0: 0039                     .short	DMANT_BITS+4
e4d2: 0074                     .short	DMANT_BITS+0x3f
e4d4: 010d                     .short	FEXP_MAX+14
e4d6: 010d                     .short	FEXP_MAX+14
e4d8: 010d                     .short	FEXP_MAX+14
e4da: 001c                     .short	FMANT_BITS+4
e4dc: 0074                     .short	DMANT_BITS+0x3f
e4de: 001c                     .short	FMANT_BITS+4
e4e0: 001c                     .short	FMANT_BITS+4
e4e2: 001c                     .short	FMANT_BITS+4
e4e4: 001c                     .short	FMANT_BITS+4
e4e6: 0020                     .short	FMANT_BITS+8
e4e8: 00b1                     .short	FEXP_BIAS+0x32
e4ea: 00a0                     .short	FEXP_BIAS+0x21
e4ec: 001c                     .short	FMANT_BITS+4
e4ee: 001c                     .short	FMANT_BITS+4
e4f0: 0042                     .short	DMANT_BITS+13
e4f2: 001c                     .short	FMANT_BITS+4
e4f4: 001a                     .short	FMANT_BITS+2
e4f6: 001c                     .short	FMANT_BITS+4
e4f8: 001c                     .short	FMANT_BITS+4
e4fa: 00b9                     .short	FEXP_BIAS+0x3a
e4fc: 20002d20                 b.d	0xe668 = _doprintnf+0x44c
e500: 100d9bbc                 st	%r13,[%fp,-68]
e504: 280b78a0                 bl.d	___errno
e508: 61bffe16                 mov	%r13,22
e50c: 2000bba0                 b.d	0xeaec = _doprintnf+0x8d0
e510: 10001a00                 st	%r13,[%r0]
e514: 080d8018                 ld	%r0,[%fp,24]
e518: 40007e04                 add	%r0,%r0,4
e51c: 57e87a68                 sub.f	0,%r16,104
e520: 100d8018                 st	%r0,[%fp,24]
e524: 20000721                 bz.d	0xe560 = _doprintnf+0x344
e528: 084001fc                 ld	%r2,[%r0,-4]
e52c: 57e87a6c                 sub.f	0,%r16,108
e530: 20000701                 bz	0xe56c = _doprintnf+0x350
e534: 57e87a4c                 sub.f	0,%r16,76
e538: 20000602                 bnz	0xe56c = _doprintnf+0x350
e53c: 080d81c0                 ld	%r0,[%fp,-64]
e540: 679ffe0f                 mov	%lp_count,15
e544: 18200200                 asr	%r1,%r0
e548: 30000100                 lp	0xe554 = _doprintnf+0x338
e54c: 18208200                 asr	%r1,%r1
e550: 18208200                 asr	%r1,%r1
e554: 10010000                 st	%r0,[%r2]
e558: 2000b220                 b.d	0xeaec = _doprintnf+0x8d0
e55c: 10010204                 st	%r1,[%r2,4]
e560: 080d81c0                 ld	%r0,[%fp,-64]
e564: 2000b0a0                 b.d	0xeaec = _doprintnf+0x8d0
e568: 10810000                 stw	%r0,[%r2]
e56c: 080d81c0                 ld	%r0,[%fp,-64]
e570: 2000af20                 b.d	0xeaec = _doprintnf+0x8d0
e574: 10010000                 st	%r0,[%r2]
e578: 080d8018                 ld	%r0,[%fp,24]
e57c: 40007e04                 add	%r0,%r0,4
e580: 0a4001fc                 ld	%r18,[%r0,-4]
e584: 100d8018                 st	%r0,[%fp,24]
e588: 41edffe0                 add	%r15,%fp,-32
e58c: 1047a400                 stb	%r18,[%r15]
e590: 61dffe01                 mov	%r14,1
e594: 200010a0                 b.d	0xe61c = _doprintnf+0x400
e598: 52082000                 sub	%r16,%r16,%r16
e59c: 080d8018                 ld	%r0,[%fp,24]
e5a0: 40007e04                 add	%r0,%r0,4
e5a4: 09e001fc                 ld	%r15,[%r0,-4]
e5a8: 67e79f00                 mov.f	0,%r15
e5ac: 20001121                 bz.d	0xe638 = _doprintnf+0x41c
e5b0: 100d8018                 st	%r0,[%fp,24]
e5b4: 57e87a6c                 sub.f	0,%r16,108
e5b8: 60079e00                 mov	%r0,%r15
e5bc: 60269a00                 mov	%r1,%r13
e5c0: 200004a2                 bnz.d	0xe5e8 = _doprintnf+0x3cc
e5c4: 185f87fe                 ror	%r2,-2
e5c8: 28040480                 bl	_uchrchr
e5cc: 67e00100                 mov.f	0,%r0
e5d0: 50001e02                 sub.nz	%r0,%r0,%r15
e5d4: 18000202                 asr.nz	%r0,%r0
e5d8: 181f0601 fffffffe        ror.z	%r0,-2		; 0xffff_fffe = .regmask_lo+0x7fbffff
e5e0: 200003a0                 b.d	0xe600 = _doprintnf+0x3e4
e5e4: 621ffe01                 mov	%r16,1
e5e8: 2803fa80                 bl	memchr
e5ec: 67e00100                 mov.f	0,%r0
e5f0: 50001e02                 sub.nz	%r0,%r0,%r15
e5f4: 181f0601 fffffffe        ror.z	%r0,-2		; 0xffff_fffe = .regmask_lo+0x7fbffff
e5fc: 52082000                 sub	%r16,%r16,%r16
e600: 67eafa40                 and.f	0,%r21,64
e604: 20000102                 bnz	0xe610 = _doprintnf+0x3f4
e608: 200001a0                 b.d	0xe618 = _doprintnf+0x3fc
e60c: 61c00000                 mov	%r14,%r0
e610: 57e01d00                 sub.f	0,%r0,%r14
e614: 27fffe0c                 ble	0xe608 = _doprintnf+0x3ec
e618: 625ffe73                 mov	%r18,115
e61c: 100d9dd0                 st	%r14,[%fp,-48]
e620: 51a69a00                 sub	%r13,%r13,%r13
e624: 62869a00                 mov	%r20,%r13
e628: 63269a00                 mov	%r25,%r13
e62c: 62269a00                 mov	%r17,%r13
e630: 200059a0                 b.d	0xe900 = _doprintnf+0x6e4
e634: 100d9bbc                 st	%r13,[%fp,-68]
e638: 080d81c8                 ld	%r0,[%fp,-56]
e63c: 086d81cc                 ld	%r3,[%fp,-52]
e640: 603f7c00 00018c9c        mov	%r1,0x1_8c9c		; 0x1_8c9c = b.L64+8
e648: 38018220                 jl.d	[%r3]
e64c: 605ffe06                 mov	%r2,6
e650: 57e07bff                 sub.f	0,%r0,-1
e654: 20009282                 bnz	0xeaec = _doprintnf+0x8d0
e658: 601fffff                 mov	%r0,-1
e65c: 200093a0                 b.d	0xeafc = _doprintnf+0x8e0
e660: 100d81c0                 st	%r0,[%fp,-64]
e664: 100da5bc                 st	%r18,[%fp,-68]
e668: 57e87a4c                 sub.f	0,%r16,76
e66c: 20000b22                 bnz.d	0xe6c8 = _doprintnf+0x4ac
e670: 080d8018                 ld	%r0,[%fp,24]
e674: 40207e08                 add	%r1,%r0,8
e678: 080081f8                 ld	%r0,[%r1,-8]
e67c: 100d8218                 st	%r1,[%fp,24]
e680: 57e97a75                 sub.f	0,%r18,117
e684: 100d81c4                 st	%r0,[%fp,-60]
e688: 200001a1                 bz.d	0xe698 = _doprintnf+0x47c
e68c: 0b0081fc                 ld	%r24,[%r1,-4]
e690: 57ec7a00                 sub.f	0,%r24,0
e694: 2000010b                 blt	0xe6a0 = _doprintnf+0x484
e698: 200002a0                 b.d	0xe6b0 = _doprintnf+0x494
e69c: 51a69a00                 sub	%r13,%r13,%r13
e6a0: 501e8000                 sub.f	%r0,0,%r0
e6a4: 61bfffff                 mov	%r13,-1
e6a8: 100d81c4                 st	%r0,[%fp,-60]
e6ac: 5b1fb000                 sbc	%r24,0,%r24
e6b0: 082d81c4                 ld	%r1,[%fp,-60]
e6b4: 400dffe0                 add	%r0,%fp,-32
e6b8: 406dffd0                 add	%r3,%fp,-48
e6bc: 28041720                 bl.d	_cnvull2s
e6c0: 604c3000                 mov	%r2,%r24
e6c4: 20000780                 b	0xe704 = _doprintnf+0x4e8
e6c8: 40007e04                 add	%r0,%r0,4
e6cc: 57e97a75                 sub.f	0,%r18,117
e6d0: 100d8018                 st	%r0,[%fp,24]
e6d4: 200001a1                 bz.d	0xe6e4 = _doprintnf+0x4c8
e6d8: 0a6001fc                 ld	%r19,[%r0,-4]
e6dc: 57e9fa00                 sub.f	0,%r19,0
e6e0: 2000010b                 blt	0xe6ec = _doprintnf+0x4d0
e6e4: 200001a0                 b.d	0xe6f4 = _doprintnf+0x4d8
e6e8: 51a69a00                 sub	%r13,%r13,%r13
e6ec: 527fa600                 sub	%r19,0,%r19
e6f0: 61bfffff                 mov	%r13,-1
e6f4: 400dffe0                 add	%r0,%fp,-32
e6f8: 404dffd0                 add	%r2,%fp,-48
e6fc: 28043ea0                 bl.d	_cnvu2s
e700: 6029a600                 mov	%r1,%r19
e704: 61e00000                 mov	%r15,%r0
e708: 633ffe69                 mov	%r25,105
e70c: 20002320                 b.d	0xe828 = _doprintnf+0x60c
e710: 528a2800                 sub	%r20,%r20,%r20
e714: 080d8018                 ld	%r0,[%fp,24]
e718: 404dffd0                 add	%r2,%fp,-48
e71c: 625ffe70                 mov	%r18,112
e720: 40007e04                 add	%r0,%r0,4
e724: 100d8018                 st	%r0,[%fp,24]
e728: 0a6001fc                 ld	%r19,[%r0,-4]
e72c: 400dffe0                 add	%r0,%fp,-32
e730: 280448a0                 bl.d	_cnvp2s
e734: 6029a600                 mov	%r1,%r19
e738: 61e00000                 mov	%r15,%r0
e73c: 09cd81d0                 ld	%r14,[%fp,-48]
e740: 62069a00                 mov	%r16,%r13
e744: 62869a00                 mov	%r20,%r13
e748: 63269a00                 mov	%r25,%r13
e74c: 62269a00                 mov	%r17,%r13
e750: 200035a0                 b.d	0xe900 = _doprintnf+0x6e4
e754: 100d9bbc                 st	%r13,[%fp,-68]
e758: 080d8018                 ld	%r0,[%fp,24]
e75c: 67eafa08                 and.f	0,%r21,8
e760: 62869a01                 mov.z	%r20,%r13
e764: 629f7c02 00000001        mov.nz	%r20,1		; 0x1 = .regmask_lo+1
e76c: 603ffe08                 mov	%r1,8
e770: 200003a0                 b.d	0xe790 = _doprintnf+0x574
e774: 625ffe6f                 mov	%r18,111
e778: 080d8018                 ld	%r0,[%fp,24]
e77c: 67eafa08                 and.f	0,%r21,8
e780: 62869a01                 mov.z	%r20,%r13
e784: 629f7c02 00000002        mov.nz	%r20,2		; GB
e78c: 603ffe10                 mov	%r1,16
e790: 57e87a4c                 sub.f	0,%r16,76
e794: 20000882                 bnz	0xe7dc = _doprintnf+0x5c0
e798: 40007e08                 add	%r0,%r0,8
e79c: 084001f8                 ld	%r2,[%r0,-8]
e7a0: 100d8018                 st	%r0,[%fp,24]
e7a4: 0b0001fc                 ld	%r24,[%r0,-4]
e7a8: 100d85c4                 st	%r2,[%fp,-60]
e7ac: 6fe13100                 or.f	0,%r2,%r24
e7b0: 528a2801                 sub.z	%r20,%r20,%r20
e7b4: 084d81c4                 ld	%r2,[%fp,-60]
e7b8: 57e97a78                 sub.f	0,%r18,120
e7bc: 60bffe01                 mov	%r5,1
e7c0: 400dffe0                 add	%r0,%fp,-32
e7c4: 408dffd0                 add	%r4,%fp,-48
e7c8: 60bf7c02 00000000        mov.nz	%r5,0		; .CC_I
e7d0: 2803c920                 bl.d	_cnvll2s
e7d4: 606c3000                 mov	%r3,%r24
e7d8: 20000780                 b	0xe818 = _doprintnf+0x5fc
e7dc: 40007e04                 add	%r0,%r0,4
e7e0: 100d8018                 st	%r0,[%fp,24]
e7e4: 0a6001fc                 ld	%r19,[%r0,-4]
e7e8: 57e87a68                 sub.f	0,%r16,104
e7ec: 1a699001                 extw.z	%r19,%r19
e7f0: 67e9a700                 mov.f	0,%r19
e7f4: 528a2801                 sub.z	%r20,%r20,%r20
e7f8: 400dffe0                 add	%r0,%fp,-32
e7fc: 406dffd0                 add	%r3,%fp,-48
e800: 57e97a78                 sub.f	0,%r18,120
e804: 609ffe01                 mov	%r4,1
e808: 609f7c02 00000000        mov.nz	%r4,0		; .CC_I
e810: 2803f0a0                 bl.d	_cnvn2s
e814: 6049a600                 mov	%r2,%r19
e818: 61e00000                 mov	%r15,%r0
e81c: 633ffe78                 mov	%r25,120
e820: 51a69a00                 sub	%r13,%r13,%r13
e824: 100d9bbc                 st	%r13,[%fp,-68]
e828: 67eb2d00                 mov.f	0,%r22
e82c: 20000201                 bz	0xe840 = _doprintnf+0x624
e830: 67eafa01                 and.f	0,%r21,1
e834: 67eafd01 00000040        and.z.f	0,%r21,64		; 0x40 = DMANT_BITS+11
e83c: 52cb2c02                 sub.nz	%r22,%r22,%r22
e840: 67e71d00                 mov.f	0,%r14
e844: 20000a02                 bnz	0xe898 = _doprintnf+0x67c
e848: 57e87a4c                 sub.f	0,%r16,76
e84c: 20000302                 bnz	0xe868 = _doprintnf+0x64c
e850: 080d81c4                 ld	%r0,[%fp,-60]
e854: 6fe03100                 or.f	0,%r0,%r24
e858: 50000002                 sub.nz	%r0,%r0,%r0
e85c: 601f7c01 00000001        mov.z	%r0,1		; 0x1 = .regmask_lo+1
e864: 20000180                 b	0xe874 = _doprintnf+0x658
e868: 501ea601                 sub.f	%r0,1,%r19
e86c: 601f7c05 00000000        mov.c	%r0,0		; .CC_I
e874: 67e00100                 mov.f	0,%r0
e878: 20000381                 bz	0xe898 = _doprintnf+0x67c
e87c: 50000000                 sub	%r0,%r0,%r0
e880: 104d81e0                 stb	%r0,[%fp,-32]
e884: 100d81d0                 st	%r0,[%fp,-48]
e888: 62000000                 mov	%r16,%r0
e88c: 62200000                 mov	%r17,%r0
e890: 20000da0                 b.d	0xe900 = _doprintnf+0x6e4
e894: 61c00000                 mov	%r14,%r0
e898: 080d81d0                 ld	%r0,[%fp,-48]
e89c: 67e00100                 mov.f	0,%r0
e8a0: 5228a202                 sub.nz	%r17,%r17,%r17
e8a4: 623f7c01 00000001        mov.z	%r17,1		; 0x1 = .regmask_lo+1
e8ac: 40202200                 add	%r1,%r0,%r17
e8b0: 57e09d00                 sub.f	0,%r1,%r14
e8b4: 61c0820a                 mov.ge	%r14,%r1
e8b8: 5227000b                 sub.lt	%r17,%r14,%r0
e8bc: 41ca1c00                 add	%r14,%r20,%r14
e8c0: 200007a0                 b.d	0xe900 = _doprintnf+0x6e4
e8c4: 52082000                 sub	%r16,%r16,%r16
e8c8: 41e91e00                 add	%r15,%r18,%r15
e8cc: 08078401                 ldb	%r0,[%r15,1]
e8d0: 67e07a01                 and.f	0,%r0,1
e8d4: 43297e20                 add	%r25,%r18,32
e8d8: 63292401                 mov.z	%r25,%r18
e8dc: 61dffe1d                 mov	%r14,29
e8e0: 100d9dd0                 st	%r14,[%fp,-48]
e8e4: 61ff7c00 00018ca3        mov	%r15,0x1_8ca3		; 0x1_8ca3 = b.L64+15
e8ec: 52082000                 sub	%r16,%r16,%r16
e8f0: 61a82000                 mov	%r13,%r16
e8f4: 62882000                 mov	%r20,%r16
e8f8: 62282000                 mov	%r17,%r16
e8fc: 100da1bc                 st	%r16,[%fp,-68]
e900: 67ecb300                 mov.f	0,%r25
e904: 20000801                 bz	0xe948 = _doprintnf+0x72c
e908: 67e69b00                 mov.f	0,%r13
e90c: 20000282                 bnz	0xe924 = _doprintnf+0x708
e910: 080d81bc                 ld	%r0,[%fp,-68]
e914: 67e00100                 mov.f	0,%r0
e918: 67eafd02 00000006        and.nz.f	0,%r21,6		; 0x6 = GB+4
e920: 20000481                 bz	0xe948 = _doprintnf+0x72c
e924: 41c77e01                 add	%r14,%r14,1
e928: 67e69b00                 mov.f	0,%r13
e92c: 428a7e01                 add	%r20,%r20,1
e930: 200002c2                 bnz.jd	0xe948 = _doprintnf+0x72c
e934: 61bffe2d                 mov	%r13,45
e938: 67eafa02                 and.f	0,%r21,2
e93c: 61bffe2b                 mov	%r13,43
e940: 61bf7c01 00000020        mov.z	%r13,32		; 0x20 = FMANT_BITS+8
e948: 67eafa20                 and.f	0,%r21,32
e94c: 20000701                 bz	0xe988 = _doprintnf+0x76c
e950: 57e72f00                 sub.f	0,%r14,%r23
e954: 2000060a                 bge	0xe988 = _doprintnf+0x76c
e958: 67eafa01                 and.f	0,%r21,1
e95c: 51cb9c00                 sub	%r14,%r23,%r14
e960: 200002a1                 bz.d	0xe978 = _doprintnf+0x75c
e964: 100d9db8                 st	%r14,[%fp,-72]
e968: 52aaaa00                 sub	%r21,%r21,%r21
e96c: 100d9db4                 st	%r14,[%fp,-76]
e970: 200004a0                 b.d	0xe998 = _doprintnf+0x77c
e974: 52cb2c00                 sub	%r22,%r22,%r22
e978: 50000000                 sub	%r0,%r0,%r0
e97c: 62a71c00                 mov	%r21,%r14
e980: 200002a0                 b.d	0xe998 = _doprintnf+0x77c
e984: 100d81b4                 st	%r0,[%fp,-76]
e988: 52aaaa00                 sub	%r21,%r21,%r21
e98c: 100dabb4                 st	%r21,[%fp,-76]
e990: 100dafb8                 st	%r23,[%fp,-72]
e994: 62e71c00                 mov	%r23,%r14
e998: 67eaab00                 mov.f	0,%r21
e99c: 20000401                 bz	0xe9c0 = _doprintnf+0x7a4
e9a0: 67eb2d00                 mov.f	0,%r22
e9a4: 20000302                 bnz	0xe9c0 = _doprintnf+0x7a4
e9a8: 600aaa00                 mov	%r0,%r21
e9ac: 602b2c00                 mov	%r1,%r22
e9b0: 2ffefc20                 bl.d	_doprintnf.pad
e9b4: 616db600                 mov	%r11,%fp
e9b8: 67e00100                 mov.f	0,%r0
e9bc: 27ff9302                 bnz	0xe658 = _doprintnf+0x43c
e9c0: 67ecb300                 mov.f	0,%r25
e9c4: 20001081                 bz	0xea4c = _doprintnf+0x830
e9c8: 67ea2900                 mov.f	0,%r20
e9cc: 20000b81                 bz	0xea2c = _doprintnf+0x810
e9d0: 67e69b00                 mov.f	0,%r13
e9d4: 20000221                 bz.d	0xe9e8 = _doprintnf+0x7cc
e9d8: 50410400                 sub	%r2,%r2,%r2
e9dc: 104d9bd8                 stb	%r13,[%fp,-40]
e9e0: 605ffe01                 mov	%r2,1
e9e4: 528a7e01                 sub	%r20,%r20,1
e9e8: 67ea2900                 mov.f	0,%r20
e9ec: 20000481                 bz	0xea14 = _doprintnf+0x7f8
e9f0: 603ffe30                 mov	%r1,48
e9f4: 400d8400                 add	%r0,%fp,%r2
e9f8: 57ea7a01                 sub.f	0,%r20,1
e9fc: 104003d8                 stb	%r1,[%r0,-40]
ea00: 2000022c                 ble.d	0xea14 = _doprintnf+0x7f8
ea04: 40417e01                 add	%r2,%r2,1
ea08: 400d8400                 add	%r0,%fp,%r2
ea0c: 104025d8                 stb	%r18,[%r0,-40]
ea10: 40417e01                 add	%r2,%r2,1
ea14: 086d81cc                 ld	%r3,[%fp,-52]
ea18: 402dffd8                 add	%r1,%fp,-40
ea1c: 38018220                 jl.d	[%r3]
ea20: 080d81c8                 ld	%r0,[%fp,-56]
ea24: 57e07bff                 sub.f	0,%r0,-1
ea28: 27ff8581                 bz	0xe658 = _doprintnf+0x43c
ea2c: 67e8a300                 mov.f	0,%r17
ea30: 20000301                 bz	0xea4c = _doprintnf+0x830
ea34: 6008a200                 mov	%r0,%r17
ea38: 603ffe01                 mov	%r1,1
ea3c: 2ffeeaa0                 bl.d	_doprintnf.pad
ea40: 616db600                 mov	%r11,%fp
ea44: 67e00100                 mov.f	0,%r0
ea48: 27ff8182                 bnz	0xe658 = _doprintnf+0x43c
ea4c: 67eaab00                 mov.f	0,%r21
ea50: 67eb2d02                 mov.nz.f	0,%r22
ea54: 20000301                 bz	0xea70 = _doprintnf+0x854
ea58: 600aaa00                 mov	%r0,%r21
ea5c: 602b2c00                 mov	%r1,%r22
ea60: 2ffee620                 bl.d	_doprintnf.pad
ea64: 616db600                 mov	%r11,%fp
ea68: 67e00100                 mov.f	0,%r0
ea6c: 27ff7d02                 bnz	0xe658 = _doprintnf+0x43c
ea70: 086d81d0                 ld	%r3,[%fp,-48]
ea74: 67e18700                 mov.f	0,%r3
ea78: 20000801                 bz	0xeabc = _doprintnf+0x8a0
ea7c: 67e82100                 mov.f	0,%r16
ea80: 20000381                 bz	0xeaa0 = _doprintnf+0x884
ea84: 080d81cc                 ld	%r0,[%fp,-52]
ea88: 082d81c8                 ld	%r1,[%fp,-56]
ea8c: 2ffebea0                 bl.d	uni_to_asc
ea90: 60479e00                 mov	%r2,%r15
ea94: 57e07bff                 sub.f	0,%r0,-1
ea98: 20000402                 bnz	0xeabc = _doprintnf+0x8a0
ea9c: 27ff7700                 b	0xe658 = _doprintnf+0x43c
eaa0: 60418600                 mov	%r2,%r3
eaa4: 086d81cc                 ld	%r3,[%fp,-52]
eaa8: 080d81c8                 ld	%r0,[%fp,-56]
eaac: 38018220                 jl.d	[%r3]
eab0: 60279e00                 mov	%r1,%r15
eab4: 57e07bff                 sub.f	0,%r0,-1
eab8: 27ff7381                 bz	0xe658 = _doprintnf+0x43c
eabc: 080d81b4                 ld	%r0,[%fp,-76]
eac0: 67e00100                 mov.f	0,%r0
eac4: 20000281                 bz	0xeadc = _doprintnf+0x8c0
eac8: 602b2c00                 mov	%r1,%r22
eacc: 2ffed8a0                 bl.d	_doprintnf.pad
ead0: 616db600                 mov	%r11,%fp
ead4: 67e00100                 mov.f	0,%r0
ead8: 27ff6f82                 bnz	0xe658 = _doprintnf+0x43c
eadc: 080d81c0                 ld	%r0,[%fp,-64]
eae0: 400b8000                 add	%r0,%r23,%r0
eae4: 0aed81b8                 ld	%r23,[%fp,-72]
eae8: 100d81c0                 st	%r0,[%fp,-64]
eaec: 080d81d4                 ld	%r0,[%fp,-44]
eaf0: 08200400                 ldb	%r1,[%r0]
eaf4: 67e08300                 mov.f	0,%r1
eaf8: 27feef82                 bnz	0xe278 = _doprintnf+0x5c
eafc: 080d81c0                 ld	%r0,[%fp,-64]
eb00: 280ab200                 bl	__load13to25
eb04: 0bed8004                 ld	%blink,[%fp,4]
eb08: 0b6e1090                 ld.a	%fp,[%sp,144]
eb0c: 380f8020                 j.d	[%blink]
eb10: 438e7e0c                 add	%sp,%sp,12
atexit:
eb14: 100e3e04                 st	%blink,[%sp,4]
eb18: 280a3e00                 bl	__prolog_save14
eb1c: 61a00000                 mov	%r13,%r0
eb20: 61df7c00 00018de4        mov	%r14,0x1_8de4		; _malloc_level
eb28: 280ab820                 bl.d	_mwmutex_lock
eb2c: 08070104                 ld	%r0,[%r14,-252]
eb30: 08070100                 ld	%r0,[%r14,-256]
eb34: 57e07a24                 sub.f	0,%r0,36
eb38: 200007ca                 bge.jd	0xeb78 = atexit+0x64
eb3c: 61bfffff                 mov	%r13,-1
eb40: 67e00100                 mov.f	0,%r0
eb44: 20000202                 bnz	0xeb58 = atexit+0x44
eb48: 603f7c00 00003ae2        mov	%r1,0x3ae2		; 0x3ae2 = _HEAPSIZE+0x1ae2
eb50: 101f0200 00018d34        st	%r1,[0x1_8d34]		; _exitv
eb58: 40200000                 asl	%r1,%r0
eb5c: 40208200                 asl	%r1,%r1
eb60: 4040fc00 00019324        add	%r2,%r1,0x1_9324		; _atexit_list
eb68: 10011a00                 st	%r13,[%r2]
eb6c: 40007e01                 add	%r0,%r0,1
eb70: 10070100                 st	%r0,[%r14,-256]
eb74: 51a69a00                 sub	%r13,%r13,%r13
eb78: 280aaea0                 bl.d	_mwmutex_unlock
eb7c: 08070104                 ld	%r0,[%r14,-252]
eb80: 200a5b20                 b.d	__epilog_restore14
eb84: 60069a00                 mov	%r0,%r13
doexit:
eb88: 100e3e04                 st	%blink,[%sp,4]
eb8c: 280a3200                 bl	__prolog_save15
eb90: 09bf0000 00018ce4        ld	%r13,[0x1_8ce4]		; _atexit_count
eb98: 67e69b00                 mov.f	0,%r13
eb9c: 200a5881                 bz	__epilog_restore15
eba0: 61ff7c00 00019424        mov	%r15,0x1_9424		; 0x1_9424 = _mwfile_locks+0x70
eba8: 61c69b00                 mov.f	%r14,%r13
ebac: 51df1c04 00000000        sub.n	%r14,0,%r14		; .CC_I
ebb4: 51a6fe01                 sub	%r13,%r13,1
ebb8: 40269a00                 asl	%r1,%r13
ebbc: 4007ff00                 add	%r0,%r15,-256
ebc0: 40208200                 asl	%r1,%r1
ebc4: 40000200                 add	%r0,%r0,%r1
ebc8: 08000000                 ld	%r0,[%r0]
ebcc: 38000220                 jl.d	[%r0]
ebd0: 51c77e01                 sub	%r14,%r14,1
ebd4: 57e77a00                 sub.f	0,%r14,0
ebd8: 200a510e                 bls	__epilog_restore15
ebdc: 27fffa80                 b	0xebb4 = doexit+0x2c
__mod_I__cstdgatexitc0____________c_stdg_atexit_c_121:
ebe0: 601f7c00 00018ce8        mov	%r0,0x1_8ce8		; _atexit_lock
ebe8: 200a9f00                 b	_mwmutex_create
_enable:
ebec: 6beffc00 0c000000        or	%blink,%blink,0xc00_0000		; 0xc00_0000 = .regmask_hi+0x2000000
ebf4: 380f8100                 j.f	[%blink]
_enable1:
ebf8: 6beffc00 04000000        or	%blink,%blink,0x400_0000		; 0x400_0000 = FOVF_BIT+0x3000000
ec00: 380f8100                 j.f	[%blink]
_enable2:
ec04: 6beffc00 08000000        or	%blink,%blink,0x800_0000		; .regmask_hi
ec0c: 380f8100                 j.f	[%blink]
strlen:
ec10: 100e3e04                 st	%blink,[%sp,4]
ec14: 280a1c20                 bl.d	__prolog_save13
ec18: 50208200                 sub	%r1,%r1,%r1
ec1c: 61a00000                 mov	%r13,%r0
ec20: 280333a0                 bl.d	memchr
ec24: 185f87fe                 ror	%r2,-2
ec28: 200a4520                 b.d	__epilog_restore13
ec2c: 50001a00                 sub	%r0,%r0,%r13
strcpy:
ec30: 100e3e04                 st	%blink,[%sp,4]
ec34: 280a1aa0                 bl.d	__prolog_save14
ec38: 185f87fe                 ror	%r2,-2
ec3c: 61c00000                 mov	%r14,%r0
ec40: 61a08200                 mov	%r13,%r1
ec44: 60008200                 mov	%r0,%r1
ec48: 28032ea0                 bl.d	memchr
ec4c: 50208200                 sub	%r1,%r1,%r1
ec50: 50001a00                 sub	%r0,%r0,%r13
ec54: 40407e01                 add	%r2,%r0,1
ec58: 60071c00                 mov	%r0,%r14
ec5c: 28003a20                 bl.d	memcpy
ec60: 60269a00                 mov	%r1,%r13
ec64: 200a3ea0                 b.d	__epilog_restore14
ec68: 60071c00                 mov	%r0,%r14
exit:
ec6c: 100e3e04                 st	%blink,[%sp,4]
ec70: 280a1080                 bl	__prolog_save13
ec74: 603f7c00 00018df8        mov	%r1,0x1_8df8		; checking
ec7c: 61a00000                 mov	%r13,%r0
ec80: 08008100                 ld	%r0,[%r1,-256]
ec84: 67e00100                 mov.f	0,%r0
ec88: 20000182                 bnz	0xec98 = exit+0x2c
ec8c: 601ffe01                 mov	%r0,1
ec90: 28039fa0                 bl.d	__cleanup
ec94: 10008100                 st	%r0,[%r1,-256]
ec98: 280a8b20                 bl.d	_exit
ec9c: 60069a00                 mov	%r0,%r13
eca0: 200a3600                 b	__epilog_restore13
_initcopy_exit:
eca4: 380f8000                 j	[%blink]
_initdatCopy:
eca8: 100e3e04                 st	%blink,[%sp,4]
ecac: 280a0ba0                 bl.d	__prolog_save14
ecb0: 60800000                 mov	%r4,%r0
ecb4: 61c08200                 mov	%r14,%r1
ecb8: 61a18600                 mov	%r13,%r3
ecbc: 60010400                 mov	%r0,%r2
ecc0: 60220800                 mov	%r1,%r4
ecc4: 28002d20                 bl.d	memcpy
ecc8: 60471c00                 mov	%r2,%r14
eccc: 200a31a0                 b.d	__epilog_restore14
ecd0: 10069c00                 st	%r14,[%r13]
_initcopy:
ecd4: 100e3e04                 st	%blink,[%sp,4]
ecd8: 280a0920                 bl.d	__prolog_save15sp
ecdc: 619ffe20                 mov	%r12,32
ece0: 601f7c00 00000000        mov	%r0,0		; .CC_I
ece8: 67e00100                 mov.f	0,%r0
ecec: 20000102                 bnz	0xecf8 = _initcopy+0x24
ecf0: 20000a20                 b.d	0xed44 = _initcopy+0x70
ecf4: 50000000                 sub	%r0,%r0,%r0
ecf8: 603f7c00 00000000        mov	%r1,0		; .CC_I
ed00: 08008400                 ldb	%r0,[%r1]
ed04: 57fe8049                 sub.f	0,73,%r0
ed08: 20000302                 bnz	0xed24 = _initcopy+0x50
ed0c: 08008401                 ldb	%r0,[%r1,1]
ed10: 57fe804e                 sub.f	0,78,%r0
ed14: 20000182                 bnz	0xed24 = _initcopy+0x50
ed18: 08008402                 ldb	%r0,[%r1,2]
ed1c: 57fe8049                 sub.f	0,73,%r0
ed20: 20000101                 bz	0xed2c = _initcopy+0x58
ed24: 200002a0                 b.d	0xed3c = _initcopy+0x68
ed28: 601ffe01                 mov	%r0,1
ed2c: 08008403                 ldb	%r0,[%r1,3]
ed30: 57e07a03                 sub.f	0,%r0,3
ed34: 601ffe02                 mov	%r0,2
ed38: 5000000c                 sub.le	%r0,%r0,%r0
ed3c: 67e00100                 mov.f	0,%r0
ed40: 20000181                 bz	0xed50 = _initcopy+0x7c
ed44: 2fffeb80                 bl	_initcopy_exit
ed48: 200a3420                 b.d	__epilog_load15
ed4c: 619ffe20                 mov	%r12,32
ed50: 08008403                 ldb	%r0,[%r1,3]
ed54: 57e07a03                 sub.f	0,%r0,3
ed58: 2000028b                 blt	0xed70 = _initcopy+0x9c
ed5c: 41c0fe08                 add	%r14,%r1,8
ed60: 200007a0                 b.d	0xeda0 = _initcopy+0xcc
ed64: 09e08004                 ld	%r15,[%r1,4]
ed68: 200006a0                 b.d	0xeda0 = _initcopy+0xcc
ed6c: 41c77e08                 add	%r14,%r14,8
ed70: 61ff7c00 00003b2a        mov	%r15,0x3b2a		; 0x3b2a = _HEAPSIZE+0x1b2a
ed78: 200004a0                 b.d	0xeda0 = _initcopy+0xcc
ed7c: 41c0fe04                 add	%r14,%r1,4
ed80: 41c77e08                 add	%r14,%r14,8
ed84: 406dfffc                 add	%r3,%fp,-4
ed88: 60071c00                 mov	%r0,%r14
ed8c: 38078220                 jl.d	[%r15]
ed90: 60269a00                 mov	%r1,%r13
ed94: 4006fe03                 add	%r0,%r13,3
ed98: 60007ffc                 and	%r0,%r0,-4
ed9c: 41c70000                 add	%r14,%r14,%r0
eda0: 09a70004                 ld	%r13,[%r14,4]
eda4: 67e69b00                 mov.f	0,%r13
eda8: 20000182                 bnz	0xedb8 = _initcopy+0xe4
edac: 08070000                 ld	%r0,[%r14]
edb0: 67e00100                 mov.f	0,%r0
edb4: 27ffe701                 bz	0xecf0 = _initcopy+0x1c
edb8: 67e69b00                 mov.f	0,%r13
edbc: 27fff501                 bz	0xed68 = _initcopy+0x94
edc0: 57e6fa00                 sub.f	0,%r13,0
edc4: 27fff729                 bgt.d	0xed80 = _initcopy+0xac
edc8: 08470000                 ld	%r2,[%r14]
edcc: 503f9a00                 sub	%r1,0,%r13
edd0: 280a29a0                 bl.d	_memclr
edd4: 60010400                 mov	%r0,%r2
edd8: 27fff8a0                 b.d	0xeda0 = _initcopy+0xcc
eddc: 41c77e08                 add	%r14,%r14,8
_invalidate_icache:
ede0: 380f8020                 j.d	[%blink]
ede4: 121ffe10                 sr	16,[0x10]
_invalidate_dcache:
ede8: 083fa072                 lr	%r1,[0x72]
edec: 6020faff                 and.f	%r1,%r1,255
edf0: 7fffffff                 nop
edf4: 380f8001                 jz	[%blink]
edf8: 083fa048                 lr	%r1,[0x48]
edfc: 601ffec2                 mov	%r0,194
ee00: 121f8048                 sr	%r0,[0x48]
ee04: 601ffe01                 mov	%r0,1
ee08: 121f8047                 sr	%r0,[0x47]
dcache_wait:
ee0c: 081fa048                 lr	%r0,[0x48]
ee10: 60007d00 00000100        and.f	%r0,%r0,0x100		; 0x100 = FEXP_MAX+1
ee18: 7fffffff                 nop
ee1c: 27fffd82                 bnz	dcache_wait
ee20: 380f8020                 j.d	[%blink]
ee24: 121f8248                 sr	%r1,[0x48]
ee28: 00000000                 ld	%r0,[%r0,%r0]
ee2c: 00000000                 ld	%r0,[%r0,%r0]
memcpy:
ee30: 67810500                 mov.f	%lp_count,%r2
ee34: 68800200                 or	%r4,%r0,%r1
ee38: 380f8101                 jz.f	[%blink]
ee3c: 67e27a03                 and.f	0,%r4,3
ee40: 18810400                 lsr	%r4,%r2
ee44: 20001182                 bnz	0xeed4 = memcpy+0xa4
ee48: 18820400                 lsr	%r4,%r4
ee4c: 18820400                 lsr	%r4,%r4
ee50: 1f820500                 lsr.f	%lp_count,%r4
ee54: 5020fe04                 sub	%r1,%r1,4
ee58: 50607e04                 sub	%r3,%r0,4
ee5c: 30000402                 lpnz	0xee80 = memcpy+0x50
ee60: 08809004                 ld.a	%r4,[%r1,4]
ee64: 08a09004                 ld.a	%r5,[%r1,4]
ee68: 08c09004                 ld.a	%r6,[%r1,4]
ee6c: 08e09004                 ld.a	%r7,[%r1,4]
ee70: 11018804                 st.a	%r4,[%r3,4]
ee74: 11018a04                 st.a	%r5,[%r3,4]
ee78: 11018c04                 st.a	%r6,[%r3,4]
ee7c: 11018e04                 st.a	%r7,[%r3,4]
ee80: 200005a5                 bc.d	0xeeb0 = memcpy+0x80
ee84: 67e17a04                 and.f	0,%r2,4
ee88: 7fffffff                 nop
ee8c: 20000722                 bnz.d	0xeec8 = memcpy+0x98
ee90: 67817a03                 and.f	%lp_count,%r2,3
ee94: 4020fe03                 add	%r1,%r1,3
ee98: 380f8101                 jz.f	[%blink]
ee9c: 4061fe03                 add	%r3,%r3,3
eea0: 30000100                 lp	0xeeac = memcpy+0x7c
eea4: 08809401                 ldb.a	%r4,[%r1,1]
eea8: 11418801                 stb.a	%r4,[%r3,1]
eeac: 380f8100                 j.f	[%blink]
eeb0: 08809004                 ld.a	%r4,[%r1,4]
eeb4: 08a09004                 ld.a	%r5,[%r1,4]
eeb8: 11018804                 st.a	%r4,[%r3,4]
eebc: 27fffa21                 bz.d	0xee90 = memcpy+0x60
eec0: 11018a04                 st.a	%r5,[%r3,4]
eec4: 67817a03                 and.f	%lp_count,%r2,3
eec8: 08809004                 ld.a	%r4,[%r1,4]
eecc: 27fff8a0                 b.d	0xee94 = memcpy+0x64
eed0: 11018804                 st.a	%r4,[%r3,4]
eed4: 5020fe01                 sub	%r1,%r1,1
eed8: 50607e01                 sub	%r3,%r0,1
eedc: 30000100                 lp	0xeee8 = memcpy+0xb8
eee0: 08809401                 ldb.a	%r4,[%r1,1]
eee4: 11418801                 stb.a	%r4,[%r3,1]
eee8: 380f8100                 j.f	[%blink]
_dofopen:
eeec: 100e3e04                 st	%blink,[%sp,4]
eef0: 2809d020                 bl.d	__prolog_save19sp
eef4: 619ffe38                 mov	%r12,56
eef8: 61a00000                 mov	%r13,%r0
eefc: 62408200                 mov	%r18,%r1
ef00: 61e10400                 mov	%r15,%r2
ef04: 61c18600                 mov	%r14,%r3
ef08: 62020800                 mov	%r16,%r4
ef0c: 280358a0                 bl.d	_stdio_linked
ef10: 5228a200                 sub	%r17,%r17,%r17
ef14: 57e77bff                 sub.f	0,%r14,-1
ef18: 627f7c00 00000200        mov	%r19,0x200		; 0x200 = FEXP_MAX+0x101
ef20: 2000028a                 bge	0xef38 = _dofopen+0x4c
ef24: 280a34a0                 bl.d	___errno
ef28: 61bffe09                 mov	%r13,9
ef2c: 10001a00                 st	%r13,[%r0]
ef30: 20005420                 b.d	0xf1d4 = _dofopen+0x2e8
ef34: 61e8a200                 mov	%r15,%r17
ef38: 40edfffc                 add	%r7,%fp,-4
ef3c: 08090400                 ldb	%r0,[%r18]
ef40: 40adfff4                 add	%r5,%fp,-12
ef44: 57e07a61                 sub.f	0,%r0,97
ef48: 40cdfff8                 add	%r6,%fp,-8
ef4c: 200010a1                 bz.d	0xefd4 = _dofopen+0xe8
ef50: 41097e01                 add	%r8,%r18,1
ef54: 57e07a72                 sub.f	0,%r0,114
ef58: 20000301                 bz	0xef74 = _dofopen+0x88
ef5c: 57e07a77                 sub.f	0,%r0,119
ef60: 20001002                 bnz	0xefe4 = _dofopen+0xf8
ef64: 603f7c00 00000301        mov	%r1,0x301		; 0x301 = FEXP_MAX+0x202
ef6c: 20000da0                 b.d	0xefdc = _dofopen+0xf0
ef70: 6048a200                 mov	%r2,%r17
ef74: 6048a200                 mov	%r2,%r17
ef78: 601ffe01                 mov	%r0,1
ef7c: 20000220                 b.d	0xef90 = _dofopen+0xa4
ef80: 6028a200                 mov	%r1,%r17
ef84: 6020fffe                 and	%r1,%r1,-2
ef88: 6820fe02                 or	%r1,%r1,2
ef8c: 601ffe80                 mov	%r0,128
ef90: 08640400                 ldb	%r3,[%r8]
ef94: 60841000                 mov	%r4,%r8
ef98: 57e1fa2b                 sub.f	0,%r3,43
ef9c: 27fffca1                 bz.d	0xef84 = _dofopen+0x98
efa0: 41047e01                 add	%r8,%r8,1
efa4: 57e1fa62                 sub.f	0,%r3,98
efa8: 27fffc81                 bz	0xef90 = _dofopen+0xa4
efac: 08620400                 ldb	%r3,[%r4]
efb0: 67e18700                 mov.f	0,%r3
efb4: 20000821                 bz.d	0xeff8 = _dofopen+0x10c
efb8: 40827e01                 add	%r4,%r4,1
efbc: 57e1fa74                 sub.f	0,%r3,116
efc0: 27fffd01                 bz	0xefac = _dofopen+0xc0
efc4: 57e1fa75                 sub.f	0,%r3,117
efc8: 20000302                 bnz	0xefe4 = _dofopen+0xf8
efcc: 27fffba0                 b.d	0xefac = _dofopen+0xc0
efd0: 68007e04                 or	%r0,%r0,4
efd4: 4029ff09                 add	%r1,%r19,-247
efd8: 605ffe01                 mov	%r2,1
efdc: 27fff620                 b.d	0xef90 = _dofopen+0xa4
efe0: 601ffe02                 mov	%r0,2
efe4: 280a1ca0                 bl.d	___errno
efe8: 623ffe16                 mov	%r17,22
efec: 10002200                 st	%r17,[%r0]
eff0: 200002a0                 b.d	0xf008 = _dofopen+0x11c
eff4: 601fffff                 mov	%r0,-1
eff8: 10038200                 st	%r1,[%r7]
effc: 10030000                 st	%r0,[%r6]
f000: 10028400                 st	%r2,[%r5]
f004: 50000000                 sub	%r0,%r0,%r0
f008: 67e00100                 mov.f	0,%r0
f00c: 20000982                 bnz	0xf05c = _dofopen+0x170
f010: 67e79f00                 mov.f	0,%r15
f014: 20000181                 bz	0xf024 = _dofopen+0x138
f018: 28033ca0                 bl.d	_ifclose
f01c: 60079e00                 mov	%r0,%r15
f020: 20000080                 b	0xf028 = _dofopen+0x13c
f024: 51e79e00                 sub	%r15,%r15,%r15
f028: 57e77bff                 sub.f	0,%r14,-1
f02c: 20000682                 bnz	0xf064 = _dofopen+0x178
f030: 080d81fc                 ld	%r0,[%fp,-4]
f034: 68202000                 or	%r1,%r0,%r16
f038: 100d83fc                 st	%r1,[%fp,-4]
f03c: 60069a00                 mov	%r0,%r13
f040: 2ff36e20                 bl.d	_open
f044: 405ffedb                 asl	%r2,219
f048: 61c00100                 mov.f	%r14,%r0
f04c: 20000283                 bp	0xf064 = _dofopen+0x178
f050: 67e79f00                 mov.f	0,%r15
f054: 280358a2                 blnz.d	_freefp
f058: 60079e02                 mov.nz	%r0,%r15
f05c: 20002ea0                 b.d	0xf1d4 = _dofopen+0x2e8
f060: 51e79e00                 sub	%r15,%r15,%r15
f064: 28035da0                 bl.d	_fd_shrd
f068: 60071c00                 mov	%r0,%r14
f06c: 67e00100                 mov.f	0,%r0
f070: 20000181                 bz	0xf080 = _dofopen+0x194
f074: 080d81f8                 ld	%r0,[%fp,-8]
f078: 68002600                 or	%r0,%r0,%r19
f07c: 100d81f8                 st	%r0,[%fp,-8]
f080: 621f7c00 00018dfc        mov	%r16,0x1_8dfc		; 0x1_8dfc = checking+4
f088: 280a0c20                 bl.d	_mwmutex_lock
f08c: 08080100                 ld	%r0,[%r16,-256]
f090: 67e79f00                 mov.f	0,%r15
f094: 20001182                 bnz	0xf124 = _dofopen+0x238
f098: 40071c00                 asl	%r0,%r14
f09c: 40000000                 asl	%r0,%r0
f0a0: 40000000                 asl	%r0,%r0
f0a4: 085f0000 00018870        ld	%r2,[0x1_8870]		; _fopen_max
f0ac: 607f7c00 00018550        mov	%r3,0x1_8550		; __iob
f0b4: 57e70500                 sub.f	0,%r14,%r2
f0b8: 40000000                 asl	%r0,%r0
f0bc: 2000022a                 bge.d	0xf0d0 = _dofopen+0x1e4
f0c0: 41e18000                 add	%r15,%r3,%r0
f0c4: 0807840c                 ldb	%r0,[%r15,12]
f0c8: 67e00100                 mov.f	0,%r0
f0cc: 20000901                 bz	0xf118 = _dofopen+0x22c
f0d0: 57e17a03                 sub.f	0,%r2,3
f0d4: 51e79e00                 sub	%r15,%r15,%r15
f0d8: 200007ac                 ble.d	0xf118 = _dofopen+0x22c
f0dc: 603ffe03                 mov	%r1,3
f0e0: 57817e03                 sub	%lp_count,%r2,3
f0e4: 30000480                 lp	0xf10c = _dofopen+0x220
f0e8: 40408200                 asl	%r2,%r1
f0ec: 40410400                 asl	%r2,%r2
f0f0: 40410400                 asl	%r2,%r2
f0f4: 40410400                 asl	%r2,%r2
f0f8: 40010600                 add	%r0,%r2,%r3
f0fc: 0800040c                 ldb	%r0,[%r0,12]
f100: 67e00100                 mov.f	0,%r0
f104: 20000181                 bz	0xf114 = _dofopen+0x228
f108: 4020fe01                 add	%r1,%r1,1
f10c: 20000120                 b.d	0xf118 = _dofopen+0x22c
f110: 51e79e00                 sub	%r15,%r15,%r15
f114: 41e10600                 add	%r15,%r2,%r3
f118: 67e79f00                 mov.f	0,%r15
f11c: 28001b22                 blnz.d	_mwinit_file_lock
f120: 60079e02                 mov.nz	%r0,%r15
f124: 67e79f00                 mov.f	0,%r15
f128: 20000622                 bnz.d	0xf15c = _dofopen+0x270
f12c: 08080100                 ld	%r0,[%r16,-256]
f130: 2809f780                 bl	_mwmutex_unlock
f134: 2809f820                 bl.d	close
f138: 60071c00                 mov	%r0,%r14
f13c: 080d81fc                 ld	%r0,[%fp,-4]
f140: 67e02700                 and.f	0,%r0,%r19
f144: 2809f9a2                 blnz.d	remove
f148: 60069a02                 mov.nz	%r0,%r13
f14c: 2809efa0                 bl.d	___errno
f150: 61bffe17                 mov	%r13,23
f154: 27ffe0a0                 b.d	0xf05c = _dofopen+0x170
f158: 10001a00                 st	%r13,[%r0]
f15c: 50a28a00                 sub	%r5,%r5,%r5
f160: 10078a08                 st	%r5,[%r15,8]
f164: 10078a04                 st	%r5,[%r15,4]
f168: 10078a00                 st	%r5,[%r15]
f16c: 082d81f8                 ld	%r1,[%fp,-8]
f170: 10479c0d                 stb	%r14,[%r15,13]
f174: 1047820c                 stb	%r1,[%r15,12]
f178: 603f7c00 00018550        mov	%r1,0x1_8550		; __iob
f180: 086d81f4                 ld	%r3,[%fp,-12]
f184: 50278200                 sub	%r1,%r15,%r1
f188: 18408200                 asr	%r2,%r1
f18c: 18410200                 asr	%r2,%r2
f190: 18410200                 asr	%r2,%r2
f194: 18410200                 asr	%r2,%r2
f198: 40817c00 00018940        add	%r4,%r2,0x1_8940		; _iob_fioflag
f1a0: 40410400                 asl	%r2,%r2
f1a4: 40410400                 asl	%r2,%r2
f1a8: 6020fff0                 and	%r1,%r1,-16
f1ac: 40417c00 00018878        add	%r2,%r2,0x1_8878		; _iob_tmpnam
f1b4: 10420600                 stb	%r3,[%r4]
f1b8: 10010a00                 st	%r5,[%r2]
f1bc: 4020fc00 00018974        add	%r1,%r1,0x1_8974		; _iob_unget
f1c4: 10008a08                 st	%r5,[%r1,8]
f1c8: 10008a0c                 st	%r5,[%r1,12]
f1cc: 2809e420                 bl.d	_mwmutex_unlock
f1d0: 10008a04                 st	%r5,[%r1,4]
f1d4: 60079e00                 mov	%r0,%r15
f1d8: 2009a020                 b.d	__epilog_load19
f1dc: 619ffe38                 mov	%r12,56
__mod_D__cfiogdofopenc0____________c_fiog_dofopen_c_120:
f1e0: 601f7c00 00018cfc        mov	%r0,0x1_8cfc		; _iob_lock
f1e8: 2009df80                 b	_mwmutex_delete
__mod_I__cfiogdofopenc0____________c_fiog_dofopen_c_120:
f1ec: 601f7c00 00018cfc        mov	%r0,0x1_8cfc		; _iob_lock
f1f4: 2009dd80                 b	_mwmutex_create
_mwinit_file_lock:
f1f8: 100e3e04                 st	%blink,[%sp,4]
f1fc: 28095c80                 bl	__prolog_save0
f200: 603f7c00 00018550        mov	%r1,0x1_8550		; __iob
f208: 50000200                 sub	%r0,%r0,%r1
f20c: 18000200                 asr	%r0,%r0
f210: 18000200                 asr	%r0,%r0
f214: 18000200                 asr	%r0,%r0
f218: 18000200                 asr	%r0,%r0
f21c: 40000000                 asl	%r0,%r0
f220: 40000000                 asl	%r0,%r0
f224: 40007c00 000193b4        add	%r0,%r0,0x1_93b4		; _mwfile_locks
f22c: 2809d680                 bl	_mwmutex_create
f230: 20098320                 b.d	__epilog_restore0
f234: 50000000                 sub	%r0,%r0,%r0
_mwdelete_file_lock:
f238: 100e3e04                 st	%blink,[%sp,4]
f23c: 28095480                 bl	__prolog_save0
f240: 603f7c00 00018550        mov	%r1,0x1_8550		; __iob
f248: 50000200                 sub	%r0,%r0,%r1
f24c: 18000200                 asr	%r0,%r0
f250: 18000200                 asr	%r0,%r0
f254: 18000200                 asr	%r0,%r0
f258: 18000200                 asr	%r0,%r0
f25c: 40000000                 asl	%r0,%r0
f260: 40000000                 asl	%r0,%r0
f264: 40007c00 000193b4        add	%r0,%r0,0x1_93b4		; _mwfile_locks
f26c: 2809cf00                 bl	_mwmutex_delete
f270: 20097b20                 b.d	__epilog_restore0
f274: 50000000                 sub	%r0,%r0,%r0
_mwlock_file:
f278: 603f7c00 00018550        mov	%r1,0x1_8550		; __iob
f280: 50000200                 sub	%r0,%r0,%r1
f284: 18000200                 asr	%r0,%r0
f288: 18000200                 asr	%r0,%r0
f28c: 18000200                 asr	%r0,%r0
f290: 18000200                 asr	%r0,%r0
f294: 40000000                 asl	%r0,%r0
f298: 40000000                 asl	%r0,%r0
f29c: 40007c00 000193b4        add	%r0,%r0,0x1_93b4		; _mwfile_locks
f2a4: 2009c8a0                 b.d	_mwmutex_lock
f2a8: 08000000                 ld	%r0,[%r0]
_mwunlock_file:
f2ac: 603f7c00 00018550        mov	%r1,0x1_8550		; __iob
f2b4: 50000200                 sub	%r0,%r0,%r1
f2b8: 18000200                 asr	%r0,%r0
f2bc: 18000200                 asr	%r0,%r0
f2c0: 18000200                 asr	%r0,%r0
f2c4: 18000200                 asr	%r0,%r0
f2c8: 40000000                 asl	%r0,%r0
f2cc: 40000000                 asl	%r0,%r0
f2d0: 40007c00 000193b4        add	%r0,%r0,0x1_93b4		; _mwfile_locks
f2d8: 2009c2a0                 b.d	_mwmutex_unlock
f2dc: 08000000                 ld	%r0,[%r0]
__mod_D__cfiogfilelockc0____________c_fiog_filelock_c_120:
f2e0: 100e3e04                 st	%blink,[%sp,4]
f2e4: 28094480                 bl	__prolog_save14
f2e8: 61bf7c00 00018550        mov	%r13,0x1_8550		; __iob
f2f0: 0806840c                 ldb	%r0,[%r13,12]
f2f4: 61df7c00 000193b4        mov	%r14,0x1_93b4		; _mwfile_locks
f2fc: 67e00100                 mov.f	0,%r0
f300: 2809bca2                 blnz.d	_mwmutex_delete
f304: 60071c02                 mov.nz	%r0,%r14
f308: 0806841c                 ldb	%r0,[%r13,28]
f30c: 67e00100                 mov.f	0,%r0
f310: 2809bac2                 blnz.jd	_mwmutex_delete
f314: 40077e04                 add	%r0,%r14,4
f318: 0806842c                 ldb	%r0,[%r13,44]
f31c: 67e00100                 mov.f	0,%r0
f320: 20096701                 bz	__epilog_restore14
f324: 2809b820                 bl.d	_mwmutex_delete
f328: 40077e08                 add	%r0,%r14,8
f32c: 20096580                 b	__epilog_restore14
__mod_I__cfiogfilelockc0____________c_fiog_filelock_c_120:
f330: 100e3e04                 st	%blink,[%sp,4]
f334: 28093800                 bl	__prolog_save13
f338: 61bf7c00 000193b4        mov	%r13,0x1_93b4		; _mwfile_locks
f340: 2809b420                 bl.d	_mwmutex_create
f344: 60069a00                 mov	%r0,%r13
f348: 2809b320                 bl.d	_mwmutex_create
f34c: 4006fe04                 add	%r0,%r13,4
f350: 2809b220                 bl.d	_mwmutex_create
f354: 4006fe08                 add	%r0,%r13,8
f358: 20095f00                 b	__epilog_restore13
fwrite:
f35c: 100e3e04                 st	%blink,[%sp,4]
f360: 28094180                 bl	__prolog_save19
f364: 62000000                 mov	%r16,%r0
f368: 61e08200                 mov	%r15,%r1
f36c: 61a10400                 mov	%r13,%r2
f370: 61c18600                 mov	%r14,%r3
f374: 2fffe020                 bl.d	_mwlock_file
f378: 60018600                 mov	%r0,%r3
f37c: 0807040c                 ldb	%r0,[%r14,12]
f380: 67e07a20                 and.f	0,%r0,32
f384: 20000181                 bz	0xf394 = fwrite+0x38
f388: 2fffe420                 bl.d	_mwunlock_file
f38c: 60071c00                 mov	%r0,%r14
f390: 20005080                 b	0xf618 = fwrite+0x2bc
f394: 61869a00                 mov	%r12,%r13
f398: 61679e00                 mov	%r11,%r15
f39c: 679ffe20                 mov	%lp_count,32
f3a0: 5228a200                 sub	%r17,%r17,%r17
f3a4: 30000180                 lp	0xf3b4 = fwrite+0x58
f3a8: 19658500                 lsr.f	%r11,%r11
f3ac: 42289805                 add.c	%r17,%r17,%r12
f3b0: 41861800                 asl	%r12,%r12
f3b4: 67e07a04                 and.f	0,%r0,4
f3b8: 20000622                 bnz.d	0xf3ec = fwrite+0x90
f3bc: 52492400                 sub	%r18,%r18,%r18
f3c0: 08070008                 ld	%r0,[%r14,8]
f3c4: 67e00100                 mov.f	0,%r0
f3c8: 20000402                 bnz	0xf3ec = fwrite+0x90
f3cc: 2802f1a0                 bl.d	_finit
f3d0: 60071c00                 mov	%r0,%r14
f3d4: 57e07bff                 sub.f	0,%r0,-1
f3d8: 20000202                 bnz	0xf3ec = fwrite+0x90
f3dc: 2fffd9a0                 bl.d	_mwunlock_file
f3e0: 60071c00                 mov	%r0,%r14
f3e4: 200049a0                 b.d	0xf634 = fwrite+0x2d8
f3e8: 61a92400                 mov	%r13,%r18
f3ec: 0847040c                 ldb	%r2,[%r14,12]
f3f0: 67e17a04                 and.f	0,%r2,4
f3f4: 20000781                 bz	0xf434 = fwrite+0xd8
f3f8: 0807040d                 ldb	%r0,[%r14,13]
f3fc: 60282000                 mov	%r1,%r16
f400: 2ff2d9a0                 bl.d	_write
f404: 6048a200                 mov	%r2,%r17
f408: 62400100                 mov.f	%r18,%r0
f40c: 20003f03                 bp	0xf608 = fwrite+0x2ac
f410: 28099700                 bl	___errno
f414: 08000000                 ld	%r0,[%r0]
f418: 57e07a04                 sub.f	0,%r0,4
f41c: 20000181                 bz	0xf42c = fwrite+0xd0
f420: 0807040c                 ldb	%r0,[%r14,12]
f424: 68007e20                 or	%r0,%r0,32
f428: 1047000c                 stb	%r0,[%r14,12]
f42c: 20003b20                 b.d	0xf608 = fwrite+0x2ac
f430: 52492400                 sub	%r18,%r18,%r18
f434: 67e17a02                 and.f	0,%r2,2
f438: 20001282                 bnz	0xf4d0 = fwrite+0x174
f43c: 0807040d                 ldb	%r0,[%r14,13]
f440: 08670008                 ld	%r3,[%r14,8]
f444: 68417e02                 or	%r2,%r2,2
f448: 40200000                 asl	%r1,%r0
f44c: 40208200                 asl	%r1,%r1
f450: 4020fc00 00018488        add	%r1,%r1,0x1_8488		; _bufendtab
f458: 08208000                 ld	%r1,[%r1]
f45c: 1047040c                 stb	%r2,[%r14,12]
f460: 50208600                 sub	%r1,%r1,%r3
f464: 10070200                 st	%r1,[%r14]
f468: 603f7c00 00018550        mov	%r1,0x1_8550		; __iob
f470: 50270200                 sub	%r1,%r14,%r1
f474: 18208200                 asr	%r1,%r1
f478: 18208200                 asr	%r1,%r1
f47c: 18208200                 asr	%r1,%r1
f480: 18208200                 asr	%r1,%r1
f484: 0020fc02 00018940        ldb	%r1,[%r1,0x1_8940]		; _iob_fioflag
f48c: 67e0fa01                 and.f	0,%r1,1
f490: 200007a1                 bz.d	0xf4d0 = fwrite+0x174
f494: 10070604                 st	%r3,[%r14,4]
f498: 50208200                 sub	%r1,%r1,%r1
f49c: 28098f20                 bl.d	_lseek
f4a0: 605ffe01                 mov	%r2,1
f4a4: 62400000                 mov	%r18,%r0
f4a8: 0807040d                 ldb	%r0,[%r14,13]
f4ac: 50208200                 sub	%r1,%r1,%r1
f4b0: 28098ca0                 bl.d	_lseek
f4b4: 605ffe02                 mov	%r2,2
f4b8: 57e90100                 sub.f	0,%r18,%r0
f4bc: 2000020c                 ble	0xf4d0 = fwrite+0x174
f4c0: 0807040d                 ldb	%r0,[%r14,13]
f4c4: 60292400                 mov	%r1,%r18
f4c8: 280989a0                 bl.d	_lseek
f4cc: 50410400                 sub	%r2,%r2,%r2
f4d0: 08070000                 ld	%r0,[%r14]
f4d4: 57e07a00                 sub.f	0,%r0,0
f4d8: 5249240c                 sub.le	%r18,%r18,%r18
f4dc: 2000082c                 ble.d	0xf520 = fwrite+0x1c4
f4e0: 6268a20c                 mov.le	%r19,%r17
f4e4: 57e02300                 sub.f	0,%r0,%r17
f4e8: 60282000                 mov	%r1,%r16
f4ec: 6240000b                 mov.lt	%r18,%r0
f4f0: 08070004                 ld	%r0,[%r14,4]
f4f4: 6248a20a                 mov.ge	%r18,%r17
f4f8: 2fff26a0                 bl.d	memcpy
f4fc: 60492400                 mov	%r2,%r18
f500: 08070004                 ld	%r0,[%r14,4]
f504: 42092000                 add	%r16,%r18,%r16
f508: 5268a400                 sub	%r19,%r17,%r18
f50c: 40090000                 add	%r0,%r18,%r0
f510: 10070004                 st	%r0,[%r14,4]
f514: 08070000                 ld	%r0,[%r14]
f518: 50002400                 sub	%r0,%r0,%r18
f51c: 10070000                 st	%r0,[%r14]
f520: 57e9fa00                 sub.f	0,%r19,0
f524: 2000150c                 ble	0xf5d0 = fwrite+0x274
f528: 60071c00                 mov	%r0,%r14
f52c: 2802e120                 bl.d	_ifflush
f530: 603ffe01                 mov	%r1,1
f534: 0807040c                 ldb	%r0,[%r14,12]
f538: 67e07a20                 and.f	0,%r0,32
f53c: 20001202                 bnz	0xf5d0 = fwrite+0x274
f540: 0807040d                 ldb	%r0,[%r14,13]
f544: 40200000                 asl	%r1,%r0
f548: 40208200                 asl	%r1,%r1
f54c: 4020fc00 00018488        add	%r1,%r1,0x1_8488		; _bufendtab
f554: 08408000                 ld	%r2,[%r1]
f558: 08270008                 ld	%r1,[%r14,8]
f55c: 50210200                 sub	%r1,%r2,%r1
f560: 57e98300                 sub.f	0,%r19,%r1
f564: 20000589                 bgt	0xf594 = fwrite+0x238
f568: 08070004                 ld	%r0,[%r14,4]
f56c: 60282000                 mov	%r1,%r16
f570: 2fff17a0                 bl.d	memcpy
f574: 6049a600                 mov	%r2,%r19
f578: 08070004                 ld	%r0,[%r14,4]
f57c: 40098000                 add	%r0,%r19,%r0
f580: 10070004                 st	%r0,[%r14,4]
f584: 08070000                 ld	%r0,[%r14]
f588: 50002600                 sub	%r0,%r0,%r19
f58c: 20000720                 b.d	0xf5c8 = fwrite+0x26c
f590: 10070000                 st	%r0,[%r14]
f594: 60282000                 mov	%r1,%r16
f598: 2ff2a6a0                 bl.d	_write
f59c: 6049a600                 mov	%r2,%r19
f5a0: 62600100                 mov.f	%r19,%r0
f5a4: 20000403                 bp	0xf5c8 = fwrite+0x26c
f5a8: 28096420                 bl.d	___errno
f5ac: 5269a600                 sub	%r19,%r19,%r19
f5b0: 08000000                 ld	%r0,[%r0]
f5b4: 57e07a04                 sub.f	0,%r0,4
f5b8: 20000181                 bz	0xf5c8 = fwrite+0x26c
f5bc: 0807040c                 ldb	%r0,[%r14,12]
f5c0: 68007e20                 or	%r0,%r0,32
f5c4: 1047000c                 stb	%r0,[%r14,12]
f5c8: 4249a400                 add	%r18,%r19,%r18
f5cc: 4209a000                 add	%r16,%r19,%r16
f5d0: 0807040c                 ldb	%r0,[%r14,12]
f5d4: 67e07a20                 and.f	0,%r0,32
f5d8: 20000582                 bnz	0xf608 = fwrite+0x2ac
f5dc: 67e07a40                 and.f	0,%r0,64
f5e0: 20000481                 bz	0xf608 = fwrite+0x2ac
f5e4: 080805ff                 ldb	%r0,[%r16,-1]
f5e8: 57e07a0a                 sub.f	0,%r0,10
f5ec: 20000302                 bnz	0xf608 = fwrite+0x2ac
f5f0: 08270008                 ld	%r1,[%r14,8]
f5f4: 08070004                 ld	%r0,[%r14,4]
f5f8: 57e08100                 sub.f	0,%r1,%r0
f5fc: 60071c05                 mov.c	%r0,%r14
f600: 2802c6c5                 blc.jd	_ifflush
f604: 603ffe01                 mov	%r1,1
f608: 2fff9420                 bl.d	_mwunlock_file
f60c: 60071c00                 mov	%r0,%r14
f610: 67e79f00                 mov.f	0,%r15
f614: 20000102                 bnz	0xf620 = fwrite+0x2c4
f618: 20000320                 b.d	0xf634 = fwrite+0x2d8
f61c: 51a69a00                 sub	%r13,%r13,%r13
f620: 57e92300                 sub.f	0,%r18,%r17
f624: 60092402                 mov.nz	%r0,%r18
f628: 28096122                 blnz.d	_udivmod
f62c: 60279e02                 mov.nz	%r1,%r15
f630: 61a00002                 mov.nz	%r13,%r0
f634: 200909a0                 b.d	__epilog_restore19
f638: 60069a00                 mov	%r0,%r13
g:
f63c: 100e3e04                 st	%blink,[%sp,4]
f640: 2808d6a0                 bl.d	__prolog_save13
f644: 603fffff                 mov	%r1,-1
f648: 61a00000                 mov	%r13,%r0
f64c: 08468000                 ld	%r2,[%r13]
f650: 38010220                 jl.d	[%r2]
f654: 08000004                 ld	%r0,[%r0,4]
f658: 57e07bff                 sub.f	0,%r0,-1
f65c: 2008fe81                 bz	__epilog_restore13
f660: 08268008                 ld	%r1,[%r13,8]
f664: 4020fe01                 add	%r1,%r1,1
f668: 2008fd20                 b.d	__epilog_restore13
f66c: 10068208                 st	%r1,[%r13,8]
p:
f670: 57e0fbff                 sub.f	0,%r1,-1
f674: 380f8021                 jz.d	[%blink]
f678: 60400000                 mov	%r2,%r0
f67c: 08010008                 ld	%r0,[%r2,8]
f680: 50007e01                 sub	%r0,%r0,1
f684: 10010008                 st	%r0,[%r2,8]
f688: 08010004                 ld	%r0,[%r2,4]
f68c: 08410000                 ld	%r2,[%r2]
f690: 38010000                 j	[%r2]
skip:
f694: 100e3e04                 st	%blink,[%sp,4]
f698: 2808ce00                 bl	__prolog_save14
f69c: 61c00000                 mov	%r14,%r0
f6a0: 20000120                 b.d	0xf6ac = skip+0x18
f6a4: 51a69a00                 sub	%r13,%r13,%r13
f6a8: 41a6fe01                 add	%r13,%r13,1
f6ac: 2ffff1a0                 bl.d	g
f6b0: 60071c00                 mov	%r0,%r14
f6b4: 57e07bff                 sub.f	0,%r0,-1
f6b8: 200004a1                 bz.d	0xf6e0 = skip+0x4c
f6bc: 60200000                 mov	%r1,%r0
f6c0: 4000fc00 000171f4        add	%r0,%r1,0x1_71f4		; __ctype
f6c8: 08000401                 ldb	%r0,[%r0,1]
f6cc: 67e07a08                 and.f	0,%r0,8
f6d0: 27fffa82                 bnz	0xf6a8 = skip+0x14
f6d4: 2ffff320                 bl.d	p
f6d8: 60071c00                 mov	%r0,%r14
f6dc: 20000180                 b	0xf6ec = skip+0x58
f6e0: 67e69b00                 mov.f	0,%r13
f6e4: 61bf7c01 ffffffff        mov.z	%r13,-1		; 0xffff_ffff = .regmask_lo+0x7fc0000
f6ec: 2008eda0                 b.d	__epilog_restore14
f6f0: 60069a00                 mov	%r0,%r13
gstr:
f6f4: 100e3e04                 st	%blink,[%sp,4]
f6f8: 2808d420                 bl.d	__prolog_save21sp
f6fc: 419ffe9a                 asl	%r12,154
f700: 62800000                 mov	%r20,%r0
f704: 61e08200                 mov	%r15,%r1
f708: 62610400                 mov	%r19,%r2
f70c: 62418600                 mov	%r18,%r3
f710: 57e1fa5b                 sub.f	0,%r3,91
f714: 62020800                 mov	%r16,%r4
f718: 20001ea2                 bnz.d	0xf810 = gstr+0x11c
f71c: 62228a00                 mov	%r17,%r5
f720: 08080400                 ldb	%r0,[%r16]
f724: 62bffe01                 mov	%r21,1
f728: 57e07a5e                 sub.f	0,%r0,94
f72c: 62bf7c02 00000000        mov.nz	%r21,0		; .CC_I
f734: 67eaab00                 mov.f	0,%r21
f738: 42087c02 00000001        add.nz	%r16,%r16,1		; 0x1 = .regmask_lo+1
f740: 2ffe99a0                 bl.d	strlen
f744: 60082000                 mov	%r0,%r16
f748: 61a00000                 mov	%r13,%r0
f74c: 08080400                 ldb	%r0,[%r16]
f750: 57e07a5d                 sub.f	0,%r0,93
f754: 200001a2                 bnz.d	0xf764 = gstr+0x70
f758: 61c82002                 mov.nz	%r14,%r16
f75c: 51a6fe01                 sub	%r13,%r13,1
f760: 41c87e01                 add	%r14,%r16,1
f764: 60071c00                 mov	%r0,%r14
f768: 603ffe5d                 mov	%r1,93
f76c: 2801ca20                 bl.d	memchr
f770: 60469a00                 mov	%r2,%r13
f774: 67e00100                 mov.f	0,%r0
f778: 51a02002                 sub.nz	%r13,%r0,%r16
f77c: 503eaa01                 sub.f	%r1,1,%r21
f780: 400dff00                 add	%r0,%fp,-256
f784: 603f7c05 00000000        mov.c	%r1,0		; .CC_I
f78c: 2802afa0                 bl.d	memset
f790: 405ffe80                 asl	%r2,128
f794: 41a69c00                 add	%r13,%r13,%r14
f798: 5046a000                 sub	%r2,%r13,%r16
f79c: 57e17a00                 sub.f	0,%r2,0
f7a0: 20000d8c                 ble	0xf810 = gstr+0x11c
f7a4: 57e17a02                 sub.f	0,%r2,2
f7a8: 2000098c                 ble	0xf7f8 = gstr+0x104
f7ac: 08280400                 ldb	%r1,[%r16]
f7b0: 57e0fa5d                 sub.f	0,%r1,93
f7b4: 20000801                 bz	0xf7f8 = gstr+0x104
f7b8: 08080401                 ldb	%r0,[%r16,1]
f7bc: 57e07a2d                 sub.f	0,%r0,45
f7c0: 20000682                 bnz	0xf7f8 = gstr+0x104
f7c4: 08080402                 ldb	%r0,[%r16,2]
f7c8: 57e00300                 sub.f	0,%r0,%r1
f7cc: 2000050c                 ble	0xf7f8 = gstr+0x104
f7d0: 20000180                 b	0xf7e0 = gstr+0xec
f7d4: 400d8200                 add	%r0,%fp,%r1
f7d8: 10402b00                 stb	%r21,[%r0,-256]
f7dc: 4020fe01                 add	%r1,%r1,1
f7e0: 08080402                 ldb	%r0,[%r16,2]
f7e4: 57e08100                 sub.f	0,%r1,%r0
f7e8: 27fffd0c                 ble	0xf7d4 = gstr+0xe0
f7ec: 42087e02                 add	%r16,%r16,2
f7f0: 20000220                 b.d	0xf804 = gstr+0x110
f7f4: 50417e02                 sub	%r2,%r2,2
f7f8: 08080400                 ldb	%r0,[%r16]
f7fc: 400d8000                 add	%r0,%fp,%r0
f800: 10402b00                 stb	%r21,[%r0,-256]
f804: 50417a01                 sub.f	%r2,%r2,1
f808: 27fff32f                 bpnz.d	0xf7a4 = gstr+0xb0
f80c: 42087e01                 add	%r16,%r16,1
f810: 57e7fbff                 sub.f	0,%r15,-1
f814: 19ff0601 fffffffe        ror.z	%r15,-2		; 0xffff_fffe = .regmask_lo+0x7fbffff
f81c: 52082000                 sub	%r16,%r16,%r16
f820: 57e7fa00                 sub.f	0,%r15,0
f824: 6008200c                 mov.le	%r0,%r16
f828: 61c9a60c                 mov.le	%r14,%r19
f82c: 2000182c                 ble.d	0xf8f0 = gstr+0x1fc
f830: 61a9a60c                 mov.le	%r13,%r19
f834: 61c9a600                 mov	%r14,%r19
f838: 61a9a600                 mov	%r13,%r19
f83c: 2fffbfa0                 bl.d	g
f840: 600a2800                 mov	%r0,%r20
f844: 57e07bff                 sub.f	0,%r0,-1
f848: 200005a1                 bz.d	0xf878 = gstr+0x184
f84c: 60200000                 mov	%r1,%r0
f850: 57e97a73                 sub.f	0,%r18,115
f854: 20000602                 bnz	0xf888 = gstr+0x194
f858: 4000fc00 000171f4        add	%r0,%r1,0x1_71f4		; __ctype
f860: 08000401                 ldb	%r0,[%r0,1]
f864: 67e07a08                 and.f	0,%r0,8
f868: 20000681                 bz	0xf8a0 = gstr+0x1ac
f86c: 2fffc020                 bl.d	p
f870: 600a2800                 mov	%r0,%r20
f874: 20000e80                 b	0xf8ec = gstr+0x1f8
f878: 67e82100                 mov.f	0,%r16
f87c: 20000d82                 bnz	0xf8ec = gstr+0x1f8
f880: 20000da0                 b.d	0xf8f0 = gstr+0x1fc
f884: 601fffff                 mov	%r0,-1
f888: 57e97a5b                 sub.f	0,%r18,91
f88c: 20000202                 bnz	0xf8a0 = gstr+0x1ac
f890: 400d8200                 add	%r0,%fp,%r1
f894: 08000500                 ldb	%r0,[%r0,-256]
f898: 67e00100                 mov.f	0,%r0
f89c: 20000382                 bnz	0xf8bc = gstr+0x1c8
f8a0: 67e9a700                 mov.f	0,%r19
f8a4: 20000681                 bz	0xf8dc = gstr+0x1e8
f8a8: 57e8fa01                 sub.f	0,%r17,1
f8ac: 20000482                 bnz	0xf8d4 = gstr+0x1e0
f8b0: 10468200                 stb	%r1,[%r13]
f8b4: 200004a0                 b.d	0xf8dc = gstr+0x1e8
f8b8: 41a6fe01                 add	%r13,%r13,1
f8bc: 2fffb620                 bl.d	p
f8c0: 600a2800                 mov	%r0,%r20
f8c4: 67e82100                 mov.f	0,%r16
f8c8: 20000402                 bnz	0xf8ec = gstr+0x1f8
f8cc: 20000420                 b.d	0xf8f0 = gstr+0x1fc
f8d0: 601ffffe                 mov	%r0,-2
f8d4: 10870200                 stw	%r1,[%r14]
f8d8: 41c77e02                 add	%r14,%r14,2
f8dc: 51e7fe01                 sub	%r15,%r15,1
f8e0: 57e7fa00                 sub.f	0,%r15,0
f8e4: 27ffeaad                 bhi.d	0xf83c = gstr+0x148
f8e8: 42087e01                 add	%r16,%r16,1
f8ec: 60082000                 mov	%r0,%r16
f8f0: 57e97a63                 sub.f	0,%r18,99
f8f4: 20000481                 bz	0xf91c = gstr+0x228
f8f8: 57e07a00                 sub.f	0,%r0,0
f8fc: 2000038b                 blt	0xf91c = gstr+0x228
f900: 67e9a700                 mov.f	0,%r19
f904: 20000281                 bz	0xf91c = gstr+0x228
f908: 57e8fa01                 sub.f	0,%r17,1
f90c: 50208200                 sub	%r1,%r1,%r1
f910: 20000141                 bz.jd	0xf91c = gstr+0x228
f914: 10468200                 stb	%r1,[%r13]
f918: 10870200                 stw	%r1,[%r14]
f91c: 2008b6a0                 b.d	__epilog_load21
f920: 419ffe9a                 asl	%r12,154
_doscan:
f924: 100e3e04                 st	%blink,[%sp,4]
f928: 28089820                 bl.d	__prolog_save25sp
f92c: 619ffea0                 mov	%r12,160
f930: 62610400                 mov	%r19,%r2
f934: 62418600                 mov	%r18,%r3
f938: 100d81b0                 st	%r0,[%fp,-80]
f93c: 100d83b4                 st	%r1,[%fp,-76]
f940: 50000000                 sub	%r0,%r0,%r0
f944: 100d81b8                 st	%r0,[%fp,-72]
f948: 20000420                 b.d	0xf96c = _doscan+0x48
f94c: 100d81ac                 st	%r0,[%fp,-84]
f950: 28028aa0                 bl.d	_doatofd
f954: 42497e04                 add	%r18,%r18,4
f958: 28091ca0                 bl.d	_mwcvtdf
f95c: 09a901fc                 ld	%r13,[%r18,-4]
f960: 10068000                 st	%r0,[%r13]
f964: 080d81a8                 ld	%r0,[%fp,-88]
f968: 40007e01                 add	%r0,%r0,1
f96c: 100d81a8                 st	%r0,[%fp,-88]
f970: 200002a0                 b.d	0xf988 = _doscan+0x64
f974: 61a9a600                 mov	%r13,%r19
f978: 61a9a600                 mov	%r13,%r19
f97c: 2808e9a0                 bl.d	___errno
f980: 61dffe16                 mov	%r14,22
f984: 10001c00                 st	%r14,[%r0]
f988: 200001a0                 b.d	0xf998 = _doscan+0x74
f98c: 62669a00                 mov	%r19,%r13
f990: 42497e04                 add	%r18,%r18,4
f994: 0a6901fc                 ld	%r19,[%r18,-4]
f998: 09a98400                 ldb	%r13,[%r19]
f99c: 67e69b00                 mov.f	0,%r13
f9a0: 2000eaa1                 bz.d	0x1_00f8 = _doscan+0x7d4
f9a4: 4269fe01                 add	%r19,%r19,1
f9a8: 57e6fa25                 sub.f	0,%r13,37
f9ac: 2000df82                 bnz	0x1_00ac = _doscan+0x788
f9b0: 0a298400                 ldb	%r17,[%r19]
f9b4: 67e8a300                 mov.f	0,%r17
f9b8: 27fffa81                 bz	0xf990 = _doscan+0x6c
f9bc: 57e8fa2a                 sub.f	0,%r17,42
f9c0: 62fffe01                 mov	%r23,1
f9c4: 62ff7c02 00000000        mov.nz	%r23,0		; .CC_I
f9cc: 67ebaf00                 mov.f	0,%r23
f9d0: 61df7c00 00018d30        mov	%r14,0x1_8d30		; 0x1_8d30 = _iob_lock+0x34
f9d8: 200001a1                 bz.d	0xf9e8 = _doscan+0xc4
f9dc: 4269fe01                 add	%r19,%r19,1
f9e0: 0a298400                 ldb	%r17,[%r19]
f9e4: 4269fe01                 add	%r19,%r19,1
f9e8: 0008fc02 000171f5        ldb	%r0,[%r17,0x1_71f5]		; 0x1_71f5 = _ctype+1
f9f0: 67e07a04                 and.f	0,%r0,4
f9f4: 200007a1                 bz.d	0xfa34 = _doscan+0x110
f9f8: 621fffff                 mov	%r16,-1
f9fc: 52082000                 sub	%r16,%r16,%r16
fa00: 40082000                 asl	%r0,%r16
fa04: 40000000                 asl	%r0,%r0
fa08: 40000000                 asl	%r0,%r0
fa0c: 40002000                 add	%r0,%r0,%r16
fa10: 40002000                 add	%r0,%r0,%r16
fa14: 5228fe30                 sub	%r17,%r17,48
fa18: 42088000                 add	%r16,%r17,%r0
fa1c: 0a298400                 ldb	%r17,[%r19]
fa20: 0008fc02 000171f5        ldb	%r0,[%r17,0x1_71f5]		; 0x1_71f5 = _ctype+1
fa28: 67e07a04                 and.f	0,%r0,4
fa2c: 27fffa22                 bnz.d	0xfa00 = _doscan+0xdc
fa30: 4269fe01                 add	%r19,%r19,1
fa34: 57e8fa68                 sub.f	0,%r17,104
fa38: 57e8fd02 0000006c        sub.nz.f	0,%r17,108		; 0x6c = DMANT_BITS+0x37
fa40: 57e8fd02 0000004c        sub.nz.f	0,%r17,76		; 0x4c = DMANT_BITS+0x17
fa48: 61a8a202                 mov.nz	%r13,%r17
fa4c: 20000522                 bnz.d	0xfa78 = _doscan+0x154
fa50: 5228a202                 sub.nz	%r17,%r17,%r17
fa54: 08098400                 ldb	%r0,[%r19]
fa58: 57e8fa6c                 sub.f	0,%r17,108
fa5c: 57e07d01 0000006c        sub.z.f	0,%r0,108		; 0x6c = DMANT_BITS+0x37
fa64: 20000102                 bnz	0xfa70 = _doscan+0x14c
fa68: 623ffe4c                 mov	%r17,76
fa6c: 4269fe01                 add	%r19,%r19,1
fa70: 09a98400                 ldb	%r13,[%r19]
fa74: 4269fe01                 add	%r19,%r19,1
fa78: 57e6fa25                 sub.f	0,%r13,37
fa7c: 2000ca81                 bz	0x1_00d4 = _doscan+0x7b0
fa80: 5006fe45                 sub	%r0,%r13,69
fa84: 57e07a33                 sub.f	0,%r0,51
fa88: 27ffdd8d                 bhi	0xf978 = _doscan+0x54
fa8c: 41800000                 asl	%r12,%r0
fa90: 01867c05 0000faa4        ldw.x	%r12,[%r12,0xfaa4]		; 0xfaa4 = _doscan+0x180
fa98: 41867c00 00003ea9        add	%r12,%r12,0x3ea9		; 0x3ea9 = _HEAPSIZE+0x1ea9
faa0: 38060000                 j	[%r12]
faa4: 0116                     .short	FEXP_MAX+0x17
faa6: ffb5                     .short	_doscan+0x691
faa8: 0116                     .short	FEXP_MAX+0x17
faaa: ffb5                     .short	_doscan+0x691
faac: ffb5                     .short	_doscan+0x691
faae: ffb5                     .short	_doscan+0x691
fab0: ffb5                     .short	_doscan+0x691
fab2: ffb5                     .short	_doscan+0x691
fab4: ffb5                     .short	_doscan+0x691
fab6: ffb5                     .short	_doscan+0x691
fab8: ffb5                     .short	_doscan+0x691
faba: ffb5                     .short	_doscan+0x691
fabc: ffb5                     .short	_doscan+0x691
fabe: ffb5                     .short	_doscan+0x691
fac0: ffb5                     .short	_doscan+0x691
fac2: ffb5                     .short	_doscan+0x691
fac4: ffb5                     .short	_doscan+0x691
fac6: ffb5                     .short	_doscan+0x691
fac8: ffb5                     .short	_doscan+0x691
faca: 006a                     .short	DMANT_BITS+0x35
facc: ffb5                     .short	_doscan+0x691
face: ffb5                     .short	_doscan+0x691
fad0: 0034                     .short	FMANT_BITS+0x1c
fad2: ffb5                     .short	_doscan+0x691
fad4: ffb5                     .short	_doscan+0x691
fad6: ffb5                     .short	_doscan+0x691
fad8: ffb5                     .short	_doscan+0x691
fada: ffb5                     .short	_doscan+0x691
fadc: ffb5                     .short	_doscan+0x691
fade: ffb5                     .short	_doscan+0x691
fae0: 0047                     .short	DMANT_BITS+0x12
fae2: 006e                     .short	DMANT_BITS+0x39
fae4: 0116                     .short	FEXP_MAX+0x17
fae6: 0116                     .short	FEXP_MAX+0x17
fae8: 0116                     .short	FEXP_MAX+0x17
faea: ffb5                     .short	_doscan+0x691
faec: 001a                     .short	FMANT_BITS+2
faee: ffb5                     .short	_doscan+0x691
faf0: ffb5                     .short	_doscan+0x691
faf2: ffb5                     .short	_doscan+0x691
faf4: ffb5                     .short	_doscan+0x691
faf6: 001c                     .short	FMANT_BITS+4
faf8: 006c                     .short	DMANT_BITS+0x37
fafa: 006a                     .short	DMANT_BITS+0x35
fafc: ffb5                     .short	_doscan+0x691
fafe: ffb5                     .short	_doscan+0x691
fb00: 0051                     .short	DMANT_BITS+0x1c
fb02: ffb5                     .short	_doscan+0x691
fb04: 006e                     .short	DMANT_BITS+0x39
fb06: ffb5                     .short	_doscan+0x691
fb08: ffb5                     .short	_doscan+0x691
fb0a: 006a                     .short	DMANT_BITS+0x35
fb0c: 20002a20                 b.d	0xfc60 = _doscan+0x33c
fb10: 51e79e00                 sub	%r15,%r15,%r15
fb14: 67ebaf00                 mov.f	0,%r23
fb18: 27ffcf82                 bnz	0xf998 = _doscan+0x74
fb1c: 57e8fa68                 sub.f	0,%r17,104
fb20: 200006a1                 bz.d	0xfb58 = _doscan+0x234
fb24: 080d81b8                 ld	%r0,[%fp,-72]
fb28: 57e8fa4c                 sub.f	0,%r17,76
fb2c: 20000722                 bnz.d	0xfb68 = _doscan+0x244
fb30: 42497e04                 add	%r18,%r18,4
fb34: 084901fc                 ld	%r2,[%r18,-4]
fb38: 679ffe0f                 mov	%lp_count,15
fb3c: 18200200                 asr	%r1,%r0
fb40: 30000100                 lp	0xfb4c = _doscan+0x228
fb44: 18208200                 asr	%r1,%r1
fb48: 18208200                 asr	%r1,%r1
fb4c: 10010000                 st	%r0,[%r2]
fb50: 27ffc8a0                 b.d	0xf998 = _doscan+0x74
fb54: 10010204                 st	%r1,[%r2,4]
fb58: 42497e04                 add	%r18,%r18,4
fb5c: 082901fc                 ld	%r1,[%r18,-4]
fb60: 27ffc6a0                 b.d	0xf998 = _doscan+0x74
fb64: 10808000                 stw	%r0,[%r1]
fb68: 082901fc                 ld	%r1,[%r18,-4]
fb6c: 27ffc520                 b.d	0xf998 = _doscan+0x74
fb70: 10008000                 st	%r0,[%r1]
fb74: 08098400                 ldb	%r0,[%r19]
fb78: 57e07a5e                 sub.f	0,%r0,94
fb7c: 61a9a602                 mov.nz	%r13,%r19
fb80: 41a9fc01 00000001        add.z	%r13,%r19,1		; 0x1 = .regmask_lo+1
fb88: 08068400                 ldb	%r0,[%r13]
fb8c: 57e07a5d                 sub.f	0,%r0,93
fb90: 20000102                 bnz	0xfb9c = _doscan+0x278
fb94: 41a6fe01                 add	%r13,%r13,1
fb98: 08068400                 ldb	%r0,[%r13]
fb9c: 67e00100                 mov.f	0,%r0
fba0: 57e07d02 0000005d        sub.nz.f	0,%r0,93		; 0x5d = DMANT_BITS+0x28
fba8: 27fffd02                 bnz	0xfb94 = _doscan+0x270
fbac: 57e07a5d                 sub.f	0,%r0,93
fbb0: 27ffb902                 bnz	0xf97c = _doscan+0x58
fbb4: 41a6fe01                 add	%r13,%r13,1
fbb8: 200003a0                 b.d	0xfbd8 = _doscan+0x2b4
fbbc: 607ffe5b                 mov	%r3,91
fbc0: 607ffe63                 mov	%r3,99
fbc4: 57e87bff                 sub.f	0,%r16,-1
fbc8: 621f7c01 00000001        mov.z	%r16,1		; 0x1 = .regmask_lo+1
fbd0: 61a9a600                 mov	%r13,%r19
fbd4: 62671c00                 mov	%r19,%r14
fbd8: 57e8fa6c                 sub.f	0,%r17,108
fbdc: 20000481                 bz	0xfc04 = _doscan+0x2e0
fbe0: 200004a0                 b.d	0xfc08 = _doscan+0x2e4
fbe4: 60bffe01                 mov	%r5,1
fbe8: 2fff5520                 bl.d	skip
fbec: 400dffb0                 add	%r0,%fp,-80
fbf0: 57e07a00                 sub.f	0,%r0,0
fbf4: 20001bab                 blt.d	0xfcd4 = _doscan+0x3b0
fbf8: 61bffe73                 mov	%r13,115
fbfc: 27fffa20                 b.d	0xfbd0 = _doscan+0x2ac
fc00: 60669a00                 mov	%r3,%r13
fc04: 60bffe02                 mov	%r5,2
fc08: 67ebaf00                 mov.f	0,%r23
fc0c: 400dffb0                 add	%r0,%fp,-80
fc10: 200001a2                 bnz.d	0xfc20 = _doscan+0x2fc
fc14: 50410402                 sub.nz	%r2,%r2,%r2
fc18: 42497e04                 add	%r18,%r18,4
fc1c: 084901fc                 ld	%r2,[%r18,-4]
fc20: 60282000                 mov	%r1,%r16
fc24: 2fff59a0                 bl.d	gstr
fc28: 6089a600                 mov	%r4,%r19
fc2c: 57e07a00                 sub.f	0,%r0,0
fc30: 100d81ac                 st	%r0,[%fp,-84]
fc34: 200056ab                 blt.d	0xfeec = _doscan+0x5c8
fc38: 62669a0b                 mov.lt	%r19,%r13
fc3c: 67ebaf00                 mov.f	0,%r23
fc40: 27ffa5a2                 bnz.d	0xf970 = _doscan+0x4c
fc44: 62669a00                 mov	%r19,%r13
fc48: 27ffa300                 b	0xf964 = _doscan+0x40
fc4c: 20000220                 b.d	0xfc60 = _doscan+0x33c
fc50: 61fffe10                 mov	%r15,16
fc54: 20000120                 b.d	0xfc60 = _doscan+0x33c
fc58: 61fffe08                 mov	%r15,8
fc5c: 61fffe0a                 mov	%r15,10
fc60: 432dffb0                 add	%r25,%fp,-80
fc64: 2fff45a0                 bl.d	skip
fc68: 600cb200                 mov	%r0,%r25
fc6c: 57e07a00                 sub.f	0,%r0,0
fc70: 20000c0b                 blt	0xfcd4 = _doscan+0x3b0
fc74: 67e8a300                 mov.f	0,%r17
fc78: 623f7c01 0000006c        mov.z	%r17,108		; 0x6c = DMANT_BITS+0x37
fc80: 2fff3720                 bl.d	g
fc84: 600cb200                 mov	%r0,%r25
fc88: 57e07bff                 sub.f	0,%r0,-1
fc8c: 200008a1                 bz.d	0xfcd4 = _doscan+0x3b0
fc90: 62a00000                 mov	%r21,%r0
fc94: 57eafa2d                 sub.f	0,%r21,45
fc98: 57eafd02 0000002b        sub.nz.f	0,%r21,43		; 0x2b = FMANT_BITS+0x13
fca0: 20000782                 bnz	0xfce0 = _doscan+0x3bc
fca4: 57eafa2d                 sub.f	0,%r21,45
fca8: 62bffe01                 mov	%r21,1
fcac: 62bf7c02 00000000        mov.nz	%r21,0		; .CC_I
fcb4: 100daba4                 st	%r21,[%fp,-92]
fcb8: 2fff3020                 bl.d	g
fcbc: 600cb200                 mov	%r0,%r25
fcc0: 62a00000                 mov	%r21,%r0
fcc4: 57e87bff                 sub.f	0,%r16,-1
fcc8: 52087c02 00000001        sub.nz	%r16,%r16,1		; 0x1 = .regmask_lo+1
fcd0: 20000280                 b	0xfce8 = _doscan+0x3c4
fcd4: 601fffff                 mov	%r0,-1
fcd8: 20004220                 b.d	0xfeec = _doscan+0x5c8
fcdc: 100d81ac                 st	%r0,[%fp,-84]
fce0: 50000000                 sub	%r0,%r0,%r0
fce4: 100d81a4                 st	%r0,[%fp,-92]
fce8: 57eafbff                 sub.f	0,%r21,-1
fcec: 27fffc81                 bz	0xfcd4 = _doscan+0x3b0
fcf0: 51a69a00                 sub	%r13,%r13,%r13
fcf4: 57eafa30                 sub.f	0,%r21,48
fcf8: 62869a00                 mov	%r20,%r13
fcfc: 20000da2                 bnz.d	0xfd6c = _doscan+0x448
fd00: 62c69a00                 mov	%r22,%r13
fd04: 67e79f00                 mov.f	0,%r15
fd08: 57e7fd02 00000010        sub.nz.f	0,%r15,16		; 0x10 = GB+14
fd10: 20000b02                 bnz	0xfd6c = _doscan+0x448
fd14: 2fff24a0                 bl.d	g
fd18: 600cb200                 mov	%r0,%r25
fd1c: 60200000                 mov	%r1,%r0
fd20: 57e07a78                 sub.f	0,%r0,120
fd24: 57e0fd02 00000058        sub.nz.f	0,%r1,88		; 0x58 = DMANT_BITS+0x23
fd2c: 20000402                 bnz	0xfd50 = _doscan+0x42c
fd30: 61fffe10                 mov	%r15,16
fd34: 2fff20a0                 bl.d	g
fd38: 600cb200                 mov	%r0,%r25
fd3c: 62a00000                 mov	%r21,%r0
fd40: 57e87bff                 sub.f	0,%r16,-1
fd44: 52087c02 00000002        sub.nz	%r16,%r16,2		; GB
fd4c: 20000500                 b	0xfd78 = _doscan+0x454
fd50: 2fff23a0                 bl.d	p
fd54: 600cb200                 mov	%r0,%r25
fd58: 67e79f00                 mov.f	0,%r15
fd5c: 61ff7c01 00000008        mov.z	%r15,8		; 0x8 = GB+6
fd64: 20000220                 b.d	0xfd78 = _doscan+0x454
fd68: 62bffe30                 mov	%r21,48
fd6c: 67e79f00                 mov.f	0,%r15
fd70: 61ff7c01 0000000a        mov.z	%r15,10		; 0xa = GB+8
fd78: 57eafbff                 sub.f	0,%r21,-1
fd7c: 20001e21                 bz.d	0xfe70 = _doscan+0x54c
fd80: 63069a00                 mov	%r24,%r13
fd84: 67e82100                 mov.f	0,%r16
fd88: 20001301                 bz	0xfe24 = _doscan+0x500
fd8c: 57e87bff                 sub.f	0,%r16,-1
fd90: 52087c02 00000001        sub.nz	%r16,%r16,1		; 0x1 = .regmask_lo+1
fd98: 000afc02 000171f5        ldb	%r0,[%r21,0x1_71f5]		; 0x1_71f5 = _ctype+1
fda0: 67e07a04                 and.f	0,%r0,4
fda4: 20000542                 bnz.jd	0xfdd0 = _doscan+0x4ac
fda8: 51cafe30                 sub	%r14,%r21,48
fdac: 67e07a03                 and.f	0,%r0,3
fdb0: 20000301                 bz	0xfdcc = _doscan+0x4a8
fdb4: 67e07a02                 and.f	0,%r0,2
fdb8: 600aaa01                 mov.z	%r0,%r21
fdbc: 500afc02 00000020        sub.nz	%r0,%r21,32		; 0x20 = FMANT_BITS+8
fdc4: 20000120                 b.d	0xfdd0 = _doscan+0x4ac
fdc8: 51c07e37                 sub	%r14,%r0,55
fdcc: 61dffe19                 mov	%r14,25
fdd0: 57e79d00                 sub.f	0,%r15,%r14
fdd4: 2000098c                 ble	0xfe24 = _doscan+0x500
fdd8: 57e8fa4c                 sub.f	0,%r17,76
fddc: 20000a82                 bnz	0xfe34 = _doscan+0x510
fde0: 60079e00                 mov	%r0,%r15
fde4: 679ffe0f                 mov	%lp_count,15
fde8: 18278200                 asr	%r1,%r15
fdec: 30000100                 lp	0xfdf8 = _doscan+0x4d4
fdf0: 18208200                 asr	%r1,%r1
fdf4: 18208200                 asr	%r1,%r1
fdf8: 604a2800                 mov	%r2,%r20
fdfc: 2808d320                 bl.d	_Lmpy
fe00: 606b2c00                 mov	%r3,%r22
fe04: 679ffe0f                 mov	%lp_count,15
fe08: 18470200                 asr	%r2,%r14
fe0c: 30000100                 lp	0xfe18 = _doscan+0x4f4
fe10: 18410200                 asr	%r2,%r2
fe14: 18410200                 asr	%r2,%r2
fe18: 42870100                 add.f	%r20,%r14,%r0
fe1c: 20000720                 b.d	0xfe58 = _doscan+0x534
fe20: 4ac10200                 adc	%r22,%r2,%r1
fe24: 600cb200                 mov	%r0,%r25
fe28: 2fff08a0                 bl.d	p
fe2c: 602aaa00                 mov	%r1,%r21
fe30: 20000780                 b	0xfe70 = _doscan+0x54c
fe34: 61869a00                 mov	%r12,%r13
fe38: 61679e00                 mov	%r11,%r15
fe3c: 679ffe20                 mov	%lp_count,32
fe40: 51a69a00                 sub	%r13,%r13,%r13
fe44: 30000180                 lp	0xfe54 = _doscan+0x530
fe48: 19658500                 lsr.f	%r11,%r11
fe4c: 41a69805                 add.c	%r13,%r13,%r12
fe50: 41861800                 asl	%r12,%r12
fe54: 41a69c00                 add	%r13,%r13,%r14
fe58: 2ffefc20                 bl.d	g
fe5c: 600cb200                 mov	%r0,%r25
fe60: 57e07bff                 sub.f	0,%r0,-1
fe64: 430c7e01                 add	%r24,%r24,1
fe68: 27ffe322                 bnz.d	0xfd84 = _doscan+0x460
fe6c: 62a00000                 mov	%r21,%r0
fe70: 67ec3100                 mov.f	0,%r24
fe74: 20004081                 bz	0x1_007c = _doscan+0x758
fe78: 080d81a4                 ld	%r0,[%fp,-92]
fe7c: 67e00100                 mov.f	0,%r0
fe80: 20000281                 bz	0xfe98 = _doscan+0x574
fe84: 57e8fa4c                 sub.f	0,%r17,76
fe88: 200001c2                 bnz.jd	0xfe98 = _doscan+0x574
fe8c: 51bf9a00                 sub	%r13,0,%r13
fe90: 529ea800                 sub.f	%r20,0,%r20
fe94: 5adfac00                 sbc	%r22,0,%r22
fe98: 67ebaf00                 mov.f	0,%r23
fe9c: 20000882                 bnz	0xfee4 = _doscan+0x5c0
fea0: 57e8fa68                 sub.f	0,%r17,104
fea4: 20000202                 bnz	0xfeb8 = _doscan+0x594
fea8: 42497e04                 add	%r18,%r18,4
feac: 080901fc                 ld	%r0,[%r18,-4]
feb0: 200004a0                 b.d	0xfed8 = _doscan+0x5b4
feb4: 10801a00                 stw	%r13,[%r0]
feb8: 57e8fa4c                 sub.f	0,%r17,76
febc: 42497e04                 add	%r18,%r18,4
fec0: 20000222                 bnz.d	0xfed4 = _doscan+0x5b0
fec4: 080901fc                 ld	%r0,[%r18,-4]
fec8: 10002800                 st	%r20,[%r0]
fecc: 20000120                 b.d	0xfed8 = _doscan+0x5b4
fed0: 10002c04                 st	%r22,[%r0,4]
fed4: 10001a00                 st	%r13,[%r0]
fed8: 080d81a8                 ld	%r0,[%fp,-88]
fedc: 40007e01                 add	%r0,%r0,1
fee0: 100d81a8                 st	%r0,[%fp,-88]
fee4: 57eafbff                 sub.f	0,%r21,-1
fee8: 27ff5082                 bnz	0xf970 = _doscan+0x4c
feec: 080d81ac                 ld	%r0,[%fp,-84]
fef0: 57e07a00                 sub.f	0,%r0,0
fef4: 27ff4f0a                 bge	0xf970 = _doscan+0x4c
fef8: 20003f80                 b	0x1_00f8 = _doscan+0x7d4
fefc: 42cdffb0                 add	%r22,%fp,-80
ff00: 2ffef220                 bl.d	skip
ff04: 600b2c00                 mov	%r0,%r22
ff08: 57e07a00                 sub.f	0,%r0,0
ff0c: 27ffb88b                 blt	0xfcd4 = _doscan+0x3b0
ff10: 51a69a00                 sub	%r13,%r13,%r13
ff14: 61fffe40                 mov	%r15,64
ff18: 20000120                 b.d	0xff24 = _doscan+0x600
ff1c: 61c69a00                 mov	%r14,%r13
ff20: 61ca2800                 mov	%r14,%r20
ff24: 2ffee2a0                 bl.d	g
ff28: 600b2c00                 mov	%r0,%r22
ff2c: 57e07bff                 sub.f	0,%r0,-1
ff30: 42877e01                 add	%r20,%r14,1
ff34: 20001c21                 bz.d	0x1_0018 = _doscan+0x6f4
ff38: 62a00000                 mov	%r21,%r0
ff3c: 57e6fa04                 sub.f	0,%r13,4
ff40: 400da800                 add	%r0,%fp,%r20
ff44: 20001a2d                 bhi.d	0x1_0018 = _doscan+0x6f4
ff48: 10402bbb                 stb	%r21,[%r0,-69]
ff4c: 0186fc03 0000ff60        ldb.x	%r12,[%r13,0xff60]		; 0xff60 = _doscan+0x63c
ff54: 41867c00 00003fd8        add	%r12,%r12,0x3fd8		; 0x3fd8 = _HEAPSIZE+0x1fd8
ff5c: 38060000                 j	[%r12]
ff60: 02                       .byte	GB
ff61: 07                       .byte	GB+5
ff62: 17                       .byte	GB+0x15
ff63: 22                       .byte	FMANT_BITS+10
ff64: 27                       .byte	FMANT_BITS+15
ff65: 00                       .byte	.CC_I
ff66: 00                       .byte	.CC_I
ff67: 00                       .byte	.CC_I
ff68: 61bffe01                 mov	%r13,1
ff6c: 57eafa2d                 sub.f	0,%r21,45
ff70: 57eafd02 0000002b        sub.nz.f	0,%r21,43		; 0x2b = FMANT_BITS+0x13
ff78: 20001201                 bz	0x1_000c = _doscan+0x6e8
ff7c: 000afc02 000171f5        ldb	%r0,[%r21,0x1_71f5]		; 0x1_71f5 = _ctype+1
ff84: 67e07a04                 and.f	0,%r0,4
ff88: 20000201                 bz	0xff9c = _doscan+0x678
ff8c: 52087e01                 sub	%r16,%r16,1
ff90: 57e87bff                 sub.f	0,%r16,-1
ff94: 20001001                 bz	0x1_0018 = _doscan+0x6f4
ff98: 20000e00                 b	0x1_000c = _doscan+0x6e8
ff9c: 57eafa2e                 sub.f	0,%r21,46
ffa0: 20000781                 bz	0xffe0 = _doscan+0x6bc
ffa4: 57eafa45                 sub.f	0,%r21,69
ffa8: 57eafd02 00000065        sub.nz.f	0,%r21,101		; 0x65 = DMANT_BITS+0x30
ffb0: 20000c82                 bnz	0x1_0018 = _doscan+0x6f4
ffb4: 20000aa0                 b.d	0x1_000c = _doscan+0x6e8
ffb8: 41a6fe02                 add	%r13,%r13,2
ffbc: 000afc02 000171f5        ldb	%r0,[%r21,0x1_71f5]		; 0x1_71f5 = _ctype+1
ffc4: 67e07a04                 and.f	0,%r0,4
ffc8: 20000822                 bnz.d	0x1_000c = _doscan+0x6e8
ffcc: 61bffe02                 mov	%r13,2
ffd0: 57eafa45                 sub.f	0,%r21,69
ffd4: 57eafd02 00000065        sub.nz.f	0,%r21,101		; 0x65 = DMANT_BITS+0x30
ffdc: 20000702                 bnz	0x1_0018 = _doscan+0x6f4
ffe0: 20000520                 b.d	0x1_000c = _doscan+0x6e8
ffe4: 41a6fe01                 add	%r13,%r13,1
ffe8: 61bffe04                 mov	%r13,4
ffec: 57eafa2d                 sub.f	0,%r21,45
fff0: 57eafd02 0000002b        sub.nz.f	0,%r21,43		; 0x2b = FMANT_BITS+0x13
fff8: 20000201                 bz	0x1_000c = _doscan+0x6e8
fffc: 000afc02 000171f5        ldb	%r0,[%r21,0x1_71f5]		; 0x1_71f5 = _ctype+1
10004: 67e07a04                 and.f	0,%r0,4
10008: 20000181                 bz	0x1_0018 = _doscan+0x6f4
1000c: 51e7fe01                 sub	%r15,%r15,1
10010: 57e7fa00                 sub.f	0,%r15,0
10014: 27ffe10d                 bhi	0xff20 = _doscan+0x5fc
10018: 600b2c00                 mov	%r0,%r22
1001c: 2ffeca20                 bl.d	p
10020: 602aaa00                 mov	%r1,%r21
10024: 67e71d00                 mov.f	0,%r14
10028: 20000a01                 bz	0x1_007c = _doscan+0x758
1002c: 57e77a01                 sub.f	0,%r14,1
10030: 20000282                 bnz	0x1_0048 = _doscan+0x724
10034: 080d85bc                 ldb	%r0,[%fp,-68]
10038: 00007c02 000171f5        ldb	%r0,[%r0,0x1_71f5]		; 0x1_71f5 = _ctype+1
10040: 67e07a04                 and.f	0,%r0,4
10044: 20000681                 bz	0x1_007c = _doscan+0x758
10048: 400d9c00                 add	%r0,%fp,%r14
1004c: 67ebaf00                 mov.f	0,%r23
10050: 50208200                 sub	%r1,%r1,%r1
10054: 27ff2322                 bnz.d	0xf970 = _doscan+0x4c
10058: 104003bc                 stb	%r1,[%r0,-68]
1005c: 57e8fa4c                 sub.f	0,%r17,76
10060: 200005a1                 bz.d	0x1_0090 = _doscan+0x76c
10064: 400dffbc                 add	%r0,%fp,-68
10068: 57e8fa6c                 sub.f	0,%r17,108
1006c: 27ff1c22                 bnz.d	0xf950 = _doscan+0x2c
10070: 60408200                 mov	%r2,%r1
10074: 2801a600                 bl	_doatofd
10078: 20000380                 b	0x1_0098 = _doscan+0x774
1007c: 57eafbff                 sub.f	0,%r21,-1
10080: 20000e82                 bnz	0x1_00f8 = _doscan+0x7d4
10084: 601fffff                 mov	%r0,-1
10088: 20000da0                 b.d	0x1_00f8 = _doscan+0x7d4
1008c: 100d81ac                 st	%r0,[%fp,-84]
10090: 28021920                 bl.d	_doatof
10094: 60408200                 mov	%r2,%r1
10098: 42497e04                 add	%r18,%r18,4
1009c: 084901fc                 ld	%r2,[%r18,-4]
100a0: 10010000                 st	%r0,[%r2]
100a4: 27ff17a0                 b.d	0xf964 = _doscan+0x40
100a8: 10010204                 st	%r1,[%r2,4]
100ac: 4006fc00 000171f4        add	%r0,%r13,0x1_71f4		; __ctype
100b4: 08000401                 ldb	%r0,[%r0,1]
100b8: 67e07a08                 and.f	0,%r0,8
100bc: 200002a1                 bz.d	0x1_00d4 = _doscan+0x7b0
100c0: 400dffb0                 add	%r0,%fp,-80
100c4: 2ffeb980                 bl	skip
100c8: 57e07a00                 sub.f	0,%r0,0
100cc: 27ff140a                 bge	0xf970 = _doscan+0x4c
100d0: 20000480                 b	0x1_00f8 = _doscan+0x7d4
100d4: 41cdffb0                 add	%r14,%fp,-80
100d8: 2ffeac20                 bl.d	g
100dc: 60071c00                 mov	%r0,%r14
100e0: 57e68100                 sub.f	0,%r13,%r0
100e4: 27ff1121                 bz.d	0xf970 = _doscan+0x4c
100e8: 100d81ac                 st	%r0,[%fp,-84]
100ec: 60071c00                 mov	%r0,%r14
100f0: 2ffeafa0                 bl.d	p
100f4: 082d81ac                 ld	%r1,[%fp,-84]
100f8: 400dffb0                 add	%r0,%fp,-80
100fc: 2ffeae20                 bl.d	p
10100: 603fffff                 mov	%r1,-1
10104: 080d81a8                 ld	%r0,[%fp,-88]
10108: 67e00100                 mov.f	0,%r0
1010c: 200002a2                 bnz.d	0x1_0124 = _doscan+0x800
10110: 61bfffff                 mov	%r13,-1
10114: 080d81ac                 ld	%r0,[%fp,-84]
10118: 57e07bff                 sub.f	0,%r0,-1
1011c: 20000082                 bnz	0x1_0124 = _doscan+0x800
10120: 100d9ba8                 st	%r13,[%fp,-88]
10124: 080d81a8                 ld	%r0,[%fp,-88]
10128: 2007b320                 b.d	__epilog_load25
1012c: 619ffea0                 mov	%r12,160
ungetc:
10130: 100e3e04                 st	%blink,[%sp,4]
10134: 28078200                 bl	__prolog_save17
10138: 57e07bff                 sub.f	0,%r0,-1
1013c: 61c00000                 mov	%r14,%r0
10140: 200001a2                 bnz.d	0x1_0150 = ungetc+0x20
10144: 61e08200                 mov	%r15,%r1
10148: 20002620                 b.d	0x1_027c = ungetc+0x14c
1014c: 61dfffff                 mov	%r14,-1
10150: 2ffe24a0                 bl.d	_mwlock_file
10154: 60079e00                 mov	%r0,%r15
10158: 0807840c                 ldb	%r0,[%r15,12]
1015c: 67e07a04                 and.f	0,%r0,4
10160: 20000502                 bnz	0x1_018c = ungetc+0x5c
10164: 08078008                 ld	%r0,[%r15,8]
10168: 67e00100                 mov.f	0,%r0
1016c: 20000382                 bnz	0x1_018c = ungetc+0x5c
10170: 28013d20                 bl.d	_finit
10174: 60079e00                 mov	%r0,%r15
10178: 57e07a00                 sub.f	0,%r0,0
1017c: 2000018a                 bge	0x1_018c = ungetc+0x5c
10180: 2ffe2520                 bl.d	_mwunlock_file
10184: 60079e00                 mov	%r0,%r15
10188: 27fff780                 b	0x1_0148 = ungetc+0x18
1018c: 601f7c00 00018550        mov	%r0,0x1_8550		; __iob
10194: 50078000                 sub	%r0,%r15,%r0
10198: 60007ff0                 and	%r0,%r0,-16
1019c: 42007c00 00018974        add	%r16,%r0,0x1_8974		; _iob_unget
101a4: 08280008                 ld	%r1,[%r16,8]
101a8: 0848000c                 ld	%r2,[%r16,12]
101ac: 57e10300                 sub.f	0,%r2,%r1
101b0: 20000202                 bnz	0x1_01c4 = ungetc+0x94
101b4: 08078000                 ld	%r0,[%r15]
101b8: 10080000                 st	%r0,[%r16]
101bc: 50000000                 sub	%r0,%r0,%r0
101c0: 10078000                 st	%r0,[%r15]
101c4: 50010200                 sub	%r0,%r2,%r1
101c8: 08280004                 ld	%r1,[%r16,4]
101cc: 57e00300                 sub.f	0,%r0,%r1
101d0: 2000108b                 blt	0x1_0258 = ungetc+0x128
101d4: 67e08300                 mov.f	0,%r1
101d8: 61bffe10                 mov	%r13,16
101dc: 41a08202                 asl.nz	%r13,%r1
101e0: 0807840c                 ldb	%r0,[%r15,12]
101e4: 67e07d00 00000200        and.f	0,%r0,0x200		; 0x200 = FEXP_MAX+0x101
101ec: 200001a1                 bz.d	0x1_01fc = ungetc+0xcc
101f0: 60069a00                 mov	%r0,%r13
101f4: 28026300                 bl	_smalloc
101f8: 20000080                 b	0x1_0200 = ungetc+0xd0
101fc: 2803ed00                 bl	malloc
10200: 62200100                 mov.f	%r17,%r0
10204: 27ffef01                 bz	0x1_0180 = ungetc+0x50
10208: 08280008                 ld	%r1,[%r16,8]
1020c: 67e08300                 mov.f	0,%r1
10210: 200007c1                 bz.jd	0x1_0250 = ungetc+0x120
10214: 1008220c                 st	%r17,[%r16,12]
10218: 2ffd82a0                 bl.d	memcpy
1021c: 08480004                 ld	%r2,[%r16,4]
10220: 08080008                 ld	%r0,[%r16,8]
10224: 0828000c                 ld	%r1,[%r16,12]
10228: 50208000                 sub	%r1,%r1,%r0
1022c: 4020a200                 add	%r1,%r1,%r17
10230: 1008020c                 st	%r1,[%r16,12]
10234: 0827840c                 ldb	%r1,[%r15,12]
10238: 67e0fd00 00000200        and.f	0,%r1,0x200		; 0x200 = FEXP_MAX+0x101
10240: 20000101                 bz	0x1_024c = ungetc+0x11c
10244: 28025980                 bl	_sfree
10248: 20000080                 b	0x1_0250 = ungetc+0x120
1024c: 28036180                 bl	free
10250: 10082208                 st	%r17,[%r16,8]
10254: 10081a04                 st	%r13,[%r16,4]
10258: 0808000c                 ld	%r0,[%r16,12]
1025c: 10401c00                 stb	%r14,[%r0]
10260: 40007e01                 add	%r0,%r0,1
10264: 1008000c                 st	%r0,[%r16,12]
10268: 0807840c                 ldb	%r0,[%r15,12]
1026c: 60007fef                 and	%r0,%r0,-17
10270: 1047800c                 stb	%r0,[%r15,12]
10274: 2ffe06a0                 bl.d	_mwunlock_file
10278: 60079e00                 mov	%r0,%r15
1027c: 20077ea0                 b.d	__epilog_restore17
10280: 60071c00                 mov	%r0,%r14
fgetc:
10284: 100e3e04                 st	%blink,[%sp,4]
10288: 28074ba0                 bl.d	__prolog_save0sp
1028c: 619ffe14                 mov	%r12,20
10290: 60600000                 mov	%r3,%r0
10294: 400dffff                 add	%r0,%fp,-1
10298: 603ffe01                 mov	%r1,1
1029c: 2804e9a0                 bl.d	fread
102a0: 60408200                 mov	%r2,%r1
102a4: 57e07a01                 sub.f	0,%r0,1
102a8: 20000122                 bnz.d	0x1_02b4 = fgetc+0x30
102ac: 601fffff                 mov	%r0,-1
102b0: 080d85ff                 ldb	%r0,[%fp,-1]
102b4: 20078820                 b.d	__epilog_load0
102b8: 619ffe14                 mov	%r12,20
wctomb:
102bc: 67e00100                 mov.f	0,%r0
102c0: 380f8021                 jz.d	[%blink]
102c4: 50000001                 sub.z	%r0,%r0,%r0
102c8: 10400200                 stb	%r1,[%r0]
102cc: 380f8020                 j.d	[%blink]
102d0: 601ffe01                 mov	%r0,1
wcstombs:
102d4: 50618600                 sub	%r3,%r3,%r3
102d8: 57e17a00                 sub.f	0,%r2,0
102dc: 6781040d                 mov.hi	%lp_count,%r2
102e0: 3000038d                 lphi	0x1_0300 = wcstombs+0x2c
102e4: 40418600                 asl	%r2,%r3
102e8: 00408404                 ldw	%r2,[%r1,%r2]
102ec: 41800600                 add	%r12,%r0,%r3
102f0: 1fe10f00                 extb.f	0,%r2
102f4: 20000121                 bz.d	0x1_0300 = wcstombs+0x2c
102f8: 10460400                 stb	%r2,[%r12]
102fc: 4061fe01                 add	%r3,%r3,1
10300: 380f8020                 j.d	[%blink]
10304: 60018600                 mov	%r0,%r3
_cnvs2u:
10308: 61000000                 mov	%r8,%r0
1030c: 50a28a00                 sub	%r5,%r5,%r5
10310: 20000820                 b.d	0x1_0354 = _cnvs2u+0x4c
10314: 60628a00                 mov	%r3,%r5
10318: 57e1fd00 19999999        sub.f	0,%r3,0x1999_9999		; 0x1999_9999 = .regmask_hi+0x9999999
10320: 60bf7c0d 00000022        mov.hi	%r5,34		; 0x22 = FMANT_BITS+10
10328: 40818600                 asl	%r4,%r3
1032c: 40820800                 asl	%r4,%r4
10330: 40620600                 add	%r3,%r4,%r3
10334: 40e18600                 asl	%r7,%r3
10338: 50837e30                 sub	%r4,%r6,48
1033c: 507f89ff                 sub	%r3,-1,%r4
10340: 57e38700                 sub.f	0,%r7,%r3
10344: 60bf7c0d 00000022        mov.hi	%r5,34		; 0x22 = FMANT_BITS+10
1034c: 40620e00                 add	%r3,%r4,%r7
10350: 41047e01                 add	%r8,%r8,1
10354: 08c40400                 ldb	%r6,[%r8]
10358: 40837c00 000171f4        add	%r4,%r6,0x1_71f4		; __ctype
10360: 08820401                 ldb	%r4,[%r4,1]
10364: 67e27a04                 and.f	0,%r4,4
10368: 27fff582                 bnz	0x1_0318 = _cnvs2u+16
1036c: 57e01100                 sub.f	0,%r0,%r8
10370: 60bf7c01 ffffffff        mov.z	%r5,-1		; 0xffff_ffff = .regmask_lo+0x7fc0000
10378: 67e08300                 mov.f	0,%r1
1037c: 20000081                 bz	0x1_0384 = _cnvs2u+0x7c
10380: 10009000                 st	%r8,[%r1]
10384: 67e10500                 mov.f	0,%r2
10388: 20000081                 bz	0x1_0390 = _cnvs2u+0x88
1038c: 10010a00                 st	%r5,[%r2]
10390: 380f8020                 j.d	[%blink]
10394: 60018600                 mov	%r0,%r3
_cnvs2i:
10398: 100e3e04                 st	%blink,[%sp,4]
1039c: 280728a0                 bl.d	__prolog_save0
103a0: 51249200                 sub	%r9,%r9,%r9
103a4: 61410400                 mov	%r10,%r2
103a8: 08400400                 ldb	%r2,[%r0]
103ac: 57e17a2d                 sub.f	0,%r2,45
103b0: 613f7c01 ffffffff        mov.z	%r9,-1		; 0xffff_ffff = .regmask_lo+0x7fc0000
103b8: 57e17d02 0000002b        sub.nz.f	0,%r2,43		; 0x2b = FMANT_BITS+0x13
103c0: 20000082                 bnz	0x1_03c8 = _cnvs2i+0x30
103c4: 40007e01                 add	%r0,%r0,1
103c8: 2fffe7a0                 bl.d	_cnvs2u
103cc: 60451400                 mov	%r2,%r10
103d0: 57e07a00                 sub.f	0,%r0,0
103d4: 5020820a                 sub.ge	%r1,%r1,%r1
103d8: 603f7c0b 00000022        mov.lt	%r1,34		; 0x22 = FMANT_BITS+10
103e0: 67e49300                 mov.f	0,%r9
103e4: 67e00102                 mov.nz.f	0,%r0
103e8: 20000281                 bz	0x1_0400 = _cnvs2i+0x68
103ec: 505f8000                 sub	%r2,0,%r0
103f0: 57e00500                 sub.f	0,%r0,%r2
103f4: 603f7c01 00000022        mov.z	%r1,34		; 0x22 = FMANT_BITS+10
103fc: 501f8000                 sub	%r0,0,%r0
10400: 67e08300                 mov.f	0,%r1
10404: 20074881                 bz	__epilog_restore0
10408: 67e51500                 mov.f	0,%r10
1040c: 20074781                 bz	__epilog_restore0
10410: 20074720                 b.d	__epilog_restore0
10414: 10050200                 st	%r1,[%r10]
_cnvs2n:
10418: 100e3e04                 st	%blink,[%sp,4]
1041c: 28072780                 bl	__prolog_save18
10420: 62000000                 mov	%r16,%r0
10424: 62208200                 mov	%r17,%r1
10428: 61e10400                 mov	%r15,%r2
1042c: 5000fe02                 sub	%r0,%r1,2
10430: 57e07a0e                 sub.f	0,%r0,14
10434: 61c18600                 mov	%r14,%r3
10438: 2000112d                 bhi.d	0x1_04c4 = _cnvs2n+0xac
1043c: 51a69a00                 sub	%r13,%r13,%r13
10440: 41800000                 asl	%r12,%r0
10444: 01867c05 00010458        ldw.x	%r12,[%r12,0x1_0458]		; 0x1_0458 = _cnvs2n+0x40
1044c: 41867c00 00004116        add	%r12,%r12,0x4116		; 0x4116 = _STACKSIZE+0x116
10454: 38060000                 j	[%r12]
10458: 0011                     .short	GB+15
1045a: 001b                     .short	FMANT_BITS+3
1045c: 000e                     .short	GB+12
1045e: 001b                     .short	FMANT_BITS+3
10460: 001b                     .short	FMANT_BITS+3
10462: 001b                     .short	FMANT_BITS+3
10464: 000b                     .short	GB+9
10466: 001b                     .short	FMANT_BITS+3
10468: 001b                     .short	FMANT_BITS+3
1046a: 001b                     .short	FMANT_BITS+3
1046c: 001b                     .short	FMANT_BITS+3
1046e: 001b                     .short	FMANT_BITS+3
10470: 001b                     .short	FMANT_BITS+3
10472: 001b                     .short	FMANT_BITS+3
10474: 0008                     .short	GB+6
10476: 0000                     .short	.CC_I
10478: 623ffe10                 mov	%r17,16
1047c: 200004a0                 b.d	0x1_04a4 = _cnvs2n+0x8c
10480: 625ffe04                 mov	%r18,4
10484: 623ffe08                 mov	%r17,8
10488: 20000320                 b.d	0x1_04a4 = _cnvs2n+0x8c
1048c: 625ffe03                 mov	%r18,3
10490: 625ffe02                 mov	%r18,2
10494: 200001a0                 b.d	0x1_04a4 = _cnvs2n+0x8c
10498: 623ffe04                 mov	%r17,4
1049c: 625ffe01                 mov	%r18,1
104a0: 623ffe02                 mov	%r17,2
104a4: 601fffff                 mov	%r0,-1
104a8: 1f890300                 asr.f	%lp_count,%r18
104ac: 60200000                 mov	%r1,%r0
104b0: 18208405                 lsr.c	%r1,%r1
104b4: 30000102                 lpnz	0x1_04c0 = _cnvs2n+0xa8
104b8: 18208400                 lsr	%r1,%r1
104bc: 18208400                 lsr	%r1,%r1
104c0: 20000280                 b	0x1_04d8 = _cnvs2n+0xc0
104c4: 52492400                 sub	%r18,%r18,%r18
104c8: 601fffff                 mov	%r0,-1
104cc: 28078ca0                 bl.d	_udivmod
104d0: 6028a200                 mov	%r1,%r17
104d4: 60200000                 mov	%r1,%r0
104d8: 60069a00                 mov	%r0,%r13
104dc: 20000420                 b.d	0x1_0500 = _cnvs2n+0xe8
104e0: 60882000                 mov	%r4,%r16
104e4: 1f890300                 asr.f	%lp_count,%r18
104e8: 40000005                 asl.c	%r0,%r0
104ec: 30000102                 lpnz	0x1_04f8 = _cnvs2n+0xe0
104f0: 40000000                 asl	%r0,%r0
104f4: 40000000                 asl	%r0,%r0
104f8: 40010000                 add	%r0,%r2,%r0
104fc: 40827e01                 add	%r4,%r4,1
10500: 08620400                 ldb	%r3,[%r4]
10504: 4041fc00 000171f4        add	%r2,%r3,0x1_71f4		; __ctype
1050c: 08410401                 ldb	%r2,[%r2,1]
10510: 67e17a04                 and.f	0,%r2,4
10514: 200003c2                 bnz.jd	0x1_0534 = _cnvs2n+0x11c
10518: 5041fe30                 sub	%r2,%r3,48
1051c: 67e17a03                 and.f	0,%r2,3
10520: 20000c01                 bz	0x1_0584 = _cnvs2n+0x16c
10524: 67e17a02                 and.f	0,%r2,2
10528: 5061fc02 00000020        sub.nz	%r3,%r3,32		; 0x20 = FMANT_BITS+8
10530: 5041fe37                 sub	%r2,%r3,55
10534: 57e88500                 sub.f	0,%r17,%r2
10538: 2000090c                 ble	0x1_0584 = _cnvs2n+0x16c
1053c: 57e00300                 sub.f	0,%r0,%r1
10540: 61bf7c0d 00000022        mov.hi	%r13,34		; 0x22 = FMANT_BITS+10
10548: 67e92500                 mov.f	0,%r18
1054c: 27fff282                 bnz	0x1_04e4 = _cnvs2n+0xcc
10550: 61800000                 mov	%r12,%r0
10554: 6168a200                 mov	%r11,%r17
10558: 679ffe20                 mov	%lp_count,32
1055c: 50000000                 sub	%r0,%r0,%r0
10560: 30000180                 lp	0x1_0570 = _cnvs2n+0x158
10564: 19658500                 lsr.f	%r11,%r11
10568: 40001805                 add.c	%r0,%r0,%r12
1056c: 41861800                 asl	%r12,%r12
10570: 507f85ff                 sub	%r3,-1,%r2
10574: 57e00700                 sub.f	0,%r0,%r3
10578: 61bf7c0d 00000022        mov.hi	%r13,34		; 0x22 = FMANT_BITS+10
10580: 27ffee80                 b	0x1_04f8 = _cnvs2n+0xe0
10584: 57e80900                 sub.f	0,%r16,%r4
10588: 61bf7c01 ffffffff        mov.z	%r13,-1		; 0xffff_ffff = .regmask_lo+0x7fc0000
10590: 67e79f00                 mov.f	0,%r15
10594: 20000081                 bz	0x1_059c = _cnvs2n+0x184
10598: 10078800                 st	%r4,[%r15]
1059c: 67e71d00                 mov.f	0,%r14
105a0: 20071b01                 bz	__epilog_restore18
105a4: 20071aa0                 b.d	__epilog_restore18
105a8: 10071a00                 st	%r13,[%r14]
_cnvs2p:
105ac: 60808200                 mov	%r4,%r1
105b0: 60610400                 mov	%r3,%r2
105b4: 603ffe10                 mov	%r1,16
105b8: 27ffcba0                 b.d	_cnvs2n
105bc: 60420800                 mov	%r2,%r4
memchr:
105c0: 20000120                 b.d	0x1_05cc = memchr+12
105c4: 18608e00                 extb	%r3,%r1
105c8: 40007e01                 add	%r0,%r0,1
105cc: 50417e01                 sub	%r2,%r2,1
105d0: 57e17bff                 sub.f	0,%r2,-1
105d4: 20000201                 bz	0x1_05e8 = memchr+0x28
105d8: 08200400                 ldb	%r1,[%r0]
105dc: 57e18300                 sub.f	0,%r3,%r1
105e0: 380f8001                 jz	[%blink]
105e4: 27fffc00                 b	0x1_05c8 = memchr+8
105e8: 380f8020                 j.d	[%blink]
105ec: 50000000                 sub	%r0,%r0,%r0
_uchrchr:
105f0: 20000080                 b	0x1_05f8 = _uchrchr+8
105f4: 40007e02                 add	%r0,%r0,2
105f8: 50417e01                 sub	%r2,%r2,1
105fc: 57e17bff                 sub.f	0,%r2,-1
10600: 20000201                 bz	0x1_0614 = _uchrchr+0x24
10604: 08600800                 ldw	%r3,[%r0]
10608: 57e08700                 sub.f	0,%r1,%r3
1060c: 380f8001                 jz	[%blink]
10610: 27fffc00                 b	0x1_05f4 = _uchrchr+4
10614: 380f8020                 j.d	[%blink]
10618: 50000000                 sub	%r0,%r0,%r0
_cnvll2s:
1061c: 100e3e04                 st	%blink,[%sp,4]
10620: 2806ef20                 bl.d	__prolog_save21sp
10624: 619ffe78                 mov	%r12,120
10628: 62400000                 mov	%r18,%r0
1062c: 62008200                 mov	%r16,%r1
10630: 60010400                 mov	%r0,%r2
10634: 60218600                 mov	%r1,%r3
10638: 50487e02                 sub	%r2,%r16,2
1063c: 57e17a0e                 sub.f	0,%r2,14
10640: 62220800                 mov	%r17,%r4
10644: 20000fad                 bhi.d	0x1_06c4 = _cnvll2s+0xa8
10648: 51a69a00                 sub	%r13,%r13,%r13
1064c: 41810400                 asl	%r12,%r2
10650: 01867c05 00010664        ldw.x	%r12,[%r12,0x1_0664]		; 0x1_0664 = _cnvll2s+0x48
10658: 41867c00 00004199        add	%r12,%r12,0x4199		; 0x4199 = _STACKSIZE+0x199
10660: 38060000                 j	[%r12]
10664: 0014                     .short	GB+0x12
10666: 0018                     .short	FMANT_BITS
10668: 0010                     .short	GB+14
1066a: 0018                     .short	FMANT_BITS
1066c: 0018                     .short	FMANT_BITS
1066e: 0018                     .short	FMANT_BITS
10670: 000c                     .short	GB+10
10672: 0018                     .short	FMANT_BITS
10674: 0018                     .short	FMANT_BITS
10676: 0018                     .short	FMANT_BITS
10678: 0018                     .short	FMANT_BITS
1067a: 0018                     .short	FMANT_BITS
1067c: 0018                     .short	FMANT_BITS
1067e: 0018                     .short	FMANT_BITS
10680: 0008                     .short	GB+6
10682: 0000                     .short	.CC_I
10684: 621ffe10                 mov	%r16,16
10688: 61fffe04                 mov	%r15,4
1068c: 20000920                 b.d	0x1_06d8 = _cnvll2s+0xbc
10690: 61dffe0f                 mov	%r14,15
10694: 621ffe08                 mov	%r16,8
10698: 61fffe03                 mov	%r15,3
1069c: 20000920                 b.d	0x1_06e8 = _cnvll2s+0xcc
106a0: 61dffe07                 mov	%r14,7
106a4: 61fffe02                 mov	%r15,2
106a8: 61dffe03                 mov	%r14,3
106ac: 20000720                 b.d	0x1_06e8 = _cnvll2s+0xcc
106b0: 621ffe04                 mov	%r16,4
106b4: 61dffe01                 mov	%r14,1
106b8: 61e71c00                 mov	%r15,%r14
106bc: 20000520                 b.d	0x1_06e8 = _cnvll2s+0xcc
106c0: 621ffe02                 mov	%r16,2
106c4: 51a69a00                 sub	%r13,%r13,%r13
106c8: 57e87a0a                 sub.f	0,%r16,10
106cc: 61c69a00                 mov	%r14,%r13
106d0: 200002ac                 ble.d	0x1_06e8 = _cnvll2s+0xcc
106d4: 61e69a00                 mov	%r15,%r13
106d8: 67e28b00                 mov.f	0,%r5
106dc: 61bffe61                 mov	%r13,97
106e0: 61bf7c01 00000041        mov.z	%r13,65		; 0x41 = DMANT_BITS+12
106e8: 428dfffc                 add	%r20,%fp,-4
106ec: 5269a600                 sub	%r19,%r19,%r19
106f0: 104a2600                 stb	%r19,[%r20]
106f4: 67e79f00                 mov.f	0,%r15
106f8: 62a70002                 and.nz	%r21,%r14,%r0
106fc: 2807c2a2                 blnz.d	_Lsrl
10700: 60479e02                 mov.nz	%r2,%r15
10704: 20000402                 bnz	0x1_0728 = _cnvll2s+0x10c
10708: 60482000                 mov	%r2,%r16
1070c: 679ffe0f                 mov	%lp_count,15
10710: 18680200                 asr	%r3,%r16
10714: 30000100                 lp	0x1_0720 = _cnvll2s+0x104
10718: 18618200                 asr	%r3,%r3
1071c: 18618200                 asr	%r3,%r3
10720: 2807c700                 bl	_Ludiv
10724: 62a10400                 mov	%r21,%r2
10728: 57eafa09                 sub.f	0,%r21,9
1072c: 42a6aa09                 add.gt	%r21,%r13,%r21
10730: 504afe0a                 sub	%r2,%r21,10
10734: 404afc0c 00000030        add.le	%r2,%r21,48		; 0x30 = FMANT_BITS+0x18
1073c: 528a7e01                 sub	%r20,%r20,1
10740: 6fe00300                 or.f	0,%r0,%r1
10744: 104a0400                 stb	%r2,[%r20]
10748: 27fff522                 bnz.d	0x1_06f4 = _cnvll2s+0xd8
1074c: 4269fe01                 add	%r19,%r19,1
10750: 4049fe01                 add	%r2,%r19,1
10754: 60092400                 mov	%r0,%r18
10758: 2ffcdaa0                 bl.d	memcpy
1075c: 602a2800                 mov	%r1,%r20
10760: 67e8a300                 mov.f	0,%r17
10764: 20000081                 bz	0x1_076c = _cnvll2s+0x150
10768: 1008a600                 st	%r19,[%r17]
1076c: 60092400                 mov	%r0,%r18
10770: 2006ec20                 b.d	__epilog_load21
10774: 619ffe78                 mov	%r12,120
_cnvull2s:
10778: 60c08200                 mov	%r6,%r1
1077c: 60a10400                 mov	%r5,%r2
10780: 60818600                 mov	%r4,%r3
10784: 603ffe0a                 mov	%r1,10
10788: 60430c00                 mov	%r2,%r6
1078c: 60628a00                 mov	%r3,%r5
10790: 27ffd120                 b.d	_cnvll2s
10794: 50a28a00                 sub	%r5,%r5,%r5
_cnvn2s:
10798: 100e3e04                 st	%blink,[%sp,4]
1079c: 2806bd20                 bl.d	__prolog_save20sp
107a0: 619ffe54                 mov	%r12,84
107a4: 62200000                 mov	%r17,%r0
107a8: 61e08200                 mov	%r15,%r1
107ac: 60010400                 mov	%r0,%r2
107b0: 5020fe02                 sub	%r1,%r1,2
107b4: 57e0fa0e                 sub.f	0,%r1,14
107b8: 62018600                 mov	%r16,%r3
107bc: 20000fad                 bhi.d	0x1_083c = _cnvn2s+0xa4
107c0: 528a2800                 sub	%r20,%r20,%r20
107c4: 41808200                 asl	%r12,%r1
107c8: 01867c05 000107dc        ldw.x	%r12,[%r12,0x1_07dc]		; 0x1_07dc = _cnvn2s+0x44
107d0: 41867c00 000041f7        add	%r12,%r12,0x41f7		; 0x41f7 = _STACKSIZE+0x1f7
107d8: 38060000                 j	[%r12]
107dc: 0014                     .short	GB+0x12
107de: 0018                     .short	FMANT_BITS
107e0: 0010                     .short	GB+14
107e2: 0018                     .short	FMANT_BITS
107e4: 0018                     .short	FMANT_BITS
107e6: 0018                     .short	FMANT_BITS
107e8: 000c                     .short	GB+10
107ea: 0018                     .short	FMANT_BITS
107ec: 0018                     .short	FMANT_BITS
107ee: 0018                     .short	FMANT_BITS
107f0: 0018                     .short	FMANT_BITS
107f2: 0018                     .short	FMANT_BITS
107f4: 0018                     .short	FMANT_BITS
107f6: 0018                     .short	FMANT_BITS
107f8: 0008                     .short	GB+6
107fa: 0000                     .short	.CC_I
107fc: 61fffe10                 mov	%r15,16
10800: 61dffe04                 mov	%r14,4
10804: 200009a0                 b.d	0x1_0854 = _cnvn2s+0xbc
10808: 61bffe0f                 mov	%r13,15
1080c: 61fffe08                 mov	%r15,8
10810: 61dffe03                 mov	%r14,3
10814: 200009a0                 b.d	0x1_0864 = _cnvn2s+0xcc
10818: 61bffe07                 mov	%r13,7
1081c: 61dffe02                 mov	%r14,2
10820: 61bffe03                 mov	%r13,3
10824: 200007a0                 b.d	0x1_0864 = _cnvn2s+0xcc
10828: 61fffe04                 mov	%r15,4
1082c: 61bffe01                 mov	%r13,1
10830: 61c69a00                 mov	%r14,%r13
10834: 200005a0                 b.d	0x1_0864 = _cnvn2s+0xcc
10838: 61fffe02                 mov	%r15,2
1083c: 51a69a00                 sub	%r13,%r13,%r13
10840: 57e7fa0a                 sub.f	0,%r15,10
10844: 62869a0c                 mov.le	%r20,%r13
10848: 2000032c                 ble.d	0x1_0864 = _cnvn2s+0xcc
1084c: 61c69a0c                 mov.le	%r14,%r13
10850: 61c69a00                 mov	%r14,%r13
10854: 67e20900                 mov.f	0,%r4
10858: 629ffe61                 mov	%r20,97
1085c: 629f7c01 00000041        mov.z	%r20,65		; 0x41 = DMANT_BITS+12
10864: 426dfffc                 add	%r19,%fp,-4
10868: 52492400                 sub	%r18,%r18,%r18
1086c: 200000a0                 b.d	0x1_0874 = _cnvn2s+0xdc
10870: 1049a400                 stb	%r18,[%r19]
10874: 67e71d00                 mov.f	0,%r14
10878: 20000381                 bz	0x1_0898 = _cnvn2s+0x100
1087c: 1f870300                 asr.f	%lp_count,%r14
10880: 60268000                 and	%r1,%r13,%r0
10884: 18000405                 lsr.c	%r0,%r0
10888: 30000102                 lpnz	0x1_0894 = _cnvn2s+0xfc
1088c: 18000400                 lsr	%r0,%r0
10890: 18000400                 lsr	%r0,%r0
10894: 20000100                 b	0x1_08a0 = _cnvn2s+0x108
10898: 28071320                 bl.d	_udivmod
1089c: 60279e00                 mov	%r1,%r15
108a0: 57e0fa09                 sub.f	0,%r1,9
108a4: 402a0209                 add.gt	%r1,%r20,%r1
108a8: 5020fc09 0000000a        sub.gt	%r1,%r1,10		; 0xa = GB+8
108b0: 4020fc0c 00000030        add.le	%r1,%r1,48		; 0x30 = FMANT_BITS+0x18
108b8: 5269fe01                 sub	%r19,%r19,1
108bc: 67e00100                 mov.f	0,%r0
108c0: 10498200                 stb	%r1,[%r19]
108c4: 27fff5a2                 bnz.d	0x1_0874 = _cnvn2s+0xdc
108c8: 42497e01                 add	%r18,%r18,1
108cc: 40497e01                 add	%r2,%r18,1
108d0: 6008a200                 mov	%r0,%r17
108d4: 2ffcab20                 bl.d	memcpy
108d8: 6029a600                 mov	%r1,%r19
108dc: 67e82100                 mov.f	0,%r16
108e0: 20000081                 bz	0x1_08e8 = _cnvn2s+0x150
108e4: 10082400                 st	%r18,[%r16]
108e8: 6008a200                 mov	%r0,%r17
108ec: 2006bd20                 b.d	__epilog_load20
108f0: 619ffe54                 mov	%r12,84
_cnvu2s:
108f4: 60808200                 mov	%r4,%r1
108f8: 60610400                 mov	%r3,%r2
108fc: 603ffe0a                 mov	%r1,10
10900: 60420800                 mov	%r2,%r4
10904: 27ffd220                 b.d	_cnvn2s
10908: 50820800                 sub	%r4,%r4,%r4
_cnvi2s:
1090c: 100e3e04                 st	%blink,[%sp,4]
10910: 28068220                 bl.d	__prolog_save15sp
10914: 619ffe20                 mov	%r12,32
10918: 61a00000                 mov	%r13,%r0
1091c: 60808300                 mov.f	%r4,%r1
10920: 61e10400                 mov	%r15,%r2
10924: 200002a3                 bp.d	0x1_093c = _cnvi2s+0x30
10928: 61c69a03                 mov.p	%r14,%r13
1092c: 601ffe2d                 mov	%r0,45
10930: 10468000                 stb	%r0,[%r13]
10934: 41c6fe01                 add	%r14,%r13,1
10938: 509f8800                 sub	%r4,0,%r4
1093c: 406dfffc                 add	%r3,%fp,-4
10940: 60071c00                 mov	%r0,%r14
10944: 603ffe0a                 mov	%r1,10
10948: 60420800                 mov	%r2,%r4
1094c: 2fffc920                 bl.d	_cnvn2s
10950: 50820800                 sub	%r4,%r4,%r4
10954: 50271a00                 sub	%r1,%r14,%r13
10958: 67e79f00                 mov.f	0,%r15
1095c: 080d81fc                 ld	%r0,[%fp,-4]
10960: 20000121                 bz.d	0x1_096c = _cnvi2s+0x60
10964: 40000200                 add	%r0,%r0,%r1
10968: 10078000                 st	%r0,[%r15]
1096c: 60069a00                 mov	%r0,%r13
10970: 2006af20                 b.d	__epilog_load15
10974: 619ffe20                 mov	%r12,32
_cnvp2s:
10978: 60808200                 mov	%r4,%r1
1097c: 60610400                 mov	%r3,%r2
10980: 603ffe10                 mov	%r1,16
10984: 60420800                 mov	%r2,%r4
10988: 27ffc1a0                 b.d	_cnvn2s
1098c: 609ffe01                 mov	%r4,1
__cleanup:
10990: 100e3e04                 st	%blink,[%sp,4]
10994: 28066c00                 bl	__prolog_save13
10998: 61bf7c00 00018e34        mov	%r13,0x1_8e34		; 0x1_8e34 = blen.L62+0x2c
109a0: 08068100                 ld	%r0,[%r13,-256]
109a4: 67e00100                 mov.f	0,%r0
109a8: 38000202                 jlnz	[%r0]
109ac: 50000000                 sub	%r0,%r0,%r0
109b0: 10068100                 st	%r0,[%r13,-256]
109b4: 081f0000 00018e40        ld	%r0,[0x1_8e40]		; _fclose_exit_p
109bc: 67e00100                 mov.f	0,%r0
109c0: 20069201                 bz	__epilog_restore13
109c4: 38000200                 jl	[%r0]
109c8: 20069100                 b	__epilog_restore13
_cexit:
109cc: 27fff800                 b	__cleanup
_c_exit:
109d0: 380f8000                 j	[%blink]
_stdio_linked:
109d4: 601f7c00 00004b76        mov	%r0,0x4b76		; 0x4b76 = _STACKSIZE+0xb76
109dc: 101f0000 00018e40        st	%r0,[0x1_8e40]		; _fclose_exit_p
109e4: 380f8000                 j	[%blink]
free_mem:
109e8: 0800040c                 ldb	%r0,[%r0,12]
109ec: 67e07d00 00000200        and.f	0,%r0,0x200		; 0x200 = FEXP_MAX+0x101
109f4: 60008200                 mov	%r0,%r1
109f8: 20016302                 bnz	_sfree
109fc: 20026b80                 b	free
_ifclose:
10a00: 100e3e04                 st	%blink,[%sp,4]
10a04: 28066800                 bl	__prolog_save17
10a08: 61c00100                 mov.f	%r14,%r0
10a0c: 20000221                 bz.d	0x1_0a20 = _ifclose+0x20
10a10: 51a69a00                 sub	%r13,%r13,%r13
10a14: 0807040c                 ldb	%r0,[%r14,12]
10a18: 67e00100                 mov.f	0,%r0
10a1c: 20000282                 bnz	0x1_0a34 = _ifclose+0x34
10a20: 2806d520                 bl.d	___errno
10a24: 61bffe09                 mov	%r13,9
10a28: 10001a00                 st	%r13,[%r0]
10a2c: 20001ca0                 b.d	0x1_0b14 = _ifclose+0x114
10a30: 623fffff                 mov	%r17,-1
10a34: 67e07a02                 and.f	0,%r0,2
10a38: 20000201                 bz	0x1_0a4c = _ifclose+0x4c
10a3c: 60071c00                 mov	%r0,%r14
10a40: 28003ea0                 bl.d	_ifflush
10a44: 603ffe01                 mov	%r1,1
10a48: 61a00000                 mov	%r13,%r0
10a4c: 0807040c                 ldb	%r0,[%r14,12]
10a50: 67e07a08                 and.f	0,%r0,8
10a54: 20000181                 bz	0x1_0a64 = _ifclose+0x64
10a58: 08270008                 ld	%r1,[%r14,8]
10a5c: 2ffff120                 bl.d	free_mem
10a60: 60071c00                 mov	%r0,%r14
10a64: 601f7c00 00018550        mov	%r0,0x1_8550		; __iob
10a6c: 51e79e00                 sub	%r15,%r15,%r15
10a70: 50070000                 sub	%r0,%r14,%r0
10a74: 1a000200                 asr	%r16,%r0
10a78: 1a080200                 asr	%r16,%r16
10a7c: 1a080200                 asr	%r16,%r16
10a80: 1a080200                 asr	%r16,%r16
10a84: 40287c00 00018940        add	%r1,%r16,0x1_8940		; _iob_fioflag
10a8c: 60007ff0                 and	%r0,%r0,-16
10a90: 10409e00                 stb	%r15,[%r1]
10a94: 42207c00 00018974        add	%r17,%r0,0x1_8974		; _iob_unget
10a9c: 08288008                 ld	%r1,[%r17,8]
10aa0: 67e08300                 mov.f	0,%r1
10aa4: 20000281                 bz	0x1_0abc = _ifclose+0xbc
10aa8: 2fffe7a0                 bl.d	free_mem
10aac: 60071c00                 mov	%r0,%r14
10ab0: 10089e08                 st	%r15,[%r17,8]
10ab4: 10089e0c                 st	%r15,[%r17,12]
10ab8: 10089e04                 st	%r15,[%r17,4]
10abc: 2806c720                 bl.d	close
10ac0: 0807040d                 ldb	%r0,[%r14,13]
10ac4: 42082000                 asl	%r16,%r16
10ac8: 42082000                 asl	%r16,%r16
10acc: 42087c00 00018878        add	%r16,%r16,0x1_8878		; _iob_tmpnam
10ad4: 62200000                 mov	%r17,%r0
10ad8: 08080000                 ld	%r0,[%r16]
10adc: 67e00100                 mov.f	0,%r0
10ae0: 20000281                 bz	0x1_0af8 = _ifclose+0xf8
10ae4: 2806c580                 bl	remove
10ae8: 08280000                 ld	%r1,[%r16]
10aec: 2fffdf20                 bl.d	free_mem
10af0: 60071c00                 mov	%r0,%r14
10af4: 10081e00                 st	%r15,[%r16]
10af8: 10071e04                 st	%r15,[%r14,4]
10afc: 10071e08                 st	%r15,[%r14,8]
10b00: 10071e00                 st	%r15,[%r14]
10b04: 10471e0c                 stb	%r15,[%r14,12]
10b08: 10471e0d                 stb	%r15,[%r14,13]
10b0c: 67e8a300                 mov.f	0,%r17
10b10: 62269a01                 mov.z	%r17,%r13
10b14: 20066ba0                 b.d	__epilog_restore17
10b18: 6008a200                 mov	%r0,%r17
_freefp:
10b1c: 27fce300                 b	_mwdelete_file_lock
fclose:
10b20: 100e3e04                 st	%blink,[%sp,4]
10b24: 28063c80                 bl	__prolog_save14
10b28: 2ffce9a0                 bl.d	_mwlock_file
10b2c: 61c00000                 mov	%r14,%r0
10b30: 2fffd9a0                 bl.d	_ifclose
10b34: 60071c00                 mov	%r0,%r14
10b38: 61a00000                 mov	%r13,%r0
10b3c: 2ffceda0                 bl.d	_mwunlock_file
10b40: 60071c00                 mov	%r0,%r14
10b44: 2ffffaa0                 bl.d	_freefp
10b48: 60071c00                 mov	%r0,%r14
10b4c: 200661a0                 b.d	__epilog_restore14
10b50: 60069a00                 mov	%r0,%r13
_fd_shrd:
10b54: 380f8020                 j.d	[%blink]
10b58: 50000000                 sub	%r0,%r0,%r0
_finit:
10b5c: 100e3e04                 st	%blink,[%sp,4]
10b60: 28063500                 bl	__prolog_save14
10b64: 2fffcda0                 bl.d	_stdio_linked
10b68: 61a00000                 mov	%r13,%r0
10b6c: 0846840c                 ldb	%r2,[%r13,12]
10b70: 67e10500                 mov.f	0,%r2
10b74: 20000282                 bnz	0x1_0b8c = _finit+0x30
10b78: 2806aa20                 bl.d	___errno
10b7c: 61bffe05                 mov	%r13,5
10b80: 10001a00                 st	%r13,[%r0]
10b84: 20065aa0                 b.d	__epilog_restore14
10b88: 601fffff                 mov	%r0,-1
10b8c: 60217a04                 and.f	%r1,%r2,4
10b90: 20000182                 bnz	0x1_0ba0 = _finit+0x44
10b94: 08068008                 ld	%r0,[%r13,8]
10b98: 67e00100                 mov.f	0,%r0
10b9c: 20000101                 bz	0x1_0ba8 = _finit+0x4c
10ba0: 20065720                 b.d	__epilog_restore14
10ba4: 50000000                 sub	%r0,%r0,%r0
10ba8: 601f7c00 00018550        mov	%r0,0x1_8550		; __iob
10bb0: 57e68100                 sub.f	0,%r13,%r0
10bb4: 40007c02 00000010        add.nz	%r0,%r0,16		; 0x10 = GB+14
10bbc: 57e68102                 sub.nz.f	0,%r13,%r0
10bc0: 67e08301                 mov.z.f	0,%r1
10bc4: 20000682                 bnz	0x1_0bfc = _finit+0xa0
10bc8: 2ff00d20                 bl.d	_isatty
10bcc: 0806840d                 ldb	%r0,[%r13,13]
10bd0: 67e00100                 mov.f	0,%r0
10bd4: 20000321                 bz.d	0x1_0bf0 = _finit+0x94
10bd8: 0826840c                 ldb	%r1,[%r13,12]
10bdc: 6000fffb                 and	%r0,%r1,-5
10be0: 18000e00                 extb	%r0,%r0
10be4: 68407e40                 or	%r2,%r0,64
10be8: 20000220                 b.d	0x1_0bfc = _finit+0xa0
10bec: 1046840c                 stb	%r2,[%r13,12]
10bf0: 6000ffbb                 and	%r0,%r1,-69
10bf4: 18400e00                 extb	%r2,%r0
10bf8: 1046800c                 stb	%r0,[%r13,12]
10bfc: 67e17a04                 and.f	0,%r2,4
10c00: 51c71c00                 sub	%r14,%r14,%r14
10c04: 60069a02                 mov.nz	%r0,%r13
10c08: 60271c02                 mov.nz	%r1,%r14
10c0c: 200002a2                 bnz.d	0x1_0c24 = _finit+0xc8
10c10: 60671c02                 mov.nz	%r3,%r14
10c14: 087f0000 00018874        ld	%r3,[0x1_8874]		; _bufsiz_dflt
10c1c: 60069a00                 mov	%r0,%r13
10c20: 60271c00                 mov	%r1,%r14
10c24: 28043700                 bl	setvbuf
10c28: 10069c00                 st	%r14,[%r13]
10c2c: 08268008                 ld	%r1,[%r13,8]
10c30: 20064520                 b.d	__epilog_restore14
10c34: 10068204                 st	%r1,[%r13,4]
_ifflush:
10c38: 100e3e04                 st	%blink,[%sp,4]
10c3c: 28061980                 bl	__prolog_save14
10c40: 61a00000                 mov	%r13,%r0
10c44: 2fffb1a0                 bl.d	_stdio_linked
10c48: 51c71c00                 sub	%r14,%r14,%r14
10c4c: 67e69b00                 mov.f	0,%r13
10c50: 20000102                 bnz	0x1_0c5c = _ifflush+0x24
10c54: 28045180                 bl	_flushall
10c58: 20001200                 b	0x1_0cec = _ifflush+0xb4
10c5c: 2ffcc320                 bl.d	_mwlock_file
10c60: 60069a00                 mov	%r0,%r13
10c64: 0806840c                 ldb	%r0,[%r13,12]
10c68: 67e07a20                 and.f	0,%r0,32
10c6c: 20000101                 bz	0x1_0c78 = _ifflush+0x40
10c70: 20000e20                 b.d	0x1_0ce4 = _ifflush+0xac
10c74: 61dfffff                 mov	%r14,-1
10c78: 67e07a04                 and.f	0,%r0,4
10c7c: 20000c82                 bnz	0x1_0ce4 = _ifflush+0xac
10c80: 67e07a02                 and.f	0,%r0,2
10c84: 20000b81                 bz	0x1_0ce4 = _ifflush+0xac
10c88: 08268008                 ld	%r1,[%r13,8]
10c8c: 08068004                 ld	%r0,[%r13,4]
10c90: 50400300                 sub.f	%r2,%r0,%r1
10c94: 200003a1                 bz.d	0x1_0cb4 = _ifflush+0x7c
10c98: 60071c01                 mov.z	%r0,%r14
10c9c: 2fefc620                 bl.d	_write
10ca0: 0806840d                 ldb	%r0,[%r13,13]
10ca4: 57e07bff                 sub.f	0,%r0,-1
10ca8: 20000101                 bz	0x1_0cb4 = _ifflush+0x7c
10cac: 08268008                 ld	%r1,[%r13,8]
10cb0: 10068204                 st	%r1,[%r13,4]
10cb4: 57e07bff                 sub.f	0,%r0,-1
10cb8: 20000701                 bz	0x1_0cf4 = _ifflush+0xbc
10cbc: 0806840d                 ldb	%r0,[%r13,13]
10cc0: 40000000                 asl	%r0,%r0
10cc4: 40000000                 asl	%r0,%r0
10cc8: 40007c00 00018488        add	%r0,%r0,0x1_8488		; _bufendtab
10cd0: 08268008                 ld	%r1,[%r13,8]
10cd4: 08000000                 ld	%r0,[%r0]
10cd8: 51c71c00                 sub	%r14,%r14,%r14
10cdc: 50000200                 sub	%r0,%r0,%r1
10ce0: 10068000                 st	%r0,[%r13]
10ce4: 2ffcb8a0                 bl.d	_mwunlock_file
10ce8: 60069a00                 mov	%r0,%r13
10cec: 20062da0                 b.d	__epilog_restore14
10cf0: 60071c00                 mov	%r0,%r14
10cf4: 0806840c                 ldb	%r0,[%r13,12]
10cf8: 68007e20                 or	%r0,%r0,32
10cfc: 27ffee20                 b.d	0x1_0c70 = _ifflush+0x38
10d00: 1046800c                 stb	%r0,[%r13,12]
fflush:
10d04: 27ffe620                 b.d	_ifflush
10d08: 50208200                 sub	%r1,%r1,%r1
memset:
10d0c: 18608e00                 extb	%r3,%r1
10d10: 679ffe04                 mov	%lp_count,4
10d14: 60218600                 mov	%r1,%r3
10d18: 30000100                 lp	0x1_0d24 = memset+0x18
10d1c: 40208200                 asl	%r1,%r1
10d20: 40208200                 asl	%r1,%r1
10d24: 68608600                 or	%r3,%r1,%r3
10d28: 679ffe08                 mov	%lp_count,8
10d2c: 60218600                 mov	%r1,%r3
10d30: 30000100                 lp	0x1_0d3c = memset+0x30
10d34: 40208200                 asl	%r1,%r1
10d38: 40208200                 asl	%r1,%r1
10d3c: 57e17a08                 sub.f	0,%r2,8
10d40: 68208600                 or	%r1,%r1,%r3
10d44: 20000725                 bc.d	0x1_0d80 = memset+0x74
10d48: 60800000                 mov	%r4,%r0
10d4c: 20000180                 b	0x1_0d5c = memset+0x50
10d50: 10420200                 stb	%r1,[%r4]
10d54: 40827e01                 add	%r4,%r4,1
10d58: 50417e01                 sub	%r2,%r2,1
10d5c: 67e27a03                 and.f	0,%r4,3
10d60: 27fffd82                 bnz	0x1_0d50 = memset+0x44
10d64: 18610400                 lsr	%r3,%r2
10d68: 18618400                 lsr	%r3,%r3
10d6c: 60417e03                 and	%r2,%r2,3
10d70: 5061fa01                 sub.f	%r3,%r3,1
10d74: 10020200                 st	%r1,[%r4]
10d78: 27fffea2                 bnz.d	0x1_0d70 = memset+0x64
10d7c: 40827e04                 add	%r4,%r4,4
10d80: 67e10500                 mov.f	0,%r2
10d84: 380f8101                 jz.f	[%blink]
10d88: 61810500                 mov.f	%r12,%r2
10d8c: 579f9800                 sub	%lp_count,0,%r12
10d90: 67861803                 mov.p	%lp_count,%r12
10d94: 7fffffff                 nop
10d98: 30000100                 lp	0x1_0da4 = memset+0x98
10d9c: 10420200                 stb	%r1,[%r4]
10da0: 40827e01                 add	%r4,%r4,1
10da4: 380f8100                 j.f	[%blink]
_doatofd:
10da8: 100e3e04                 st	%blink,[%sp,4]
10dac: 280607a0                 bl.d	__prolog_save25sp
10db0: 619ffe68                 mov	%r12,104
10db4: 60600000                 mov	%r3,%r0
10db8: 61a08200                 mov	%r13,%r1
10dbc: 63210400                 mov	%r25,%r2
10dc0: 51e79e00                 sub	%r15,%r15,%r15
10dc4: 100d9ffc                 st	%r15,[%fp,-4]
10dc8: 200001a0                 b.d	0x1_0dd8 = _doatofd+0x30
10dcc: 62c79e00                 mov	%r22,%r15
10dd0: 4001fe01                 add	%r0,%r3,1
10dd4: 60600000                 mov	%r3,%r0
10dd8: 08218400                 ldb	%r1,[%r3]
10ddc: 60ff7c00 000171f4        mov	%r7,0x1_71f4		; __ctype
10de4: 40208e00                 add	%r1,%r1,%r7
10de8: 08208401                 ldb	%r1,[%r1,1]
10dec: 67e0fa08                 and.f	0,%r1,8
10df0: 27fffb82                 bnz	0x1_0dd0 = _doatofd+0x28
10df4: 100d81f8                 st	%r0,[%fp,-8]
10df8: 402dfff8                 add	%r1,%fp,-8
10dfc: 08008000                 ld	%r0,[%r1]
10e00: 530c3000                 sub	%r24,%r24,%r24
10e04: 08400400                 ldb	%r2,[%r0]
10e08: 57e17a2d                 sub.f	0,%r2,45
10e0c: 631f7c01 ffffffff        mov.z	%r24,-1		; 0xffff_ffff = .regmask_lo+0x7fc0000
10e14: 57e17d02 0000002b        sub.nz.f	0,%r2,43		; 0x2b = FMANT_BITS+0x13
10e1c: 20000182                 bnz	0x1_0e2c = _doatofd+0x84
10e20: 40007e01                 add	%r0,%r0,1
10e24: 10008000                 st	%r0,[%r1]
10e28: 086d81f8                 ld	%r3,[%fp,-8]
10e2c: 50410400                 sub	%r2,%r2,%r2
10e30: 088d81f8                 ld	%r4,[%fp,-8]
10e34: 60c18600                 mov	%r6,%r3
10e38: 62610400                 mov	%r19,%r2
10e3c: 60010400                 mov	%r0,%r2
10e40: 20000320                 b.d	0x1_0e5c = _doatofd+0xb4
10e44: 61c10400                 mov	%r14,%r2
10e48: 67e00100                 mov.f	0,%r0
10e4c: 51c77c02 00000001        sub.nz	%r14,%r14,1		; 0x1 = .regmask_lo+1
10e54: 40837e01                 add	%r4,%r6,1
10e58: 60c20800                 mov	%r6,%r4
10e5c: 08a30400                 ldb	%r5,[%r6]
10e60: 67e28b00                 mov.f	0,%r5
10e64: 20000b01                 bz	0x1_0ec0 = _doatofd+0x118
10e68: 41028e00                 add	%r8,%r5,%r7
10e6c: 09040401                 ldb	%r8,[%r8,1]
10e70: 67e47a04                 and.f	0,%r8,4
10e74: 20000701                 bz	0x1_0eb0 = _doatofd+0x108
10e78: 67e10500                 mov.f	0,%r2
10e7c: 20000182                 bnz	0x1_0e8c = _doatofd+0xe4
10e80: 57e2fa30                 sub.f	0,%r5,48
10e84: 27fff801                 bz	0x1_0e48 = _doatofd+0xa0
10e88: 605ffe01                 mov	%r2,1
10e8c: 67e00100                 mov.f	0,%r0
10e90: 41c77c01 00000001        add.z	%r14,%r14,1		; 0x1 = .regmask_lo+1
10e98: 57e9fa11                 sub.f	0,%r19,17
10e9c: 27fff68a                 bge	0x1_0e54 = _doatofd+0xac
10ea0: 408da600                 add	%r4,%fp,%r19
10ea4: 10420bdc                 stb	%r5,[%r4,-36]
10ea8: 27fff520                 b.d	0x1_0e54 = _doatofd+0xac
10eac: 4269fe01                 add	%r19,%r19,1
10eb0: 57e2fa2e                 sub.f	0,%r5,46
10eb4: 67e00101                 mov.z.f	0,%r0
10eb8: 27fff341                 bz.jd	0x1_0e54 = _doatofd+0xac
10ebc: 601ffe01                 mov	%r0,1
10ec0: 100d89f8                 st	%r4,[%fp,-8]
10ec4: 40018000                 add	%r0,%r3,%r0
10ec8: 57e30100                 sub.f	0,%r6,%r0
10ecc: 601f7c01 ffffffff        mov.z	%r0,-1		; 0xffff_ffff = .regmask_lo+0x7fc0000
10ed4: 20004cc1                 bz.jd	0x1_113c = _doatofd+0x394
10ed8: 100d81fc                 st	%r0,[%fp,-4]
10edc: 57e2fa45                 sub.f	0,%r5,69
10ee0: 57e2fd02 00000065        sub.nz.f	0,%r5,101		; 0x65 = DMANT_BITS+0x30
10ee8: 20000682                 bnz	0x1_0f20 = _doatofd+0x178
10eec: 40037e01                 add	%r0,%r6,1
10ef0: 100d81f8                 st	%r0,[%fp,-8]
10ef4: 2ffe9420                 bl.d	_cnvs2i
10ef8: 404dfffc                 add	%r2,%fp,-4
10efc: 60200000                 mov	%r1,%r0
10f00: 080d81fc                 ld	%r0,[%fp,-4]
10f04: 67e00100                 mov.f	0,%r0
10f08: 20000381                 bz	0x1_0f28 = _doatofd+0x180
10f0c: 57e07bff                 sub.f	0,%r0,-1
10f10: 20000282                 bnz	0x1_0f28 = _doatofd+0x180
10f14: 50000000                 sub	%r0,%r0,%r0
10f18: 200001a0                 b.d	0x1_0f28 = _doatofd+0x180
10f1c: 100d81fc                 st	%r0,[%fp,-4]
10f20: 50000000                 sub	%r0,%r0,%r0
10f24: 60200000                 mov	%r1,%r0
10f28: 67e69b00                 mov.f	0,%r13
10f2c: 20000101                 bz	0x1_0f38 = _doatofd+0x190
10f30: 084d81f8                 ld	%r2,[%fp,-8]
10f34: 10068400                 st	%r2,[%r13]
10f38: 42a09c00                 add	%r21,%r1,%r14
10f3c: 57eafd00 fffffecd        sub.f	0,%r21,0xffff_fecd		; 0xffff_fecd = .regmask_lo+0x7fbfece
10f44: 200002cb                 blt.jd	0x1_0f5c = _doatofd+0x1b4
10f48: 601fffff                 mov	%r0,-1
10f4c: 57eafd00 00000135        sub.f	0,%r21,0x135		; 0x135 = FEXP_MAX+0x36
10f54: 2000010c                 ble	0x1_0f60 = _doatofd+0x1b8
10f58: 601ffe01                 mov	%r0,1
10f5c: 100d81fc                 st	%r0,[%fp,-4]
10f60: 67e00100                 mov.f	0,%r0
10f64: 20000681                 bz	0x1_0f9c = _doatofd+0x1f4
10f68: 57e07a00                 sub.f	0,%r0,0
10f6c: 2000348b                 blt	0x1_1114 = _doatofd+0x36c
10f70: 67ec3100                 mov.f	0,%r24
10f74: 601f7c00 00018e44        mov	%r0,0x1_8e44		; _fphuge
10f7c: 200002a1                 bz.d	0x1_0f94 = _doatofd+0x1ec
10f80: 0ac00000                 ld	%r22,[%r0]
10f84: 08000004                 ld	%r0,[%r0,4]
10f88: 79e07c00 80000000        xor	%r15,%r0,0x8000_0000		; .regmask_lo
10f90: 20003000                 b	0x1_1114 = _doatofd+0x36c
10f94: 20002fa0                 b.d	0x1_1114 = _doatofd+0x36c
10f98: 09e00004                 ld	%r15,[%r0,4]
10f9c: 422dffdc                 add	%r17,%fp,-36
10fa0: 67e9a700                 mov.f	0,%r19
10fa4: 61cb2c01                 mov.z	%r14,%r22
10fa8: 200017a1                 bz.d	0x1_1068 = _doatofd+0x2c0
10fac: 62079e01                 mov.z	%r16,%r15
10fb0: 62ff7c00 00018e38        mov	%r23,0x1_8e38		; 0x1_8e38 = blen.L62+0x30
10fb8: 61cb2c00                 mov	%r14,%r22
10fbc: 62079e00                 mov	%r16,%r15
10fc0: 57e9fa08                 sub.f	0,%r19,8
10fc4: 61a9a60e                 mov.ls	%r13,%r19
10fc8: 61bf7c0d 00000008        mov.hi	%r13,8		; 0x8 = GB+6
10fd0: 02489a02                 ldb	%r18,[%r17,%r13]
10fd4: 50000000                 sub	%r0,%r0,%r0
10fd8: 41889a00                 add	%r12,%r17,%r13
10fdc: 10460000                 stb	%r0,[%r12]
10fe0: 6008a200                 mov	%r0,%r17
10fe4: 50208200                 sub	%r1,%r1,%r1
10fe8: 2ffe63a0                 bl.d	_cnvs2u
10fec: 60408200                 mov	%r2,%r1
10ff0: 62800000                 mov	%r20,%r0
10ff4: 60087c00 7fffffff        and	%r0,%r16,0x7fff_ffff		; 0x7fff_ffff = .regmask_lo+0x63fffffc
10ffc: 68001d00                 or.f	%r0,%r0,%r14
11000: 20000601                 bz	0x1_1034 = _doatofd+0x28c
11004: 40269a00                 asl	%r1,%r13
11008: 40208200                 asl	%r1,%r1
1100c: 40208200                 asl	%r1,%r1
11010: 400bff00                 add	%r0,%r23,-256
11014: 40200200                 add	%r1,%r0,%r1
11018: 08008000                 ld	%r0,[%r1]
1101c: 08208004                 ld	%r1,[%r1,4]
11020: 60471c00                 mov	%r2,%r14
11024: 2806c9a0                 bl.d	full_entry
11028: 60682000                 mov	%r3,%r16
1102c: 61c00000                 mov	%r14,%r0
11030: 62008200                 mov	%r16,%r1
11034: 280758a0                 bl.d	_mwdfltu_
11038: 600a2800                 mov	%r0,%r20
1103c: 60471c00                 mov	%r2,%r14
11040: 28077620                 bl.d	_mwdadd_
11044: 60682000                 mov	%r3,%r16
11048: 61c00000                 mov	%r14,%r0
1104c: 62008200                 mov	%r16,%r1
11050: 41889a00                 add	%r12,%r17,%r13
11054: 10462400                 stb	%r18,[%r12]
11058: 52699b00                 sub.f	%r19,%r19,%r13
1105c: 4226a200                 add	%r17,%r13,%r17
11060: 27ffeba2                 bnz.d	0x1_0fc0 = _doatofd+0x218
11064: 52aa9a00                 sub	%r21,%r21,%r13
11068: 60087c00 7fffffff        and	%r0,%r16,0x7fff_ffff		; 0x7fff_ffff = .regmask_lo+0x63fffffc
11070: 68001d00                 or.f	%r0,%r0,%r14
11074: 200016a1                 bz.d	0x1_112c = _doatofd+0x384
11078: 62c71c01                 mov.z	%r22,%r14
1107c: 57eafa00                 sub.f	0,%r21,0
11080: 20000a0a                 bge	0x1_10d4 = _doatofd+0x32c
11084: 57eafd00 fffffecd        sub.f	0,%r21,0xffff_fecd		; 0xffff_fecd = .regmask_lo+0x7fbfece
1108c: 2000058a                 bge	0x1_10bc = _doatofd+0x314
11090: 61bf7c00 fffffecd        mov	%r13,0xffff_fecd		; 0xffff_fecd = .regmask_lo+0x7fbfece
11098: 501f2a00 fffffecd        sub	%r0,0xffff_fecd,%r21		; 0xffff_fecd = .regmask_lo+0x7fbfece
110a0: 280469a0                 bl.d	_pow10d
110a4: 62a69a00                 mov	%r21,%r13
110a8: 60471c00                 mov	%r2,%r14
110ac: 28081c20                 bl.d	_mwdrdiv_
110b0: 60682000                 mov	%r3,%r16
110b4: 61c00000                 mov	%r14,%r0
110b8: 62008200                 mov	%r16,%r1
110bc: 28046620                 bl.d	_pow10d
110c0: 501faa00                 sub	%r0,0,%r21
110c4: 60471c00                 mov	%r2,%r14
110c8: 280818a0                 bl.d	_mwdrdiv_
110cc: 60682000                 mov	%r3,%r16
110d0: 20000380                 b	0x1_10f0 = _doatofd+0x348
110d4: 67eaab00                 mov.f	0,%r21
110d8: 20000381                 bz	0x1_10f8 = _doatofd+0x350
110dc: 28046220                 bl.d	_pow10d
110e0: 600aaa00                 mov	%r0,%r21
110e4: 60471c00                 mov	%r2,%r14
110e8: 2806b120                 bl.d	full_entry
110ec: 60682000                 mov	%r3,%r16
110f0: 61c00000                 mov	%r14,%r0
110f4: 62008200                 mov	%r16,%r1
110f8: 60071c00                 mov	%r0,%r14
110fc: 60282000                 mov	%r1,%r16
11100: 607f7c00 00100000        mov	%r3,0x10_0000		; DHIDDEN_BIT
11108: 2808b8a0                 bl.d	__dcmp
1110c: 50410400                 sub	%r2,%r2,%r2
11110: 2000018a                 bge	0x1_1120 = _doatofd+0x378
11114: 601ffe22                 mov	%r0,34
11118: 20000420                 b.d	0x1_113c = _doatofd+0x394
1111c: 100d81fc                 st	%r0,[%fp,-4]
11120: 67ec3100                 mov.f	0,%r24
11124: 200001a2                 bnz.d	0x1_1134 = _doatofd+0x38c
11128: 62c71c00                 mov	%r22,%r14
1112c: 200001a0                 b.d	0x1_113c = _doatofd+0x394
11130: 61e82000                 mov	%r15,%r16
11134: 79e87c00 80000000        xor	%r15,%r16,0x8000_0000		; .regmask_lo
1113c: 67ecb300                 mov.f	0,%r25
11140: 20000101                 bz	0x1_114c = _doatofd+0x3a4
11144: 080d81fc                 ld	%r0,[%fp,-4]
11148: 100c8000                 st	%r0,[%r25]
1114c: 600b2c00                 mov	%r0,%r22
11150: 60279e00                 mov	%r1,%r15
11154: 2005ada0                 b.d	__epilog_load25
11158: 619ffe68                 mov	%r12,104
_doatof:
1115c: 100e3e04                 st	%blink,[%sp,4]
11160: 28059120                 bl.d	__prolog_save25sp
11164: 619ffe68                 mov	%r12,104
11168: 60600000                 mov	%r3,%r0
1116c: 61a08200                 mov	%r13,%r1
11170: 63210400                 mov	%r25,%r2
11174: 51e79e00                 sub	%r15,%r15,%r15
11178: 100d9ffc                 st	%r15,[%fp,-4]
1117c: 200001a0                 b.d	0x1_118c = _doatof+0x30
11180: 62c79e00                 mov	%r22,%r15
11184: 4001fe01                 add	%r0,%r3,1
11188: 60600000                 mov	%r3,%r0
1118c: 08218400                 ldb	%r1,[%r3]
11190: 60ff7c00 000171f4        mov	%r7,0x1_71f4		; __ctype
11198: 40208e00                 add	%r1,%r1,%r7
1119c: 08208401                 ldb	%r1,[%r1,1]
111a0: 67e0fa08                 and.f	0,%r1,8
111a4: 27fffb82                 bnz	0x1_1184 = _doatof+0x28
111a8: 100d81f8                 st	%r0,[%fp,-8]
111ac: 402dfff8                 add	%r1,%fp,-8
111b0: 08008000                 ld	%r0,[%r1]
111b4: 530c3000                 sub	%r24,%r24,%r24
111b8: 08400400                 ldb	%r2,[%r0]
111bc: 57e17a2d                 sub.f	0,%r2,45
111c0: 631f7c01 ffffffff        mov.z	%r24,-1		; 0xffff_ffff = .regmask_lo+0x7fc0000
111c8: 57e17d02 0000002b        sub.nz.f	0,%r2,43		; 0x2b = FMANT_BITS+0x13
111d0: 20000182                 bnz	0x1_11e0 = _doatof+0x84
111d4: 40007e01                 add	%r0,%r0,1
111d8: 10008000                 st	%r0,[%r1]
111dc: 086d81f8                 ld	%r3,[%fp,-8]
111e0: 50410400                 sub	%r2,%r2,%r2
111e4: 088d81f8                 ld	%r4,[%fp,-8]
111e8: 60c18600                 mov	%r6,%r3
111ec: 62610400                 mov	%r19,%r2
111f0: 60010400                 mov	%r0,%r2
111f4: 20000320                 b.d	0x1_1210 = _doatof+0xb4
111f8: 61c10400                 mov	%r14,%r2
111fc: 67e00100                 mov.f	0,%r0
11200: 51c77c02 00000001        sub.nz	%r14,%r14,1		; 0x1 = .regmask_lo+1
11208: 40837e01                 add	%r4,%r6,1
1120c: 60c20800                 mov	%r6,%r4
11210: 08a30400                 ldb	%r5,[%r6]
11214: 67e28b00                 mov.f	0,%r5
11218: 20000b01                 bz	0x1_1274 = _doatof+0x118
1121c: 41028e00                 add	%r8,%r5,%r7
11220: 09040401                 ldb	%r8,[%r8,1]
11224: 67e47a04                 and.f	0,%r8,4
11228: 20000701                 bz	0x1_1264 = _doatof+0x108
1122c: 67e10500                 mov.f	0,%r2
11230: 20000182                 bnz	0x1_1240 = _doatof+0xe4
11234: 57e2fa30                 sub.f	0,%r5,48
11238: 27fff801                 bz	0x1_11fc = _doatof+0xa0
1123c: 605ffe01                 mov	%r2,1
11240: 67e00100                 mov.f	0,%r0
11244: 41c77c01 00000001        add.z	%r14,%r14,1		; 0x1 = .regmask_lo+1
1124c: 57e9fa11                 sub.f	0,%r19,17
11250: 27fff68a                 bge	0x1_1208 = _doatof+0xac
11254: 408da600                 add	%r4,%fp,%r19
11258: 10420bdc                 stb	%r5,[%r4,-36]
1125c: 27fff520                 b.d	0x1_1208 = _doatof+0xac
11260: 4269fe01                 add	%r19,%r19,1
11264: 57e2fa2e                 sub.f	0,%r5,46
11268: 67e00101                 mov.z.f	0,%r0
1126c: 27fff341                 bz.jd	0x1_1208 = _doatof+0xac
11270: 601ffe01                 mov	%r0,1
11274: 100d89f8                 st	%r4,[%fp,-8]
11278: 40018000                 add	%r0,%r3,%r0
1127c: 57e30100                 sub.f	0,%r6,%r0
11280: 601f7c01 ffffffff        mov.z	%r0,-1		; 0xffff_ffff = .regmask_lo+0x7fc0000
11288: 20004cc1                 bz.jd	0x1_14f0 = _doatof+0x394
1128c: 100d81fc                 st	%r0,[%fp,-4]
11290: 57e2fa45                 sub.f	0,%r5,69
11294: 57e2fd02 00000065        sub.nz.f	0,%r5,101		; 0x65 = DMANT_BITS+0x30
1129c: 20000682                 bnz	0x1_12d4 = _doatof+0x178
112a0: 40037e01                 add	%r0,%r6,1
112a4: 100d81f8                 st	%r0,[%fp,-8]
112a8: 2ffe1da0                 bl.d	_cnvs2i
112ac: 404dfffc                 add	%r2,%fp,-4
112b0: 60200000                 mov	%r1,%r0
112b4: 080d81fc                 ld	%r0,[%fp,-4]
112b8: 67e00100                 mov.f	0,%r0
112bc: 20000381                 bz	0x1_12dc = _doatof+0x180
112c0: 57e07bff                 sub.f	0,%r0,-1
112c4: 20000282                 bnz	0x1_12dc = _doatof+0x180
112c8: 50000000                 sub	%r0,%r0,%r0
112cc: 200001a0                 b.d	0x1_12dc = _doatof+0x180
112d0: 100d81fc                 st	%r0,[%fp,-4]
112d4: 50000000                 sub	%r0,%r0,%r0
112d8: 60200000                 mov	%r1,%r0
112dc: 67e69b00                 mov.f	0,%r13
112e0: 20000101                 bz	0x1_12ec = _doatof+0x190
112e4: 084d81f8                 ld	%r2,[%fp,-8]
112e8: 10068400                 st	%r2,[%r13]
112ec: 42a09c00                 add	%r21,%r1,%r14
112f0: 57eafd00 fffffecd        sub.f	0,%r21,0xffff_fecd		; 0xffff_fecd = .regmask_lo+0x7fbfece
112f8: 200002cb                 blt.jd	0x1_1310 = _doatof+0x1b4
112fc: 601fffff                 mov	%r0,-1
11300: 57eafd00 00000135        sub.f	0,%r21,0x135		; 0x135 = FEXP_MAX+0x36
11308: 2000010c                 ble	0x1_1314 = _doatof+0x1b8
1130c: 601ffe01                 mov	%r0,1
11310: 100d81fc                 st	%r0,[%fp,-4]
11314: 67e00100                 mov.f	0,%r0
11318: 20000681                 bz	0x1_1350 = _doatof+0x1f4
1131c: 57e07a00                 sub.f	0,%r0,0
11320: 2000348b                 blt	0x1_14c8 = _doatof+0x36c
11324: 67ec3100                 mov.f	0,%r24
11328: 601f7c00 00018e44        mov	%r0,0x1_8e44		; _fphuge
11330: 200002a1                 bz.d	0x1_1348 = _doatof+0x1ec
11334: 0ac00000                 ld	%r22,[%r0]
11338: 08000004                 ld	%r0,[%r0,4]
1133c: 79e07c00 80000000        xor	%r15,%r0,0x8000_0000		; .regmask_lo
11344: 20003000                 b	0x1_14c8 = _doatof+0x36c
11348: 20002fa0                 b.d	0x1_14c8 = _doatof+0x36c
1134c: 09e00004                 ld	%r15,[%r0,4]
11350: 422dffdc                 add	%r17,%fp,-36
11354: 67e9a700                 mov.f	0,%r19
11358: 61cb2c01                 mov.z	%r14,%r22
1135c: 200017a1                 bz.d	0x1_141c = _doatof+0x2c0
11360: 62079e01                 mov.z	%r16,%r15
11364: 62ff7c00 00018e88        mov	%r23,0x1_8e88		; _fpminf
1136c: 61cb2c00                 mov	%r14,%r22
11370: 62079e00                 mov	%r16,%r15
11374: 57e9fa08                 sub.f	0,%r19,8
11378: 61a9a60e                 mov.ls	%r13,%r19
1137c: 61bf7c0d 00000008        mov.hi	%r13,8		; 0x8 = GB+6
11384: 02489a02                 ldb	%r18,[%r17,%r13]
11388: 50000000                 sub	%r0,%r0,%r0
1138c: 41889a00                 add	%r12,%r17,%r13
11390: 10460000                 stb	%r0,[%r12]
11394: 6008a200                 mov	%r0,%r17
11398: 50208200                 sub	%r1,%r1,%r1
1139c: 2ffded20                 bl.d	_cnvs2u
113a0: 60408200                 mov	%r2,%r1
113a4: 62800000                 mov	%r20,%r0
113a8: 60087c00 7fffffff        and	%r0,%r16,0x7fff_ffff		; 0x7fff_ffff = .regmask_lo+0x63fffffc
113b0: 68001d00                 or.f	%r0,%r0,%r14
113b4: 20000601                 bz	0x1_13e8 = _doatof+0x28c
113b8: 40269a00                 asl	%r1,%r13
113bc: 40208200                 asl	%r1,%r1
113c0: 40208200                 asl	%r1,%r1
113c4: 400bff00                 add	%r0,%r23,-256
113c8: 40200200                 add	%r1,%r0,%r1
113cc: 08008000                 ld	%r0,[%r1]
113d0: 08208004                 ld	%r1,[%r1,4]
113d4: 60471c00                 mov	%r2,%r14
113d8: 28065320                 bl.d	full_entry
113dc: 60682000                 mov	%r3,%r16
113e0: 61c00000                 mov	%r14,%r0
113e4: 62008200                 mov	%r16,%r1
113e8: 2806e220                 bl.d	_mwdfltu_
113ec: 600a2800                 mov	%r0,%r20
113f0: 60471c00                 mov	%r2,%r14
113f4: 2806ffa0                 bl.d	_mwdadd_
113f8: 60682000                 mov	%r3,%r16
113fc: 61c00000                 mov	%r14,%r0
11400: 62008200                 mov	%r16,%r1
11404: 41889a00                 add	%r12,%r17,%r13
11408: 10462400                 stb	%r18,[%r12]
1140c: 52699b00                 sub.f	%r19,%r19,%r13
11410: 4226a200                 add	%r17,%r13,%r17
11414: 27ffeba2                 bnz.d	0x1_1374 = _doatof+0x218
11418: 52aa9a00                 sub	%r21,%r21,%r13
1141c: 60087c00 7fffffff        and	%r0,%r16,0x7fff_ffff		; 0x7fff_ffff = .regmask_lo+0x63fffffc
11424: 68001d00                 or.f	%r0,%r0,%r14
11428: 200016a1                 bz.d	0x1_14e0 = _doatof+0x384
1142c: 62c71c01                 mov.z	%r22,%r14
11430: 57eafa00                 sub.f	0,%r21,0
11434: 20000a0a                 bge	0x1_1488 = _doatof+0x32c
11438: 57eafd00 fffffecd        sub.f	0,%r21,0xffff_fecd		; 0xffff_fecd = .regmask_lo+0x7fbfece
11440: 2000058a                 bge	0x1_1470 = _doatof+0x314
11444: 61bf7c00 fffffecd        mov	%r13,0xffff_fecd		; 0xffff_fecd = .regmask_lo+0x7fbfece
1144c: 501f2a00 fffffecd        sub	%r0,0xffff_fecd,%r21		; 0xffff_fecd = .regmask_lo+0x7fbfece
11454: 28040220                 bl.d	_pow10
11458: 62a69a00                 mov	%r21,%r13
1145c: 60471c00                 mov	%r2,%r14
11460: 2807a5a0                 bl.d	_mwdrdiv_
11464: 60682000                 mov	%r3,%r16
11468: 61c00000                 mov	%r14,%r0
1146c: 62008200                 mov	%r16,%r1
11470: 2803fea0                 bl.d	_pow10
11474: 501faa00                 sub	%r0,0,%r21
11478: 60471c00                 mov	%r2,%r14
1147c: 2807a220                 bl.d	_mwdrdiv_
11480: 60682000                 mov	%r3,%r16
11484: 20000380                 b	0x1_14a4 = _doatof+0x348
11488: 67eaab00                 mov.f	0,%r21
1148c: 20000381                 bz	0x1_14ac = _doatof+0x350
11490: 2803faa0                 bl.d	_pow10
11494: 600aaa00                 mov	%r0,%r21
11498: 60471c00                 mov	%r2,%r14
1149c: 28063aa0                 bl.d	full_entry
114a0: 60682000                 mov	%r3,%r16
114a4: 61c00000                 mov	%r14,%r0
114a8: 62008200                 mov	%r16,%r1
114ac: 60071c00                 mov	%r0,%r14
114b0: 60282000                 mov	%r1,%r16
114b4: 607f7c00 00100000        mov	%r3,0x10_0000		; DHIDDEN_BIT
114bc: 28084220                 bl.d	__dcmp
114c0: 50410400                 sub	%r2,%r2,%r2
114c4: 2000018a                 bge	0x1_14d4 = _doatof+0x378
114c8: 601ffe22                 mov	%r0,34
114cc: 20000420                 b.d	0x1_14f0 = _doatof+0x394
114d0: 100d81fc                 st	%r0,[%fp,-4]
114d4: 67ec3100                 mov.f	0,%r24
114d8: 200001a2                 bnz.d	0x1_14e8 = _doatof+0x38c
114dc: 62c71c00                 mov	%r22,%r14
114e0: 200001a0                 b.d	0x1_14f0 = _doatof+0x394
114e4: 61e82000                 mov	%r15,%r16
114e8: 79e87c00 80000000        xor	%r15,%r16,0x8000_0000		; .regmask_lo
114f0: 67ecb300                 mov.f	0,%r25
114f4: 20000101                 bz	0x1_1500 = _doatof+0x3a4
114f8: 080d81fc                 ld	%r0,[%fp,-4]
114fc: 100c8000                 st	%r0,[%r25]
11500: 600b2c00                 mov	%r0,%r22
11504: 60279e00                 mov	%r1,%r15
11508: 20053720                 b.d	__epilog_load25
1150c: 619ffe68                 mov	%r12,104
_smalloc:
11510: 20018a80                 b	malloc
_sfree:
11514: 20010880                 b	free
bad_free:
11518: 100e3e04                 st	%blink,[%sp,4]
1151c: 2804f8a0                 bl.d	__prolog_save0
11520: 60400000                 mov	%r2,%r0
11524: 601f7c00 00017400        mov	%r0,0x1_7400		; 0x1_7400 = _ctype+0x20c
1152c: 28041f80                 bl	_rterr_printf
11530: 081f0000 00018df4        ld	%r0,[0x1_8df4]		; _mwheap_lock
11538: 28057680                 bl	_mwmutex_unlock
1153c: 20042400                 b	abort
bucket_for:
11540: 603f7c00 00019644        mov	%r1,0x1_9644		; 0x1_9644 = _sigtbl+0x30
11548: 57e07d00 00000200        sub.f	0,%r0,0x200		; 0x200 = FEXP_MAX+0x101
11550: 20000b8d                 bhi	0x1_15b0 = bucket_for+0x70
11554: 57e07a40                 sub.f	0,%r0,64
11558: 2000060d                 bhi	0x1_158c = bucket_for+0x4c
1155c: 57e07a10                 sub.f	0,%r0,16
11560: 2000028d                 bhi	0x1_1578 = bucket_for+0x38
11564: 57e07a08                 sub.f	0,%r0,8
11568: 380f802e                 jls.d	[%blink]
1156c: 4000ff00                 add	%r0,%r1,-256
11570: 380f8020                 j.d	[%blink]
11574: 4000ff10                 add	%r0,%r1,-240
11578: 57e07a20                 sub.f	0,%r0,32
1157c: 380f802e                 jls.d	[%blink]
11580: 4000ff20                 add	%r0,%r1,-224
11584: 380f8020                 j.d	[%blink]
11588: 4000ff30                 add	%r0,%r1,-208
1158c: 57e07a80                 sub.f	0,%r0,128
11590: 380f804e                 jls.jd	[%blink]
11594: 4000ff40                 add	%r0,%r1,-192
11598: 57e07d00 00000100        sub.f	0,%r0,0x100		; 0x100 = FEXP_MAX+1
115a0: 380f802e                 jls.d	[%blink]
115a4: 4000ff50                 add	%r0,%r1,-176
115a8: 380f8020                 j.d	[%blink]
115ac: 4000ff60                 add	%r0,%r1,-160
115b0: 57e07d00 00001000        sub.f	0,%r0,0x1000		; 0x1000 = DEXP_MAX+0x801
115b8: 2000050d                 bhi	0x1_15e4 = bucket_for+0xa4
115bc: 57e07d00 00000400        sub.f	0,%r0,0x400		; 0x400 = DEXP_BIAS+1
115c4: 380f804e                 jls.jd	[%blink]
115c8: 4000ff70                 add	%r0,%r1,-144
115cc: 57e07d00 00000800        sub.f	0,%r0,0x800		; 0x800 = DEXP_MAX+1
115d4: 380f802e                 jls.d	[%blink]
115d8: 4000ff80                 add	%r0,%r1,-128
115dc: 380f8020                 j.d	[%blink]
115e0: 4000ff90                 add	%r0,%r1,-112
115e4: 57e07d00 00002000        sub.f	0,%r0,0x2000		; _HEAPSIZE
115ec: 380f804e                 jls.jd	[%blink]
115f0: 4000ffa0                 add	%r0,%r1,-96
115f4: 57e07d00 00007d00        sub.f	0,%r0,0x7d00		; 0x7d00 = _STACKSIZE+0x3d00
115fc: 380f802e                 jls.d	[%blink]
11600: 4000ffb0                 add	%r0,%r1,-80
11604: 4000ffc0                 add	%r0,%r1,-64
11608: 380f8000                 j	[%blink]
print_item:
1160c: 100e3e04                 st	%blink,[%sp,4]
11610: 2804e180                 bl	__prolog_save15
11614: 61e00000                 mov	%r15,%r0
11618: 08000000                 ld	%r0,[%r0]
1161c: 61bf7c00 00017500        mov	%r13,0x1_7500		; 0x1_7500 = _ctype+0x30c
11624: 61c07a01                 and.f	%r14,%r0,1
11628: 20000181                 bz	0x1_1638 = print_item+0x2c
1162c: 0827800c                 ld	%r1,[%r15,12]
11630: 2803ff20                 bl.d	_rterr_printf
11634: 4006ff20                 add	%r0,%r13,-224
11638: 081f0000 00018de4        ld	%r0,[0x1_8de4]		; _malloc_level
11640: 57e07a00                 sub.f	0,%r0,0
11644: 2000018c                 ble	0x1_1654 = print_item+0x48
11648: 08278004                 ld	%r1,[%r15,4]
1164c: 2803fba0                 bl.d	_rterr_printf
11650: 4006ff2c                 add	%r0,%r13,-212
11654: 08478000                 ld	%r2,[%r15]
11658: 4006ff33                 add	%r0,%r13,-205
1165c: 2803f9a0                 bl.d	_rterr_printf
11660: 60279e00                 mov	%r1,%r15
11664: 67e71d00                 mov.f	0,%r14
11668: 2004ff01                 bz	__epilog_restore15
1166c: 08278008                 ld	%r1,[%r15,8]
11670: 2803f720                 bl.d	_rterr_printf
11674: 4006ff3f                 add	%r0,%r13,-193
11678: 2004fd00                 b	__epilog_restore15
print_segment:
1167c: 100e3e04                 st	%blink,[%sp,4]
11680: 2804d100                 bl	__prolog_save14
11684: 08200000                 ld	%r1,[%r0]
11688: 08600008                 ld	%r3,[%r0,8]
1168c: 61c00000                 mov	%r14,%r0
11690: 08a00004                 ld	%r5,[%r0,4]
11694: 08c0000c                 ld	%r6,[%r0,12]
11698: 60471c00                 mov	%r2,%r14
1169c: 61bf7c00 00017500        mov	%r13,0x1_7500		; 0x1_7500 = _ctype+0x30c
116a4: 4006ff4a                 add	%r0,%r13,-182
116a8: 2803f020                 bl.d	_rterr_printf
116ac: 60818600                 mov	%r4,%r3
116b0: 4006ff7c                 add	%r0,%r13,-132
116b4: 60271c00                 mov	%r1,%r14
116b8: 40477e08                 add	%r2,%r14,8
116bc: 40677e04                 add	%r3,%r14,4
116c0: 2803ed20                 bl.d	_rterr_printf
116c4: 40877e0c                 add	%r4,%r14,12
116c8: 2004f200                 b	__epilog_restore14
display_item:
116cc: 100e3e04                 st	%blink,[%sp,4]
116d0: 2804c480                 bl	__prolog_save13
116d4: 61a00000                 mov	%r13,%r0
116d8: 601f7c00 000174a9        mov	%r0,0x1_74a9		; 0x1_74a9 = _ctype+0x2b5
116e0: 2803e900                 bl	_rterr_printf
116e4: 2fffe4a0                 bl.d	print_item
116e8: 60069a00                 mov	%r0,%r13
116ec: 2004ec80                 b	__epilog_restore13
_dump_heap._Yield_2:
116f0: 100e3e04                 st	%blink,[%sp,4]
116f4: 2804bd80                 bl	__prolog_save0
116f8: 28024400                 bl	display_segment
116fc: 2004e980                 b	__epilog_restore0
_dump_heap:
11700: 100e3e04                 st	%blink,[%sp,4]
11704: 2804c800                 bl	__prolog_save17
11708: 61ff7c00 00017500        mov	%r15,0x1_7500		; 0x1_7500 = _ctype+0x30c
11710: 2803e320                 bl.d	_rterr_printf
11714: 4007ffaf                 add	%r0,%r15,-81
11718: 601f7c00 000045bc        mov	%r0,0x45bc		; 0x45bc = _STACKSIZE+0x5bc
11720: 28024920                 bl.d	each_segment
11724: 602db600                 mov	%r1,%fp
11728: 51a69a00                 sub	%r13,%r13,%r13
1172c: 621ffe0d                 mov	%r16,13
11730: 61df7c00 00019644        mov	%r14,0x1_9644		; 0x1_9644 = _sigtbl+0x30
11738: 62269a00                 mov	%r17,%r13
1173c: 4028a200                 asl	%r1,%r17
11740: 40208200                 asl	%r1,%r1
11744: 40208200                 asl	%r1,%r1
11748: 40077f08                 add	%r0,%r14,-248
1174c: 40208200                 asl	%r1,%r1
11750: 40000200                 add	%r0,%r0,%r1
11754: 08000000                 ld	%r0,[%r0]
11758: 08000000                 ld	%r0,[%r0]
1175c: 67e00100                 mov.f	0,%r0
11760: 20000402                 bnz	0x1_1784 = _dump_heap+0x84
11764: 67e69b00                 mov.f	0,%r13
11768: 20000182                 bnz	0x1_1778 = _dump_heap+0x78
1176c: 2803d7a0                 bl.d	_rterr_printf
11770: 4007ffbf                 add	%r0,%r15,-65
11774: 61bffe01                 mov	%r13,1
11778: 4007ffe6                 add	%r0,%r15,-26
1177c: 2803d5a0                 bl.d	_rterr_printf
11780: 6028a200                 mov	%r1,%r17
11784: 52087e01                 sub	%r16,%r16,1
11788: 57e87a00                 sub.f	0,%r16,0
1178c: 27fff5ad                 bhi.d	0x1_173c = _dump_heap+0x3c
11790: 4228fe01                 add	%r17,%r17,1
11794: 67e69b00                 mov.f	0,%r13
11798: 2803d242                 blnz.jd	_rterr_printf
1179c: 4007ffea                 add	%r0,%r15,-22
117a0: 51a69a00                 sub	%r13,%r13,%r13
117a4: 61dffe0d                 mov	%r14,13
117a8: 621f7c00 00019644        mov	%r16,0x1_9644		; 0x1_9644 = _sigtbl+0x30
117b0: 40269a00                 asl	%r1,%r13
117b4: 40208200                 asl	%r1,%r1
117b8: 40208200                 asl	%r1,%r1
117bc: 40087f08                 add	%r0,%r16,-248
117c0: 40208200                 asl	%r1,%r1
117c4: 40000200                 add	%r0,%r0,%r1
117c8: 0a200000                 ld	%r17,[%r0]
117cc: 08088000                 ld	%r0,[%r17]
117d0: 67e00100                 mov.f	0,%r0
117d4: 20000701                 bz	0x1_1810 = _dump_heap+0x110
117d8: 4007ffec                 add	%r0,%r15,-20
117dc: 2803c9a0                 bl.d	_rterr_printf
117e0: 60269a00                 mov	%r1,%r13
117e4: 20000380                 b	0x1_1804 = _dump_heap+0x104
117e8: 2803c820                 bl.d	_rterr_printf
117ec: 4007fe0a                 add	%r0,%r15,10
117f0: 2fffdb20                 bl.d	display_item
117f4: 6008a200                 mov	%r0,%r17
117f8: 2803c620                 bl.d	_rterr_printf
117fc: 4007ffea                 add	%r0,%r15,-22
11800: 0a288008                 ld	%r17,[%r17,8]
11804: 08088000                 ld	%r0,[%r17]
11808: 67e00100                 mov.f	0,%r0
1180c: 27fffb02                 bnz	0x1_17e8 = _dump_heap+0xe8
11810: 51c77e01                 sub	%r14,%r14,1
11814: 57e77a00                 sub.f	0,%r14,0
11818: 2004cb2e                 bls.d	__epilog_restore17
1181c: 41a6fe01                 add	%r13,%r13,1
11820: 27fff180                 b	0x1_17b0 = _dump_heap+0xb0
corrupt:
11824: 100e3e04                 st	%blink,[%sp,4]
11828: 2804a120                 bl.d	__prolog_save16
1182c: 60600000                 mov	%r3,%r0
11830: 61df7c00 00018ed8        mov	%r14,0x1_8ed8		; _fpmaxl
11838: 08070518                 ldb	%r0,[%r14,-232]
1183c: 62008200                 mov	%r16,%r1
11840: 67e00100                 mov.f	0,%r0
11844: 61bf7c00 00017500        mov	%r13,0x1_7500		; 0x1_7500 = _ctype+0x30c
1184c: 20000221                 bz.d	0x1_1860 = corrupt+0x3c
11850: 61e10400                 mov	%r15,%r2
11854: 2803baa0                 bl.d	_rterr_printf
11858: 4006fe0c                 add	%r0,%r13,12
1185c: 2003c000                 b	abort
11860: 601ffe01                 mov	%r0,1
11864: 10470118                 stb	%r0,[%r14,-232]
11868: 4006fe3d                 add	%r0,%r13,61
1186c: 2803b7a0                 bl.d	_rterr_printf
11870: 60218600                 mov	%r1,%r3
11874: 2fffb2a0                 bl.d	print_item
11878: 60082000                 mov	%r0,%r16
1187c: 2803b5a0                 bl.d	_rterr_printf
11880: 4006fe58                 add	%r0,%r13,88
11884: 2fffbea0                 bl.d	print_segment
11888: 60079e00                 mov	%r0,%r15
1188c: 2803b3a0                 bl.d	_rterr_printf
11890: 4006ffea                 add	%r0,%r13,-22
11894: 0807010c                 ld	%r0,[%r14,-244]
11898: 57e07a03                 sub.f	0,%r0,3
1189c: 2000028c                 ble	0x1_18b4 = corrupt+0x90
118a0: 601ffe02                 mov	%r0,2
118a4: 1007010c                 st	%r0,[%r14,-244]
118a8: 2803b020                 bl.d	_rterr_printf
118ac: 4006fe65                 add	%r0,%r13,101
118b0: 2fffc980                 bl	_dump_heap
118b4: 28050720                 bl.d	_mwmutex_unlock
118b8: 0807011c                 ld	%r0,[%r14,-228]
118bc: 2003b400                 b	abort
search_free_chain:
118c0: 100e3e04                 st	%blink,[%sp,4]
118c4: 28049500                 bl	__prolog_save19
118c8: 2fff8ea0                 bl.d	bucket_for
118cc: 62600000                 mov	%r19,%r0
118d0: 623f7c00 00017500        mov	%r17,0x1_7500		; 0x1_7500 = _ctype+0x30c
118d8: 61ff7c00 00019644        mov	%r15,0x1_9644		; 0x1_9644 = _sigtbl+0x30
118e0: 62400000                 mov	%r18,%r0
118e4: 61c8a200                 mov	%r14,%r17
118e8: 6208a200                 mov	%r16,%r17
118ec: 20000120                 b.d	0x1_18f8 = search_free_chain+0x38
118f0: 09a90008                 ld	%r13,[%r18,8]
118f4: 09a68008                 ld	%r13,[%r13,8]
118f8: 08068000                 ld	%r0,[%r13]
118fc: 67e00100                 mov.f	0,%r0
11900: 20000e81                 bz	0x1_1978 = search_free_chain+0xb8
11904: 081f0000 00018de4        ld	%r0,[0x1_8de4]		; _malloc_level
1190c: 57e07a01                 sub.f	0,%r0,1
11910: 20000a0c                 ble	0x1_1964 = search_free_chain+0xa4
11914: 67e69b00                 mov.f	0,%r13
11918: 60292401                 mov.z	%r1,%r18
1191c: 50410401                 sub.z	%r2,%r2,%r2
11920: 2fffe041                 blz.jd	corrupt
11924: 40077e8a                 add	%r0,%r14,138
11928: 08068000                 ld	%r0,[%r13]
1192c: 67e07a01                 and.f	0,%r0,1
11930: 60269a01                 mov.z	%r1,%r13
11934: 50410401                 sub.z	%r2,%r2,%r2
11938: 2fffdd41                 blz.jd	corrupt
1193c: 40087e9c                 add	%r0,%r16,156
11940: 08068000                 ld	%r0,[%r13]
11944: 60207ffe                 and	%r1,%r0,-2
11948: 40068200                 add	%r0,%r13,%r1
1194c: 08000004                 ld	%r0,[%r0,4]
11950: 57e08100                 sub.f	0,%r1,%r0
11954: 60269a02                 mov.nz	%r1,%r13
11958: 50410402                 sub.nz	%r2,%r2,%r2
1195c: 2fffd8c2                 blnz.jd	corrupt
11960: 4008feb8                 add	%r0,%r17,184
11964: 08068000                 ld	%r0,[%r13]
11968: 60007ffe                 and	%r0,%r0,-2
1196c: 57e98100                 sub.f	0,%r19,%r0
11970: 27fff00d                 bhi	0x1_18f4 = search_free_chain+0x34
11974: 20000280                 b	0x1_198c = search_free_chain+0xcc
11978: 42497e10                 add	%r18,%r18,16
1197c: 4007ffd0                 add	%r0,%r15,-48
11980: 57e90100                 sub.f	0,%r18,%r0
11984: 27ffec85                 bc	0x1_18ec = search_free_chain+0x2c
11988: 51a69a00                 sub	%r13,%r13,%r13
1198c: 20049ea0                 b.d	__epilog_restore19
11990: 60069a00                 mov	%r0,%r13
__find_heap_item._Yield_5._Yield_6:
11994: 100e3600                 st	%fp,[%sp]
11998: 08458008                 ld	%r2,[%r11,8]
1199c: 636e3800                 mov	%fp,%sp
119a0: 08210010                 ld	%r1,[%r2,16]
119a4: 57e00300                 sub.f	0,%r0,%r1
119a8: 20000422                 bnz.d	0x1_19cc = __find_heap_item._Yield_5._Yield_6+0x38
119ac: 61059600                 mov	%r8,%r11
119b0: 601ffe01                 mov	%r0,1
119b4: 40417fff                 add	%r2,%r2,-1
119b8: 10410000                 stb	%r0,[%r2]
119bc: 613f7c00 00004680        mov	%r9,0x4680		; 0x4680 = _STACKSIZE+0x680
119c4: 380c8020                 j.d	[%r25]
119c8: 0b6e1000                 ld.a	%fp,[%sp]
119cc: 380f8020                 j.d	[%blink]
119d0: 0b6e1000                 ld.a	%fp,[%sp]
__find_heap_item._Yield_5:
119d4: 100e3e04                 st	%blink,[%sp,4]
119d8: 280481a0                 bl.d	__prolog_save25
119dc: 60400000                 mov	%r2,%r0
119e0: 601f7c00 00004665        mov	%r0,0x4665		; 0x4665 = _STACKSIZE+0x665
119e8: 633f7c00 00004681        mov	%r25,0x4681		; 0x4681 = _STACKSIZE+0x681
119f0: 100d9608                 st	%r11,[%fp,8]
119f4: 2801c2a0                 bl.d	each_item
119f8: 602db600                 mov	%r1,%fp
119fc: 20049680                 b	__epilog_restore25
11a00: 20049600                 b	__epilog_restore25
11a04: 57e43700                 sub.f	0,%r8,%fp
11a08: 20049501                 bz	__epilog_restore25
11a0c: 2804d080                 bl	__load13to25
11a10: 0bed8004                 ld	%blink,[%fp,4]
11a14: 380c8020                 j.d	[%r25]
11a18: 0b6e1044                 ld.a	%fp,[%sp,68]
__find_heap_item:
11a1c: 100e3e00                 st	%blink,[%sp]
11a20: 28045720                 bl.d	__prolog_save0sp_sub4
11a24: 619ffe14                 mov	%r12,20
11a28: 100d8010                 st	%r0,[%fp,16]
11a2c: 50000000                 sub	%r0,%r0,%r0
11a30: 104d81ff                 stb	%r0,[%fp,-1]
11a34: 601f7c00 00004675        mov	%r0,0x4675		; 0x4675 = _STACKSIZE+0x675
11a3c: 2801e5a0                 bl.d	each_segment
11a40: 602db600                 mov	%r1,%fp
11a44: 080d85ff                 ldb	%r0,[%fp,-1]
11a48: 2007b020                 b.d	__epilog_load0_add4
11a4c: 619ffe14                 mov	%r12,20
_check_heap._Yield_3._Yield_4:
11a50: 08000000                 ld	%r0,[%r0]
11a54: 100e3600                 st	%fp,[%sp]
11a58: 67e07a01                 and.f	0,%r0,1
11a5c: 20000321                 bz.d	0x1_1a78 = _check_heap._Yield_3._Yield_4+0x28
11a60: 636e3800                 mov	%fp,%sp
11a64: 08258008                 ld	%r1,[%r11,8]
11a68: 080081fc                 ld	%r0,[%r1,-4]
11a6c: 4020fffc                 add	%r1,%r1,-4
11a70: 40007e01                 add	%r0,%r0,1
11a74: 10008000                 st	%r0,[%r1]
11a78: 380f8020                 j.d	[%blink]
11a7c: 0b6e1000                 ld.a	%fp,[%sp]
_check_heap._Yield_3:
11a80: 100e3e04                 st	%blink,[%sp,4]
11a84: 28044ba0                 bl.d	__prolog_save0
11a88: 60400000                 mov	%r2,%r0
11a8c: 601f7c00 00004694        mov	%r0,0x4694		; 0x4694 = _STACKSIZE+0x694
11a94: 100d9608                 st	%r11,[%fp,8]
11a98: 2801ae20                 bl.d	each_item
11a9c: 602db600                 mov	%r1,%fp
11aa0: 20047500                 b	__epilog_restore0
_check_heap:
11aa4: 100e3e04                 st	%blink,[%sp,4]
11aa8: 28045420                 bl.d	__prolog_save17sp
11aac: 619ffe28                 mov	%r12,40
11ab0: 61ff7c00 00018ed8        mov	%r15,0x1_8ed8		; _fpmaxl
11ab8: 08078120                 ld	%r0,[%r15,-224]
11abc: 67e00100                 mov.f	0,%r0
11ac0: 20002382                 bnz	0x1_1be0 = _check_heap+0x13c
11ac4: 40007e01                 add	%r0,%r0,1
11ac8: 10078120                 st	%r0,[%r15,-224]
11acc: 51a69a00                 sub	%r13,%r13,%r13
11ad0: 61dffe0d                 mov	%r14,13
11ad4: 40269a00                 asl	%r1,%r13
11ad8: 40208200                 asl	%r1,%r1
11adc: 4007ff30                 add	%r0,%r15,-208
11ae0: 40000200                 add	%r0,%r0,%r1
11ae4: 2fffbb20                 bl.d	search_free_chain
11ae8: 08000000                 ld	%r0,[%r0]
11aec: 51c77e01                 sub	%r14,%r14,1
11af0: 57e77a00                 sub.f	0,%r14,0
11af4: 27fffbad                 bhi.d	0x1_1ad4 = _check_heap+0x30
11af8: 41a6fe01                 add	%r13,%r13,1
11afc: 601f7c00 000046a0        mov	%r0,0x46a0		; 0x46a0 = _STACKSIZE+0x6a0
11b04: 51a69a00                 sub	%r13,%r13,%r13
11b08: 100d9bfc                 st	%r13,[%fp,-4]
11b0c: 2801cba0                 bl.d	each_segment
11b10: 602db600                 mov	%r1,%fp
11b14: 605f7c00 00019644        mov	%r2,0x1_9644		; 0x1_9644 = _sigtbl+0x30
11b1c: 60069a00                 mov	%r0,%r13
11b20: 40600000                 asl	%r3,%r0
11b24: 40618600                 asl	%r3,%r3
11b28: 40618600                 asl	%r3,%r3
11b2c: 40618600                 asl	%r3,%r3
11b30: 40217f08                 add	%r1,%r2,-248
11b34: 40208600                 add	%r1,%r1,%r3
11b38: 200001a0                 b.d	0x1_1b48 = _check_heap+0xa4
11b3c: 08608000                 ld	%r3,[%r1]
11b40: 08618008                 ld	%r3,[%r3,8]
11b44: 41a6fe01                 add	%r13,%r13,1
11b48: 08218000                 ld	%r1,[%r3]
11b4c: 67e08300                 mov.f	0,%r1
11b50: 27fffd82                 bnz	0x1_1b40 = _check_heap+0x9c
11b54: 40007e01                 add	%r0,%r0,1
11b58: 57e07a0d                 sub.f	0,%r0,13
11b5c: 27fff80b                 blt	0x1_1b20 = _check_heap+0x7c
11b60: 080d81fc                 ld	%r0,[%fp,-4]
11b64: 57e01b00                 sub.f	0,%r0,%r13
11b68: 20000d01                 bz	0x1_1bd4 = _check_heap+0x130
11b6c: 52082000                 sub	%r16,%r16,%r16
11b70: 623f7c00 00019644        mov	%r17,0x1_9644		; 0x1_9644 = _sigtbl+0x30
11b78: 61bf7c00 00017500        mov	%r13,0x1_7500		; 0x1_7500 = _ctype+0x30c
11b80: 40082000                 asl	%r0,%r16
11b84: 40000000                 asl	%r0,%r0
11b88: 40000000                 asl	%r0,%r0
11b8c: 40000000                 asl	%r0,%r0
11b90: 4028ff08                 add	%r1,%r17,-248
11b94: 40208000                 add	%r1,%r1,%r0
11b98: 20000420                 b.d	0x1_1bbc = _check_heap+0x118
11b9c: 09c08000                 ld	%r14,[%r1]
11ba0: 2fffcf20                 bl.d	__find_heap_item
11ba4: 60071c00                 mov	%r0,%r14
11ba8: 67e00100                 mov.f	0,%r0
11bac: 60271c01                 mov.z	%r1,%r14
11bb0: 28034f41                 blz.jd	_rterr_printf
11bb4: 4006fed4                 add	%r0,%r13,212
11bb8: 09c70008                 ld	%r14,[%r14,8]
11bbc: 08070000                 ld	%r0,[%r14]
11bc0: 67e00100                 mov.f	0,%r0
11bc4: 27fffb02                 bnz	0x1_1ba0 = _check_heap+0xfc
11bc8: 42087e01                 add	%r16,%r16,1
11bcc: 57e87a0d                 sub.f	0,%r16,13
11bd0: 27fff58b                 blt	0x1_1b80 = _check_heap+0xdc
11bd4: 08078120                 ld	%r0,[%r15,-224]
11bd8: 50007e01                 sub	%r0,%r0,1
11bdc: 10078120                 st	%r0,[%r15,-224]
11be0: 20046020                 b.d	__epilog_load17
11be4: 619ffe28                 mov	%r12,40
remove_from_free_chain:
11be8: 0820000c                 ld	%r1,[%r0,12]
11bec: 08400008                 ld	%r2,[%r0,8]
11bf0: 10008408                 st	%r2,[%r1,8]
11bf4: 0820000c                 ld	%r1,[%r0,12]
11bf8: 1001020c                 st	%r1,[%r2,12]
11bfc: 08200000                 ld	%r1,[%r0]
11c00: 6020fffe                 and	%r1,%r1,-2
11c04: 380f8020                 j.d	[%blink]
11c08: 10000200                 st	%r1,[%r0]
add_to_free_chain:
11c0c: 100e3e04                 st	%blink,[%sp,4]
11c10: 28041a20                 bl.d	__prolog_save0
11c14: 60a00000                 mov	%r5,%r0
11c18: 08000000                 ld	%r0,[%r0]
11c1c: 60007ffe                 and	%r0,%r0,-2
11c20: 40800a00                 add	%r4,%r0,%r5
11c24: 08020000                 ld	%r0,[%r4]
11c28: 607f7c00 00018ed8        mov	%r3,0x1_8ed8		; _fpmaxl
11c30: 67e07a01                 and.f	0,%r0,1
11c34: 20000601                 bz	0x1_1c68 = add_to_free_chain+0x5c
11c38: 2ffff5a0                 bl.d	remove_from_free_chain
11c3c: 60020800                 mov	%r0,%r4
11c40: 08020000                 ld	%r0,[%r4]
11c44: 08228000                 ld	%r1,[%r5]
11c48: 40200200                 add	%r1,%r0,%r1
11c4c: 0801810c                 ld	%r0,[%r3,-244]
11c50: 57e07a00                 sub.f	0,%r0,0
11c54: 2000022c                 ble.d	0x1_1c68 = add_to_free_chain+0x5c
11c58: 10028200                 st	%r1,[%r5]
11c5c: 6000fffe                 and	%r0,%r1,-2
11c60: 40028000                 add	%r0,%r5,%r0
11c64: 10000204                 st	%r1,[%r0,4]
11c68: 0801810c                 ld	%r0,[%r3,-244]
11c6c: 57e07a00                 sub.f	0,%r0,0
11c70: 2000028c                 ble	0x1_1c88 = add_to_free_chain+0x7c
11c74: 08028004                 ld	%r0,[%r5,4]
11c78: 50828000                 sub	%r4,%r5,%r0
11c7c: 08020000                 ld	%r0,[%r4]
11c80: 67e07a01                 and.f	0,%r0,1
11c84: 20000102                 bnz	0x1_1c90 = add_to_free_chain+0x84
11c88: 20000520                 b.d	0x1_1cb4 = add_to_free_chain+0xa8
11c8c: 60828a00                 mov	%r4,%r5
11c90: 2fffeaa0                 bl.d	remove_from_free_chain
11c94: 60020800                 mov	%r0,%r4
11c98: 08020000                 ld	%r0,[%r4]
11c9c: 08228000                 ld	%r1,[%r5]
11ca0: 40200200                 add	%r1,%r0,%r1
11ca4: 6000fffe                 and	%r0,%r1,-2
11ca8: 10020200                 st	%r1,[%r4]
11cac: 40020000                 add	%r0,%r4,%r0
11cb0: 10000204                 st	%r1,[%r0,4]
11cb4: 08020000                 ld	%r0,[%r4]
11cb8: 68007e01                 or	%r0,%r0,1
11cbc: 2fff1020                 bl.d	bucket_for
11cc0: 10020000                 st	%r0,[%r4]
11cc4: 08218504                 ldb	%r1,[%r3,-252]
11cc8: 67e08300                 mov.f	0,%r1
11ccc: 20000481                 bz	0x1_1cf4 = add_to_free_chain+0xe8
11cd0: 20000080                 b	0x1_1cd8 = add_to_free_chain+0xcc
11cd4: 60010400                 mov	%r0,%r2
11cd8: 08400008                 ld	%r2,[%r0,8]
11cdc: 08210000                 ld	%r1,[%r2]
11ce0: 67e08300                 mov.f	0,%r1
11ce4: 20000181                 bz	0x1_1cf4 = add_to_free_chain+0xe8
11ce8: 08620000                 ld	%r3,[%r4]
11cec: 57e18300                 sub.f	0,%r3,%r1
11cf0: 27fffc0d                 bhi	0x1_1cd4 = add_to_free_chain+0xc8
11cf4: 08200008                 ld	%r1,[%r0,8]
11cf8: 1002000c                 st	%r0,[%r4,12]
11cfc: 10020208                 st	%r1,[%r4,8]
11d00: 08220008                 ld	%r1,[%r4,8]
11d04: 1000880c                 st	%r4,[%r1,12]
11d08: 20042820                 b.d	__epilog_restore0
11d0c: 10000808                 st	%r4,[%r0,8]
free._Yield_7._Yield_8:
11d10: 08458008                 ld	%r2,[%r11,8]
11d14: 100e3600                 st	%fp,[%sp]
11d18: 082101fc                 ld	%r1,[%r2,-4]
11d1c: 57e00300                 sub.f	0,%r0,%r1
11d20: 27ffaaa2                 bnz.d	0x1_1a78 = _check_heap._Yield_3._Yield_4+0x28
11d24: 636e3800                 mov	%fp,%sp
11d28: 601ffe01                 mov	%r0,1
11d2c: 40417ffb                 add	%r2,%r2,-5
11d30: 27ffa8a0                 b.d	0x1_1a78 = _check_heap._Yield_3._Yield_4+0x28
11d34: 10410000                 stb	%r0,[%r2]
free._Yield_7:
11d38: 100e3e04                 st	%blink,[%sp,4]
11d3c: 2803f4a0                 bl.d	__prolog_save0
11d40: 60400000                 mov	%r2,%r0
11d44: 601f7c00 00004744        mov	%r0,0x4744		; 0x4744 = _STACKSIZE+0x744
11d4c: 100d9608                 st	%r11,[%fp,8]
11d50: 28015720                 bl.d	each_item
11d54: 602db600                 mov	%r1,%fp
11d58: 20041e00                 b	__epilog_restore0
free:
11d5c: 100e3e04                 st	%blink,[%sp,4]
11d60: 2803f820                 bl.d	__prolog_save15sp
11d64: 619ffe24                 mov	%r12,36
11d68: 61c00100                 mov.f	%r14,%r0
11d6c: 20002301                 bz	0x1_1e88 = free+0x12c
11d70: 61ff7c00 00018ed8        mov	%r15,0x1_8ed8		; _fpmaxl
11d78: 28046e20                 bl.d	_mwmutex_lock
11d7c: 0807811c                 ld	%r0,[%r15,-228]
11d80: 080701fc                 ld	%r0,[%r14,-4]
11d84: 57e07d00 fefefefe        sub.f	0,%r0,0xfefe_fefe		; 0xfefe_fefe = .regmask_lo+0x6fafeff
11d8c: 50277e04                 sub	%r1,%r14,4
11d90: 60271c02                 mov.nz	%r1,%r14
11d94: 08078110                 ld	%r0,[%r15,-240]
11d98: 51a08000                 sub	%r13,%r1,%r0
11d9c: 0807810c                 ld	%r0,[%r15,-244]
11da0: 57e07a01                 sub.f	0,%r0,1
11da4: 2000172c                 ble.d	0x1_1e60 = free+0x104
11da8: 100d9bfc                 st	%r13,[%fp,-4]
11dac: 08068000                 ld	%r0,[%r13]
11db0: 60207ffe                 and	%r1,%r0,-2
11db4: 40068200                 add	%r0,%r13,%r1
11db8: 08000004                 ld	%r0,[%r0,4]
11dbc: 57e00300                 sub.f	0,%r0,%r1
11dc0: 601f7c02 000175fe        mov.nz	%r0,0x1_75fe		; 0x1_75fe = _ctype+0x40a
11dc8: 2ffee9a2                 blnz.d	bad_free
11dcc: 60269a02                 mov.nz	%r1,%r13
11dd0: 08268004                 ld	%r1,[%r13,4]
11dd4: 67e08300                 mov.f	0,%r1
11dd8: 20000401                 bz	0x1_1dfc = free+0xa0
11ddc: 50068200                 sub	%r0,%r13,%r1
11de0: 08000000                 ld	%r0,[%r0]
11de4: 60007ffe                 and	%r0,%r0,-2
11de8: 57e08100                 sub.f	0,%r1,%r0
11dec: 601f7c02 0001760f        mov.nz	%r0,0x1_760f		; 0x1_760f = _ctype+0x41b
11df4: 2ffee422                 blnz.d	bad_free
11df8: 60269a02                 mov.nz	%r1,%r13
11dfc: 0807810c                 ld	%r0,[%r15,-244]
11e00: 57e07a02                 sub.f	0,%r0,2
11e04: 20000b0c                 ble	0x1_1e60 = free+0x104
11e08: 2fff9300                 bl	_check_heap
11e0c: 08078110                 ld	%r0,[%r15,-240]
11e10: 08268000                 ld	%r1,[%r13]
11e14: 57e00300                 sub.f	0,%r0,%r1
11e18: 50408005                 sub.c	%r2,%r1,%r0
11e1c: 60071c05                 mov.c	%r0,%r14
11e20: 2ffddd25                 blc.d	memset
11e24: 603ffebb                 mov	%r1,187
11e28: 50000000                 sub	%r0,%r0,%r0
11e2c: 104d81fb                 stb	%r0,[%fp,-5]
11e30: 601f7c00 0000474e        mov	%r0,0x474e		; 0x474e = _STACKSIZE+0x74e
11e38: 28016620                 bl.d	each_segment
11e3c: 602db600                 mov	%r1,%fp
11e40: 080d85fb                 ldb	%r0,[%fp,-5]
11e44: 67e00100                 mov.f	0,%r0
11e48: 20000282                 bnz	0x1_1e60 = free+0x104
11e4c: 601f7c00 00017621        mov	%r0,0x1_7621		; 0x1_7621 = _ctype+0x42d
11e54: 2802faa0                 bl.d	_rterr_printf
11e58: 60271c00                 mov	%r1,%r14
11e5c: 20000500                 b	0x1_1e88 = free+0x12c
11e60: 08068000                 ld	%r0,[%r13]
11e64: 67e07a01                 and.f	0,%r0,1
11e68: 601f7c02 00017648        mov.nz	%r0,0x1_7648		; 0x1_7648 = _ctype+0x454
11e70: 2ffed4a2                 blnz.d	bad_free
11e74: 60271c02                 mov.nz	%r1,%r14
11e78: 2fffb220                 bl.d	add_to_free_chain
11e7c: 60069a00                 mov	%r0,%r13
11e80: 28044da0                 bl.d	_mwmutex_unlock
11e84: 0807811c                 ld	%r0,[%r15,-228]
11e88: 20040c20                 b.d	__epilog_load15
11e8c: 619ffe24                 mov	%r12,36
init_malloc:
11e90: 100e3e04                 st	%blink,[%sp,4]
11e94: 2803cc20                 bl.d	__prolog_save13
11e98: 50000000                 sub	%r0,%r0,%r0
11e9c: 28072780                 bl	_sbrk
11ea0: 61bf7c00 00018ed8        mov	%r13,0x1_8ed8		; _fpmaxl
11ea8: 08268100                 ld	%r1,[%r13,-256]
11eac: 679ffe0f                 mov	%lp_count,15
11eb0: 40008000                 add	%r0,%r1,%r0
11eb4: 19800200                 asr	%r12,%r0
11eb8: 7fffffff                 nop
11ebc: 30000100                 lp	0x1_1ec8 = init_malloc+0x38
11ec0: 19860400                 lsr	%r12,%r12
11ec4: 19860400                 lsr	%r12,%r12
11ec8: 40060000                 add	%r0,%r12,%r0
11ecc: 60007e03                 and	%r0,%r0,3
11ed0: 50001900                 sub.f	%r0,%r0,%r12
11ed4: 280720c2                 blnz.jd	_sbrk
11ed8: 501f8004                 sub	%r0,4,%r0
11edc: 601f7c00 0001765d        mov	%r0,0x1_765d		; 0x1_765d = _ctype+0x469
11ee4: 28074680                 bl	_mwgetenv2
11ee8: 67e00100                 mov.f	0,%r0
11eec: 20000901                 bz	0x1_1f38 = init_malloc+0xa8
11ef0: 08200400                 ldb	%r1,[%r0]
11ef4: 57e0fa30                 sub.f	0,%r1,48
11ef8: 2000018b                 blt	0x1_1f08 = init_malloc+0x78
11efc: 57e0fa39                 sub.f	0,%r1,57
11f00: 2000012c                 ble.d	0x1_1f0c = init_malloc+0x7c
11f04: 5020fe30                 sub	%r1,%r1,48
11f08: 603ffe01                 mov	%r1,1
11f0c: 1006830c                 st	%r1,[%r13,-244]
11f10: 08200401                 ldb	%r1,[%r0,1]
11f14: 67e08300                 mov.f	0,%r1
11f18: 20000381                 bz	0x1_1f38 = init_malloc+0xa8
11f1c: 50000000                 sub	%r0,%r0,%r0
11f20: 57e0fa62                 sub.f	0,%r1,98
11f24: 57e0fd02 00000042        sub.nz.f	0,%r1,66		; 0x42 = DMANT_BITS+13
11f2c: 601f7c01 00000001        mov.z	%r0,1		; 0x1 = .regmask_lo+1
11f34: 10468104                 stb	%r0,[%r13,-252]
11f38: 0806810c                 ld	%r0,[%r13,-244]
11f3c: 57e07a00                 sub.f	0,%r0,0
11f40: 601ffe08                 mov	%r0,8
11f44: 601f7c0c 00000004        mov.le	%r0,4		; 0x4 = GB+2
11f4c: 10068110                 st	%r0,[%r13,-240]
11f50: 40000000                 asl	%r0,%r0
11f54: 40007e20                 add	%r0,%r0,32
11f58: 10068114                 st	%r0,[%r13,-236]
11f5c: 50208200                 sub	%r1,%r1,%r1
11f60: 679ffe0d                 mov	%lp_count,13
11f64: 605f7c00 00019644        mov	%r2,0x1_9644		; 0x1_9644 = _sigtbl+0x30
11f6c: 30000680                 lp	0x1_1fa4 = init_malloc+0x114
11f70: 40808200                 asl	%r4,%r1
11f74: 40820800                 asl	%r4,%r4
11f78: 40820800                 asl	%r4,%r4
11f7c: 40820800                 asl	%r4,%r4
11f80: 40017f00                 add	%r0,%r2,-256
11f84: 40000800                 add	%r0,%r0,%r4
11f88: 40617f08                 add	%r3,%r2,-248
11f8c: 40618800                 add	%r3,%r3,%r4
11f90: 10018000                 st	%r0,[%r3]
11f94: 40617f0c                 add	%r3,%r2,-244
11f98: 40618800                 add	%r3,%r3,%r4
11f9c: 10018000                 st	%r0,[%r3]
11fa0: 4020fe01                 add	%r1,%r1,1
11fa4: 2003d580                 b	__epilog_restore13
alloc_segment:
11fa8: 100e3e04                 st	%blink,[%sp,4]
11fac: 2803b080                 bl	__prolog_save16
11fb0: 61a00000                 mov	%r13,%r0
11fb4: 280704a0                 bl.d	_sbrk
11fb8: 62008200                 mov	%r16,%r1
11fbc: 61e00100                 mov.f	%r15,%r0
11fc0: 57e7fd02 ffffffff        sub.nz.f	0,%r15,-1		; 0xffff_ffff = .regmask_lo+0x7fc0000
11fc8: 20000881                 bz	0x1_2010 = alloc_segment+0x68
11fcc: 19878200                 asr	%r12,%r15
11fd0: 679ffe0f                 mov	%lp_count,15
11fd4: 7fffffff                 nop
11fd8: 30000100                 lp	0x1_1fe4 = alloc_segment+0x3c
11fdc: 19860400                 lsr	%r12,%r12
11fe0: 19860400                 lsr	%r12,%r12
11fe4: 40061e00                 add	%r0,%r12,%r15
11fe8: 60007e03                 and	%r0,%r0,3
11fec: 50001900                 sub.f	%r0,%r0,%r12
11ff0: 20000501                 bz	0x1_201c = alloc_segment+0x74
11ff4: 51df8004                 sub	%r14,4,%r0
11ff8: 2806fc20                 bl.d	_sbrk
11ffc: 60071c00                 mov	%r0,%r14
12000: 67e00100                 mov.f	0,%r0
12004: 57e07d02 ffffffff        sub.nz.f	0,%r0,-1		; 0xffff_ffff = .regmask_lo+0x7fc0000
1200c: 20000102                 bnz	0x1_2018 = alloc_segment+0x70
12010: 2003cb20                 b.d	__epilog_restore16
12014: 50000000                 sub	%r0,%r0,%r0
12018: 41e71e00                 add	%r15,%r14,%r15
1201c: 61df7c00 00018ed8        mov	%r14,0x1_8ed8		; _fpmaxl
12024: 0807010c                 ld	%r0,[%r14,-244]
12028: 57e07a01                 sub.f	0,%r0,1
1202c: 60079e09                 mov.gt	%r0,%r15
12030: 60469a09                 mov.gt	%r2,%r13
12034: 2ffd9ac9                 blgt.jd	memset
12038: 603ffecc                 mov	%r1,204
1203c: 08670108                 ld	%r3,[%r14,-248]
12040: 67e18700                 mov.f	0,%r3
12044: 20000b01                 bz	0x1_20a0 = alloc_segment+0xf8
12048: 08018008                 ld	%r0,[%r3,8]
1204c: 40000600                 add	%r0,%r0,%r3
12050: 57e78100                 sub.f	0,%r15,%r0
12054: 20000902                 bnz	0x1_20a0 = alloc_segment+0xf8
12058: 0801800c                 ld	%r0,[%r3,12]
1205c: 08200000                 ld	%r1,[%r0]
12060: 40209a00                 add	%r1,%r1,%r13
12064: 10000200                 st	%r1,[%r0]
12068: 6020fffe                 and	%r1,%r1,-2
1206c: 40408000                 add	%r2,%r1,%r0
12070: 08218008                 ld	%r1,[%r3,8]
12074: 1001840c                 st	%r2,[%r3,12]
12078: 40209a00                 add	%r1,%r1,%r13
1207c: 10018208                 st	%r1,[%r3,8]
12080: 50208200                 sub	%r1,%r1,%r1
12084: 10010200                 st	%r1,[%r2]
12088: 0827010c                 ld	%r1,[%r14,-244]
1208c: 57e0fa00                 sub.f	0,%r1,0
12090: 2000010c                 ble	0x1_209c = alloc_segment+0xf4
12094: 08200000                 ld	%r1,[%r0]
12098: 10010204                 st	%r1,[%r2,4]
1209c: 20000e00                 b	0x1_2110 = alloc_segment+0x168
120a0: 67e82100                 mov.f	0,%r16
120a4: 20000181                 bz	0x1_20b4 = alloc_segment+0x10c
120a8: 2806f9a0                 bl.d	_brk
120ac: 60079e00                 mov	%r0,%r15
120b0: 27ffeb80                 b	0x1_2010 = alloc_segment+0x68
120b4: 67e18700                 mov.f	0,%r3
120b8: 20000121                 bz.d	0x1_20c4 = alloc_segment+0x11c
120bc: 10078604                 st	%r3,[%r15,4]
120c0: 10019e00                 st	%r15,[%r3]
120c4: 50410400                 sub	%r2,%r2,%r2
120c8: 10078400                 st	%r2,[%r15]
120cc: 10079a08                 st	%r13,[%r15,8]
120d0: 51a6fe20                 sub	%r13,%r13,32
120d4: 10079a10                 st	%r13,[%r15,16]
120d8: 08078010                 ld	%r0,[%r15,16]
120dc: 10078414                 st	%r2,[%r15,20]
120e0: 60207ffe                 and	%r1,%r0,-2
120e4: 4007fe10                 add	%r0,%r15,16
120e8: 40200200                 add	%r1,%r0,%r1
120ec: 1007820c                 st	%r1,[%r15,12]
120f0: 10008400                 st	%r2,[%r1]
120f4: 0827010c                 ld	%r1,[%r14,-244]
120f8: 57e0fa00                 sub.f	0,%r1,0
120fc: 2000022c                 ble.d	0x1_2110 = alloc_segment+0x168
12100: 10071f08                 st	%r15,[%r14,-248]
12104: 0827800c                 ld	%r1,[%r15,12]
12108: 08478010                 ld	%r2,[%r15,16]
1210c: 10008404                 st	%r2,[%r1,4]
12110: 2fff5f00                 bl	add_to_free_chain
12114: 2003aaa0                 b.d	__epilog_restore16
12118: 601ffe01                 mov	%r0,1
_find_heap_item:
1211c: 100e3e04                 st	%blink,[%sp,4]
12120: 28037d00                 bl	__prolog_save14
12124: 61c00000                 mov	%r14,%r0
12128: 080001fc                 ld	%r0,[%r0,-4]
1212c: 57e07d00 fefefefe        sub.f	0,%r0,0xfefe_fefe		; 0xfefe_fefe = .regmask_lo+0x6fafeff
12134: 51c77c01 00000004        sub.z	%r14,%r14,4		; 0x4 = GB+2
1213c: 09bf0000 00018de8        ld	%r13,[0x1_8de8]		; _mwhitem_header_size
12144: 2fff1aa0                 bl.d	__find_heap_item
12148: 50071a00                 sub	%r0,%r14,%r13
1214c: 67e00100                 mov.f	0,%r0
12150: 2003a102                 bnz	__epilog_restore14
12154: 601f7c00 0001766a        mov	%r0,0x1_766a		; 0x1_766a = _ctype+0x476
1215c: 280299a0                 bl.d	_rterr_printf
12160: 50271a00                 sub	%r1,%r14,%r13
12164: 20039e80                 b	__epilog_restore14
malloc:
12168: 100e3e04                 st	%blink,[%sp,4]
1216c: 28037b00                 bl	__prolog_save17
12170: 62000000                 mov	%r16,%r0
12174: 61ff7c00 00018ed8        mov	%r15,0x1_8ed8		; _fpmaxl
1217c: 2803eda0                 bl.d	_mwmutex_lock
12180: 0807811c                 ld	%r0,[%r15,-228]
12184: 08078564                 ldb	%r0,[%r15,-156]
12188: 67e00100                 mov.f	0,%r0
1218c: 20000181                 bz	0x1_219c = malloc+0x34
12190: 2fff9f80                 bl	init_malloc
12194: 50000000                 sub	%r0,%r0,%r0
12198: 10478164                 stb	%r0,[%r15,-156]
1219c: 0807810c                 ld	%r0,[%r15,-244]
121a0: 57e07a03                 sub.f	0,%r0,3
121a4: 2fff1f8a                 blge	_check_heap
121a8: 40087e03                 add	%r0,%r16,3
121ac: 60207ffc                 and	%r1,%r0,-4
121b0: 08078110                 ld	%r0,[%r15,-240]
121b4: 40200200                 add	%r1,%r0,%r1
121b8: 08078100                 ld	%r0,[%r15,-256]
121bc: 40200200                 add	%r1,%r0,%r1
121c0: 601ffe10                 mov	%r0,16
121c4: 57e08100                 sub.f	0,%r1,%r0
121c8: 61c0820d                 mov.hi	%r14,%r1
121cc: 61c0000e                 mov.ls	%r14,%r0
121d0: 57e81d00                 sub.f	0,%r16,%r14
121d4: 2000148d                 bhi	0x1_227c = malloc+0x114
121d8: 2ffedca0                 bl.d	search_free_chain
121dc: 60071c00                 mov	%r0,%r14
121e0: 61a00100                 mov.f	%r13,%r0
121e4: 20001c02                 bnz	0x1_22c8 = malloc+0x160
121e8: 08478108                 ld	%r2,[%r15,-248]
121ec: 67e10500                 mov.f	0,%r2
121f0: 20000da1                 bz.d	0x1_2260 = malloc+0xf8
121f4: 08078114                 ld	%r0,[%r15,-236]
121f8: 0827810c                 ld	%r1,[%r15,-244]
121fc: 57e0fa00                 sub.f	0,%r1,0
12200: 20000b8c                 ble	0x1_2260 = malloc+0xf8
12204: 0841000c                 ld	%r2,[%r2,12]
12208: 40000000                 asl	%r0,%r0
1220c: 08210004                 ld	%r1,[%r2,4]
12210: 50410200                 sub	%r2,%r2,%r1
12214: 40201c00                 add	%r1,%r0,%r14
12218: 57e70300                 sub.f	0,%r14,%r1
1221c: 20000a0d                 bhi	0x1_2270 = malloc+0x108
12220: 08010000                 ld	%r0,[%r2]
12224: 67e07a01                 and.f	0,%r0,1
12228: 20000681                 bz	0x1_2260 = malloc+0xf8
1222c: 60007ffe                 and	%r0,%r0,-2
12230: 50008000                 sub	%r0,%r1,%r0
12234: 40007c00 00000fff        add	%r0,%r0,0xfff		; 0xfff = DEXP_MAX+0x800
1223c: 60007c00 fffff000        and	%r0,%r0,0xffff_f000		; 0xffff_f000 = .regmask_lo+0x7fbf001
12244: 2fffac20                 bl.d	alloc_segment
12248: 603ffe01                 mov	%r1,1
1224c: 67e00100                 mov.f	0,%r0
12250: 20000181                 bz	0x1_2260 = malloc+0xf8
12254: 2ffecd20                 bl.d	search_free_chain
12258: 60071c00                 mov	%r0,%r14
1225c: 61a00000                 mov	%r13,%r0
12260: 08078114                 ld	%r0,[%r15,-236]
12264: 40001c00                 add	%r0,%r0,%r14
12268: 57e70100                 sub.f	0,%r14,%r0
1226c: 2000038e                 bls	0x1_228c = malloc+0x124
12270: 2803cb20                 bl.d	___errno
12274: 61bffe0c                 mov	%r13,12
12278: 10001a00                 st	%r13,[%r0]
1227c: 2803ce20                 bl.d	_mwmutex_unlock
12280: 0807811c                 ld	%r0,[%r15,-228]
12284: 20002e20                 b.d	0x1_23f8 = malloc+0x290
12288: 51a69a00                 sub	%r13,%r13,%r13
1228c: 67e69b00                 mov.f	0,%r13
12290: 20000582                 bnz	0x1_22c0 = malloc+0x158
12294: 40007c00 00000fff        add	%r0,%r0,0xfff		; 0xfff = DEXP_MAX+0x800
1229c: 60007c00 fffff000        and	%r0,%r0,0xffff_f000		; 0xffff_f000 = .regmask_lo+0x7fbf001
122a4: 2fffa020                 bl.d	alloc_segment
122a8: 50208200                 sub	%r1,%r1,%r1
122ac: 67e00100                 mov.f	0,%r0
122b0: 20000181                 bz	0x1_22c0 = malloc+0x158
122b4: 2ffec120                 bl.d	search_free_chain
122b8: 60071c00                 mov	%r0,%r14
122bc: 61a00000                 mov	%r13,%r0
122c0: 67e69b00                 mov.f	0,%r13
122c4: 27fff501                 bz	0x1_2270 = malloc+0x108
122c8: 08068000                 ld	%r0,[%r13]
122cc: 60607ffe                 and	%r3,%r0,-2
122d0: 2fff22a0                 bl.d	remove_from_free_chain
122d4: 60069a00                 mov	%r0,%r13
122d8: 08078110                 ld	%r0,[%r15,-240]
122dc: 40401a00                 add	%r2,%r0,%r13
122e0: 08078100                 ld	%r0,[%r15,-256]
122e4: 40010000                 add	%r0,%r2,%r0
122e8: 60007a03                 and.f	%r0,%r0,3
122ec: 523f8004                 sub	%r17,4,%r0
122f0: 5228a201                 sub.z	%r17,%r17,%r17
122f4: 67e00100                 mov.f	0,%r0
122f8: 20000f21                 bz.d	0x1_2374 = malloc+0x20c
122fc: 0827810c                 ld	%r1,[%r15,-244]
12300: 57e0fa00                 sub.f	0,%r1,0
12304: 5061a200                 sub	%r3,%r3,%r17
12308: 2000072c                 ble.d	0x1_2344 = malloc+0x1dc
1230c: 51c72200                 sub	%r14,%r14,%r17
12310: 08068004                 ld	%r0,[%r13,4]
12314: 50268000                 sub	%r1,%r13,%r0
12318: 08008000                 ld	%r0,[%r1]
1231c: 40002200                 add	%r0,%r0,%r17
12320: 10008000                 st	%r0,[%r1]
12324: 60007ffe                 and	%r0,%r0,-2
12328: 41a00200                 add	%r13,%r0,%r1
1232c: 6001fffe                 and	%r0,%r3,-2
12330: 10068600                 st	%r3,[%r13]
12334: 40068000                 add	%r0,%r13,%r0
12338: 10000604                 st	%r3,[%r0,4]
1233c: 200006a0                 b.d	0x1_2374 = malloc+0x20c
12340: 5228a200                 sub	%r17,%r17,%r17
12344: 18088400                 lsr	%r0,%r17
12348: 18000400                 lsr	%r0,%r0
1234c: 50208200                 sub	%r1,%r1,%r1
12350: 57e07a00                 sub.f	0,%r0,0
12354: 67800009                 mov.gt	%lp_count,%r0
12358: 30000309                 lpgt	0x1_2374 = malloc+0x20c
1235c: 40008200                 asl	%r0,%r1
12360: 40000000                 asl	%r0,%r0
12364: 41810000                 add	%r12,%r2,%r0
12368: 10067c00 fefefefe        st	0xfefe_fefe,[%r12]		; 0xfefe_fefe = .regmask_lo+0x6fafeff
12370: 4020fe01                 add	%r1,%r1,1
12374: 40077e10                 add	%r0,%r14,16
12378: 57e18100                 sub.f	0,%r3,%r0
1237c: 200006ae                 bls.d	0x1_23b4 = malloc+0x24c
12380: 0827810c                 ld	%r1,[%r15,-244]
12384: 10069c00                 st	%r14,[%r13]
12388: 60077ffe                 and	%r0,%r14,-2
1238c: 40001a00                 add	%r0,%r0,%r13
12390: 57e0fa00                 sub.f	0,%r1,0
12394: 50419c00                 sub	%r2,%r3,%r14
12398: 200002ac                 ble.d	0x1_23b0 = malloc+0x248
1239c: 10000400                 st	%r2,[%r0]
123a0: 10001c04                 st	%r14,[%r0,4]
123a4: 60217ffe                 and	%r1,%r2,-2
123a8: 40200200                 add	%r1,%r0,%r1
123ac: 10008404                 st	%r2,[%r1,4]
123b0: 2fff0b00                 bl	add_to_free_chain
123b4: 0807810c                 ld	%r0,[%r15,-244]
123b8: 57e07a01                 sub.f	0,%r0,1
123bc: 2000028c                 ble	0x1_23d4 = malloc+0x26c
123c0: 08078110                 ld	%r0,[%r15,-240]
123c4: 603ffeaa                 mov	%r1,170
123c8: 40068000                 add	%r0,%r13,%r0
123cc: 2ffd27a0                 bl.d	memset
123d0: 60482000                 mov	%r2,%r16
123d4: 2803a320                 bl.d	_mwmutex_unlock
123d8: 0807811c                 ld	%r0,[%r15,-228]
123dc: 08078110                 ld	%r0,[%r15,-240]
123e0: 40001a00                 add	%r0,%r0,%r13
123e4: 41a88000                 add	%r13,%r17,%r0
123e8: 0807810c                 ld	%r0,[%r15,-244]
123ec: 57e07a02                 sub.f	0,%r0,2
123f0: 2fffa529                 blgt.d	_find_heap_item
123f4: 60069a09                 mov.gt	%r0,%r13
123f8: 20034f20                 b.d	__epilog_restore17
123fc: 60069a00                 mov	%r0,%r13
realloc:
12400: 100e3e04                 st	%blink,[%sp,4]
12404: 28033200                 bl	__prolog_save21
12408: 61c00100                 mov.f	%r14,%r0
1240c: 200002a2                 bnz.d	0x1_2424 = realloc+0x24
12410: 62008200                 mov	%r16,%r1
12414: 2fffaa20                 bl.d	malloc
12418: 60082000                 mov	%r0,%r16
1241c: 200070a0                 b.d	0x1_27a4 = realloc+0x3a4
12420: 61c00000                 mov	%r14,%r0
12424: 67e82100                 mov.f	0,%r16
12428: 20000102                 bnz	0x1_2434 = realloc+0x34
1242c: 2fff2580                 bl	free
12430: 20000300                 b	0x1_244c = realloc+0x4c
12434: 61ff7c00 00018ed8        mov	%r15,0x1_8ed8		; _fpmaxl
1243c: 08078110                 ld	%r0,[%r15,-240]
12440: 41a02000                 add	%r13,%r0,%r16
12444: 57e81b00                 sub.f	0,%r16,%r13
12448: 2000010e                 bls	0x1_2454 = realloc+0x54
1244c: 20006aa0                 b.d	0x1_27a4 = realloc+0x3a4
12450: 51c71c00                 sub	%r14,%r14,%r14
12454: 280392a0                 bl.d	_mwmutex_lock
12458: 0807811c                 ld	%r0,[%r15,-228]
1245c: 0807810c                 ld	%r0,[%r15,-244]
12460: 57e07a02                 sub.f	0,%r0,2
12464: 2ffec789                 blgt	_check_heap
12468: 41a6fe03                 add	%r13,%r13,3
1246c: 601ffe10                 mov	%r0,16
12470: 6026fffc                 and	%r1,%r13,-4
12474: 57e08100                 sub.f	0,%r1,%r0
12478: 6220820d                 mov.hi	%r17,%r1
1247c: 6220000e                 mov.ls	%r17,%r0
12480: 080701fc                 ld	%r0,[%r14,-4]
12484: 57e07d00 fefefefe        sub.f	0,%r0,0xfefe_fefe		; 0xfefe_fefe = .regmask_lo+0x6fafeff
1248c: 50277e04                 sub	%r1,%r14,4
12490: 60271c02                 mov.nz	%r1,%r14
12494: 08078110                 ld	%r0,[%r15,-240]
12498: 52608000                 sub	%r19,%r1,%r0
1249c: 0807810c                 ld	%r0,[%r15,-244]
124a0: 57e07a01                 sub.f	0,%r0,1
124a4: 20000a0c                 ble	0x1_24f8 = realloc+0xf8
124a8: 08098000                 ld	%r0,[%r19]
124ac: 60207ffe                 and	%r1,%r0,-2
124b0: 40098200                 add	%r0,%r19,%r1
124b4: 08000004                 ld	%r0,[%r0,4]
124b8: 57e00300                 sub.f	0,%r0,%r1
124bc: 601f7c02 000175fe        mov.nz	%r0,0x1_75fe		; 0x1_75fe = _ctype+0x40a
124c4: 2ffe0a22                 blnz.d	bad_free
124c8: 6029a602                 mov.nz	%r1,%r19
124cc: 08298004                 ld	%r1,[%r19,4]
124d0: 67e08300                 mov.f	0,%r1
124d4: 20000401                 bz	0x1_24f8 = realloc+0xf8
124d8: 50098200                 sub	%r0,%r19,%r1
124dc: 08000000                 ld	%r0,[%r0]
124e0: 60007ffe                 and	%r0,%r0,-2
124e4: 57e08100                 sub.f	0,%r1,%r0
124e8: 601f7c02 0001760f        mov.nz	%r0,0x1_760f		; 0x1_760f = _ctype+0x41b
124f0: 2ffe04a2                 blnz.d	bad_free
124f4: 6029a602                 mov.nz	%r1,%r19
124f8: 08098000                 ld	%r0,[%r19]
124fc: 67e07a01                 and.f	0,%r0,1
12500: 20000281                 bz	0x1_2518 = realloc+0x118
12504: 601f7c00 00017648        mov	%r0,0x1_7648		; 0x1_7648 = _ctype+0x454
1250c: 2ffe0120                 bl.d	bad_free
12510: 60271c00                 mov	%r1,%r14
12514: 08098000                 ld	%r0,[%r19]
12518: 0847810c                 ld	%r2,[%r15,-244]
1251c: 62407ffe                 and	%r18,%r0,-2
12520: 57e17a00                 sub.f	0,%r2,0
12524: 528a280c                 sub.le	%r20,%r20,%r20
12528: 200003ac                 ble.d	0x1_2548 = realloc+0x148
1252c: 62aa280c                 mov.le	%r21,%r20
12530: 08098004                 ld	%r0,[%r19,4]
12534: 52a98000                 sub	%r21,%r19,%r0
12538: 080a8000                 ld	%r0,[%r21]
1253c: 67e07a01                 and.f	0,%r0,1
12540: 62807ffe                 and	%r20,%r0,-2
12544: 528a2801                 sub.z	%r20,%r20,%r20
12548: 41a92600                 add	%r13,%r18,%r19
1254c: 08068000                 ld	%r0,[%r13]
12550: 67e07a01                 and.f	0,%r0,1
12554: 60007ffe                 and	%r0,%r0,-2
12558: 50000001                 sub.z	%r0,%r0,%r0
1255c: 57e8a500                 sub.f	0,%r17,%r18
12560: 200009ad                 bhi.d	0x1_25b0 = realloc+0x1b0
12564: 40202400                 add	%r1,%r0,%r18
12568: 50292200                 sub	%r1,%r18,%r17
1256c: 57e0fa10                 sub.f	0,%r1,16
12570: 20002005                 bc	0x1_2674 = realloc+0x274
12574: 57e17a00                 sub.f	0,%r2,0
12578: 20000189                 bgt	0x1_2588 = realloc+0x188
1257c: 08068000                 ld	%r0,[%r13]
12580: 67e07a01                 and.f	0,%r0,1
12584: 20000081                 bz	0x1_258c = realloc+0x18c
12588: 10068204                 st	%r1,[%r13,4]
1258c: 1009a200                 st	%r17,[%r19]
12590: 57e17a00                 sub.f	0,%r2,0
12594: 6008fffe                 and	%r0,%r17,-2
12598: 2000012c                 ble.d	0x1_25a4 = realloc+0x1a4
1259c: 40002600                 add	%r0,%r0,%r19
125a0: 10002204                 st	%r17,[%r0,4]
125a4: 2ffecca0                 bl.d	add_to_free_chain
125a8: 10000200                 st	%r1,[%r0]
125ac: 20001880                 b	0x1_2674 = realloc+0x274
125b0: 57e88300                 sub.f	0,%r17,%r1
125b4: 2000190d                 bhi	0x1_2680 = realloc+0x280
125b8: 5060a200                 sub	%r3,%r1,%r17
125bc: 57e1fa10                 sub.f	0,%r3,16
125c0: 20000c05                 bc	0x1_2624 = realloc+0x224
125c4: 57e17a00                 sub.f	0,%r2,0
125c8: 20000329                 bgt.d	0x1_25e4 = realloc+0x1e4
125cc: 1009a200                 st	%r17,[%r19]
125d0: 08068000                 ld	%r0,[%r13]
125d4: 60007ffe                 and	%r0,%r0,-2
125d8: 00068000                 ld	%r0,[%r13,%r0]
125dc: 67e07a01                 and.f	0,%r0,1
125e0: 20000201                 bz	0x1_25f4 = realloc+0x1f4
125e4: 08068000                 ld	%r0,[%r13]
125e8: 60007ffe                 and	%r0,%r0,-2
125ec: 40068000                 add	%r0,%r13,%r0
125f0: 10000604                 st	%r3,[%r0,4]
125f4: 2ffebe20                 bl.d	remove_from_free_chain
125f8: 60069a00                 mov	%r0,%r13
125fc: 08098000                 ld	%r0,[%r19]
12600: 0827810c                 ld	%r1,[%r15,-244]
12604: 60007ffe                 and	%r0,%r0,-2
12608: 57e0fa00                 sub.f	0,%r1,0
1260c: 2000012c                 ble.d	0x1_2618 = realloc+0x218
12610: 40002600                 add	%r0,%r0,%r19
12614: 10002204                 st	%r17,[%r0,4]
12618: 2ffebe20                 bl.d	add_to_free_chain
1261c: 10000600                 st	%r3,[%r0]
12620: 20000700                 b	0x1_265c = realloc+0x25c
12624: 57e17a00                 sub.f	0,%r2,0
12628: 20000329                 bgt.d	0x1_2644 = realloc+0x244
1262c: 10098200                 st	%r1,[%r19]
12630: 08068000                 ld	%r0,[%r13]
12634: 60007ffe                 and	%r0,%r0,-2
12638: 00068000                 ld	%r0,[%r13,%r0]
1263c: 67e07a01                 and.f	0,%r0,1
12640: 20000201                 bz	0x1_2654 = realloc+0x254
12644: 08068000                 ld	%r0,[%r13]
12648: 60007ffe                 and	%r0,%r0,-2
1264c: 40068000                 add	%r0,%r13,%r0
12650: 10000204                 st	%r1,[%r0,4]
12654: 2ffeb220                 bl.d	remove_from_free_chain
12658: 60069a00                 mov	%r0,%r13
1265c: 0807810c                 ld	%r0,[%r15,-244]
12660: 57e07a01                 sub.f	0,%r0,1
12664: 4009a409                 add.gt	%r0,%r19,%r18
12668: 5048a409                 sub.gt	%r2,%r17,%r18
1266c: 2ffcd3c9                 blgt.jd	memset
12670: 603ffeaa                 mov	%r1,170
12674: 28034f20                 bl.d	_mwmutex_unlock
12678: 0807811c                 ld	%r0,[%r15,-228]
1267c: 20002480                 b	0x1_27a4 = realloc+0x3a4
12680: 57e17a00                 sub.f	0,%r2,0
12684: 20000f8c                 ble	0x1_2704 = realloc+0x304
12688: 08078100                 ld	%r0,[%r15,-256]
1268c: 67e00100                 mov.f	0,%r0
12690: 20000e02                 bnz	0x1_2704 = realloc+0x304
12694: 402a0200                 add	%r1,%r20,%r1
12698: 57e88300                 sub.f	0,%r17,%r1
1269c: 20000c8d                 bhi	0x1_2704 = realloc+0x304
126a0: 2ffea8a0                 bl.d	remove_from_free_chain
126a4: 600aaa00                 mov	%r0,%r21
126a8: 09ca8004                 ld	%r14,[%r21,4]
126ac: 600aaa00                 mov	%r0,%r21
126b0: 6029a600                 mov	%r1,%r19
126b4: 2ff8ef20                 bl.d	memcpy
126b8: 60492400                 mov	%r2,%r18
126bc: 100aa400                 st	%r18,[%r21]
126c0: 080a8000                 ld	%r0,[%r21]
126c4: 100a9c04                 st	%r14,[%r21,4]
126c8: 60007ffe                 and	%r0,%r0,-2
126cc: 40002a00                 add	%r0,%r0,%r21
126d0: 10002800                 st	%r20,[%r0]
126d4: 08200000                 ld	%r1,[%r0]
126d8: 10002404                 st	%r18,[%r0,4]
126dc: 2ffea5a0                 bl.d	add_to_free_chain
126e0: 10068204                 st	%r1,[%r13,4]
126e4: 28034120                 bl.d	_mwmutex_unlock
126e8: 0807811c                 ld	%r0,[%r15,-228]
126ec: 08078110                 ld	%r0,[%r15,-240]
126f0: 40002a00                 add	%r0,%r0,%r21
126f4: 2fffa120                 bl.d	realloc
126f8: 60282000                 mov	%r1,%r16
126fc: 200014a0                 b.d	0x1_27a4 = realloc+0x3a4
12700: 61c00000                 mov	%r14,%r0
12704: 08078108                 ld	%r0,[%r15,-248]
12708: 67e00100                 mov.f	0,%r0
1270c: 20000b81                 bz	0x1_276c = realloc+0x36c
12710: 57e17a00                 sub.f	0,%r2,0
12714: 20000a8c                 ble	0x1_276c = realloc+0x36c
12718: 0820000c                 ld	%r1,[%r0,12]
1271c: 08008004                 ld	%r0,[%r1,4]
12720: 50008000                 sub	%r0,%r1,%r0
12724: 57e98100                 sub.f	0,%r19,%r0
12728: 20000802                 bnz	0x1_276c = realloc+0x36c
1272c: 08078114                 ld	%r0,[%r15,-236]
12730: 5028a400                 sub	%r1,%r17,%r18
12734: 40000200                 add	%r0,%r0,%r1
12738: 40007c00 00000fff        add	%r0,%r0,0xfff		; 0xfff = DEXP_MAX+0x800
12740: 60007c00 fffff000        and	%r0,%r0,0xffff_f000		; 0xffff_f000 = .regmask_lo+0x7fbf001
12748: 2fff0ba0                 bl.d	alloc_segment
1274c: 603ffe01                 mov	%r1,1
12750: 67e00100                 mov.f	0,%r0
12754: 200002a1                 bz.d	0x1_276c = realloc+0x36c
12758: 0827811c                 ld	%r1,[%r15,-228]
1275c: 28033220                 bl.d	_mwmutex_unlock
12760: 60008200                 mov	%r0,%r1
12764: 27fff1a0                 b.d	0x1_26f4 = realloc+0x2f4
12768: 60071c00                 mov	%r0,%r14
1276c: 28033020                 bl.d	_mwmutex_unlock
12770: 0807811c                 ld	%r0,[%r15,-228]
12774: 2fff3e20                 bl.d	malloc
12778: 60082000                 mov	%r0,%r16
1277c: 61a00100                 mov.f	%r13,%r0
12780: 20000381                 bz	0x1_27a0 = realloc+0x3a0
12784: 08078110                 ld	%r0,[%r15,-240]
12788: 50490000                 sub	%r2,%r18,%r0
1278c: 60069a00                 mov	%r0,%r13
12790: 2ff8d3a0                 bl.d	memcpy
12794: 60271c00                 mov	%r1,%r14
12798: 2ffeb820                 bl.d	free
1279c: 60071c00                 mov	%r0,%r14
127a0: 61c69a00                 mov	%r14,%r13
127a4: 2002dda0                 b.d	__epilog_restore21
127a8: 60071c00                 mov	%r0,%r14
_msize:
127ac: 100e3e04                 st	%blink,[%sp,4]
127b0: 2802ad80                 bl	__prolog_save15
127b4: 61c00100                 mov.f	%r14,%r0
127b8: 51a69a00                 sub	%r13,%r13,%r13
127bc: 20000881                 bz	0x1_2804 = _msize+0x58
127c0: 61ff7c00 00018ed8        mov	%r15,0x1_8ed8		; _fpmaxl
127c8: 28032420                 bl.d	_mwmutex_lock
127cc: 0807811c                 ld	%r0,[%r15,-228]
127d0: 080701fc                 ld	%r0,[%r14,-4]
127d4: 57e07d00 fefefefe        sub.f	0,%r0,0xfefe_fefe		; 0xfefe_fefe = .regmask_lo+0x6fafeff
127dc: 50277e04                 sub	%r1,%r14,4
127e0: 60271c02                 mov.nz	%r1,%r14
127e4: 08078110                 ld	%r0,[%r15,-240]
127e8: 50008000                 sub	%r0,%r1,%r0
127ec: 08200000                 ld	%r1,[%r0]
127f0: 50070000                 sub	%r0,%r14,%r0
127f4: 6020fffe                 and	%r1,%r1,-2
127f8: 51a08000                 sub	%r13,%r1,%r0
127fc: 28031e20                 bl.d	_mwmutex_unlock
12800: 0807811c                 ld	%r0,[%r15,-228]
12804: 2002cba0                 b.d	__epilog_restore15
12808: 60069a00                 mov	%r0,%r13
each_item:
1280c: 100e3e04                 st	%blink,[%sp,4]
12810: 2802ba80                 bl	__prolog_save25
12814: 61df7c00 00017700        mov	%r14,0x1_7700		; 0x1_7700 = _ctype+0x50c
1281c: 62800000                 mov	%r20,%r0
12820: 62608200                 mov	%r19,%r1
12824: 62410400                 mov	%r18,%r2
12828: 42217e10                 add	%r17,%r2,16
1282c: 61a71c00                 mov	%r13,%r14
12830: 62071c00                 mov	%r16,%r14
12834: 20000120                 b.d	0x1_2840 = each_item+0x34
12838: 61e71c00                 mov	%r15,%r14
1283c: 42202200                 add	%r17,%r0,%r17
12840: 0809000c                 ld	%r0,[%r18,12]
12844: 57e88100                 sub.f	0,%r17,%r0
12848: 6028a20d                 mov.hi	%r1,%r17
1284c: 6049240d                 mov.hi	%r2,%r18
12850: 2ffdfa4d                 blhi.jd	corrupt
12854: 4006ff9a                 add	%r0,%r13,-102
12858: 633f7c00 00004a3c        mov	%r25,0x4a3c		; 0x4a3c = _STACKSIZE+0xa3c
12860: 6008a200                 mov	%r0,%r17
12864: 380a0220                 jl.d	[%r20]
12868: 6169a600                 mov	%r11,%r19
1286c: 08088000                 ld	%r0,[%r17]
12870: 62a07ffe                 and	%r21,%r0,-2
12874: 0809000c                 ld	%r0,[%r18,12]
12878: 402aa200                 add	%r1,%r21,%r17
1287c: 57e00300                 sub.f	0,%r0,%r1
12880: 6028a205                 mov.c	%r1,%r17
12884: 60492405                 mov.c	%r2,%r18
12888: 2ffdf345                 blc.jd	corrupt
1288c: 40087faf                 add	%r0,%r16,-81
12890: 67eafa02                 and.f	0,%r21,2
12894: 6028a202                 mov.nz	%r1,%r17
12898: 60492402                 mov.nz	%r2,%r18
1289c: 2ffdf0c2                 blnz.jd	corrupt
128a0: 4007ffc7                 add	%r0,%r15,-57
128a4: 081f0000 00018de4        ld	%r0,[0x1_8de4]		; _malloc_level
128ac: 57e07a00                 sub.f	0,%r0,0
128b0: 2000058c                 ble	0x1_28e0 = each_item+0xd4
128b4: 67eaab00                 mov.f	0,%r21
128b8: 20000481                 bz	0x1_28e0 = each_item+0xd4
128bc: 08088000                 ld	%r0,[%r17]
128c0: 60007ffe                 and	%r0,%r0,-2
128c4: 40088000                 add	%r0,%r17,%r0
128c8: 08000004                 ld	%r0,[%r0,4]
128cc: 57ea8100                 sub.f	0,%r21,%r0
128d0: 6028a202                 mov.nz	%r1,%r17
128d4: 60492402                 mov.nz	%r2,%r18
128d8: 2ffde942                 blnz.jd	corrupt
128dc: 40077fd5                 add	%r0,%r14,-43
128e0: 08088000                 ld	%r0,[%r17]
128e4: 60007bfe                 and.f	%r0,%r0,-2
128e8: 2002b901                 bz	__epilog_restore25
128ec: 27ffe980                 b	0x1_283c = each_item+0x30
128f0: 2802f400                 bl	__load13to25
128f4: 0bed8004                 ld	%blink,[%fp,4]
128f8: 380c8020                 j.d	[%r25]
128fc: 0b6e1044                 ld.a	%fp,[%sp,68]
display_segment._Yield_1:
12900: 100e3e04                 st	%blink,[%sp,4]
12904: 28027b80                 bl	__prolog_save0
12908: 2ffdb800                 bl	display_item
1290c: 601f7c00 000174ea        mov	%r0,0x1_74ea		; 0x1_74ea = _ctype+0x2f6
12914: 2801a280                 bl	_rterr_printf
12918: 2002a600                 b	__epilog_restore0
display_segment:
1291c: 100e3e04                 st	%blink,[%sp,4]
12920: 28027a80                 bl	__prolog_save13
12924: 61a00000                 mov	%r13,%r0
12928: 601f7c00 000176e9        mov	%r0,0x1_76e9		; 0x1_76e9 = _ctype+0x4f5
12930: 28019f00                 bl	_rterr_printf
12934: 2ffda8a0                 bl.d	print_segment
12938: 60069a00                 mov	%r0,%r13
1293c: 601f7c00 000174ea        mov	%r0,0x1_74ea		; 0x1_74ea = _ctype+0x2f6
12944: 28019c80                 bl	_rterr_printf
12948: 601f7c00 00004a40        mov	%r0,0x4a40		; 0x4a40 = _STACKSIZE+0xa40
12950: 602db600                 mov	%r1,%fp
12954: 2fffd6a0                 bl.d	each_item
12958: 60469a00                 mov	%r2,%r13
1295c: 20029e80                 b	__epilog_restore13
__mod_I__cstdgmalloc2c0____________c_stdg_malloc2_c_128:
12960: 601f7c00 00018df4        mov	%r0,0x1_8df4		; _mwheap_lock
12968: 2002ef00                 b	_mwmutex_create
each_segment:
1296c: 100e3e04                 st	%blink,[%sp,4]
12970: 28028e80                 bl	__prolog_save25
12974: 09df0000 00018de0        ld	%r14,[0x1_8de0]		; _mwhsegment_chain
1297c: 62000000                 mov	%r16,%r0
12980: 67e71d00                 mov.f	0,%r14
12984: 2002a5a1                 bz.d	__epilog_restore25
12988: 61e08200                 mov	%r15,%r1
1298c: 61bf7c00 00017700        mov	%r13,0x1_7700		; 0x1_7700 = _ctype+0x50c
12994: 08070004                 ld	%r0,[%r14,4]
12998: 67e00100                 mov.f	0,%r0
1299c: 20000301                 bz	0x1_29b8 = each_segment+0x4c
129a0: 08000000                 ld	%r0,[%r0]
129a4: 57e70100                 sub.f	0,%r14,%r0
129a8: 50208202                 sub.nz	%r1,%r1,%r1
129ac: 60471c02                 mov.nz	%r2,%r14
129b0: 2ffdce42                 blnz.jd	corrupt
129b4: 4006fffe                 add	%r0,%r13,-2
129b8: 633f7c00 00004a77        mov	%r25,0x4a77		; 0x4a77 = _STACKSIZE+0xa77
129c0: 60071c00                 mov	%r0,%r14
129c4: 38080220                 jl.d	[%r16]
129c8: 61679e00                 mov	%r11,%r15
129cc: 09c70004                 ld	%r14,[%r14,4]
129d0: 67e71d00                 mov.f	0,%r14
129d4: 20029b81                 bz	__epilog_restore25
129d8: 27fff700                 b	0x1_2994 = each_segment+0x28
129dc: 2802d680                 bl	__load13to25
129e0: 0bed8004                 ld	%blink,[%fp,4]
129e4: 380c8020                 j.d	[%r25]
129e8: 0b6e1044                 ld.a	%fp,[%sp,68]
fread:
129ec: 100e3e04                 st	%blink,[%sp,4]
129f0: 28026d00                 bl	__prolog_save18
129f4: 62200000                 mov	%r17,%r0
129f8: 62008200                 mov	%r16,%r1
129fc: 61a10400                 mov	%r13,%r2
12a00: 61e18600                 mov	%r15,%r3
12a04: 2ff90e20                 bl.d	_mwlock_file
12a08: 60018600                 mov	%r0,%r3
12a0c: 0807840c                 ldb	%r0,[%r15,12]
12a10: 67e07a30                 and.f	0,%r0,48
12a14: 20000381                 bz	0x1_2a34 = fread+0x48
12a18: 2fec4320                 bl.d	_isatty
12a1c: 0807840d                 ldb	%r0,[%r15,13]
12a20: 67e00100                 mov.f	0,%r0
12a24: 20005601                 bz	0x1_2cd8 = fread+0x2ec
12a28: 0807840c                 ldb	%r0,[%r15,12]
12a2c: 60007fcf                 and	%r0,%r0,-49
12a30: 1047800c                 stb	%r0,[%r15,12]
12a34: 61869a00                 mov	%r12,%r13
12a38: 61682000                 mov	%r11,%r16
12a3c: 679ffe20                 mov	%lp_count,32
12a40: 51a69a00                 sub	%r13,%r13,%r13
12a44: 30000180                 lp	0x1_2a54 = fread+0x68
12a48: 19658500                 lsr.f	%r11,%r11
12a4c: 41a69805                 add.c	%r13,%r13,%r12
12a50: 41861800                 asl	%r12,%r12
12a54: 67e07a04                 and.f	0,%r0,4
12a58: 200004a2                 bnz.d	0x1_2a80 = fread+0x94
12a5c: 51c71c00                 sub	%r14,%r14,%r14
12a60: 08078008                 ld	%r0,[%r15,8]
12a64: 67e00100                 mov.f	0,%r0
12a68: 20000282                 bnz	0x1_2a80 = fread+0x94
12a6c: 2ffc1da0                 bl.d	_finit
12a70: 60079e00                 mov	%r0,%r15
12a74: 57e07bff                 sub.f	0,%r0,-1
12a78: 20005121                 bz.d	0x1_2d04 = fread+0x318
12a7c: 61a71c01                 mov.z	%r13,%r14
12a80: 601f7c00 00018550        mov	%r0,0x1_8550		; __iob
12a88: 50078000                 sub	%r0,%r15,%r0
12a8c: 60007ff0                 and	%r0,%r0,-16
12a90: 40607c00 00018974        add	%r3,%r0,0x1_8974		; _iob_unget
12a98: 08218008                 ld	%r1,[%r3,8]
12a9c: 0841800c                 ld	%r2,[%r3,12]
12aa0: 57e10300                 sub.f	0,%r2,%r1
12aa4: 20000a2e                 bls.d	0x1_2af8 = fread+0x10c
12aa8: 51c71c0e                 sub.ls	%r14,%r14,%r14
12aac: 50010200                 sub	%r0,%r2,%r1
12ab0: 57e01b00                 sub.f	0,%r0,%r13
12ab4: 61c0000b                 mov.lt	%r14,%r0
12ab8: 61c69a0a                 mov.ge	%r14,%r13
12abc: 57e77a00                 sub.f	0,%r14,0
12ac0: 2000038c                 ble	0x1_2ae0 = fread+0xf4
12ac4: 67871c00                 mov	%lp_count,%r14
12ac8: 30000200                 lp	0x1_2adc = fread+0xf0
12acc: 50417e01                 sub	%r2,%r2,1
12ad0: 08010400                 ldb	%r0,[%r2]
12ad4: 10488000                 stb	%r0,[%r17]
12ad8: 4228fe01                 add	%r17,%r17,1
12adc: 1001840c                 st	%r2,[%r3,12]
12ae0: 57e10300                 sub.f	0,%r2,%r1
12ae4: 20000102                 bnz	0x1_2af0 = fread+0x104
12ae8: 08018000                 ld	%r0,[%r3]
12aec: 10078000                 st	%r0,[%r15]
12af0: 51a69d00                 sub.f	%r13,%r13,%r14
12af4: 20003b01                 bz	0x1_2cd0 = fread+0x2e4
12af8: 0807840c                 ldb	%r0,[%r15,12]
12afc: 67e07a04                 and.f	0,%r0,4
12b00: 20000a81                 bz	0x1_2b58 = fread+0x16c
12b04: 0807840d                 ldb	%r0,[%r15,13]
12b08: 6028a200                 mov	%r1,%r17
12b0c: 2fec0720                 bl.d	_read
12b10: 60469a00                 mov	%r2,%r13
12b14: 57e07a00                 sub.f	0,%r0,0
12b18: 2000040a                 bge	0x1_2b3c = fread+0x150
12b1c: 2802b580                 bl	___errno
12b20: 08000000                 ld	%r0,[%r0]
12b24: 57e07a04                 sub.f	0,%r0,4
12b28: 20003481                 bz	0x1_2cd0 = fread+0x2e4
12b2c: 0807840c                 ldb	%r0,[%r15,12]
12b30: 68007e30                 or	%r0,%r0,48
12b34: 20003320                 b.d	0x1_2cd0 = fread+0x2e4
12b38: 1047800c                 stb	%r0,[%r15,12]
12b3c: 57e68100                 sub.f	0,%r13,%r0
12b40: 200031ac                 ble.d	0x1_2cd0 = fread+0x2e4
12b44: 41c01c00                 add	%r14,%r0,%r14
12b48: 0807840c                 ldb	%r0,[%r15,12]
12b4c: 68007e10                 or	%r0,%r0,16
12b50: 20002fa0                 b.d	0x1_2cd0 = fread+0x2e4
12b54: 1047800c                 stb	%r0,[%r15,12]
12b58: 67e07a01                 and.f	0,%r0,1
12b5c: 20000302                 bnz	0x1_2b78 = fread+0x18c
12b60: 08278008                 ld	%r1,[%r15,8]
12b64: 68007e01                 or	%r0,%r0,1
12b68: 1047800c                 stb	%r0,[%r15,12]
12b6c: 10078204                 st	%r1,[%r15,4]
12b70: 50208200                 sub	%r1,%r1,%r1
12b74: 10078200                 st	%r1,[%r15]
12b78: 08078000                 ld	%r0,[%r15]
12b7c: 57e07a00                 sub.f	0,%r0,0
12b80: 2000080c                 ble	0x1_2bc4 = fread+0x1d8
12b84: 57e01b00                 sub.f	0,%r0,%r13
12b88: 08278004                 ld	%r1,[%r15,4]
12b8c: 6240000b                 mov.lt	%r18,%r0
12b90: 62469a0a                 mov.ge	%r18,%r13
12b94: 6008a200                 mov	%r0,%r17
12b98: 2ff852a0                 bl.d	memcpy
12b9c: 60492400                 mov	%r2,%r18
12ba0: 08078004                 ld	%r0,[%r15,4]
12ba4: 51a6a400                 sub	%r13,%r13,%r18
12ba8: 41c91c00                 add	%r14,%r18,%r14
12bac: 42292200                 add	%r17,%r18,%r17
12bb0: 40090000                 add	%r0,%r18,%r0
12bb4: 10078004                 st	%r0,[%r15,4]
12bb8: 08078000                 ld	%r0,[%r15]
12bbc: 50002400                 sub	%r0,%r0,%r18
12bc0: 10078000                 st	%r0,[%r15]
12bc4: 57e6fa00                 sub.f	0,%r13,0
12bc8: 2000208c                 ble	0x1_2cd0 = fread+0x2e4
12bcc: 0807840d                 ldb	%r0,[%r15,13]
12bd0: 40000000                 asl	%r0,%r0
12bd4: 40000000                 asl	%r0,%r0
12bd8: 40007c00 00018488        add	%r0,%r0,0x1_8488		; _bufendtab
12be0: 08200000                 ld	%r1,[%r0]
12be4: 08078008                 ld	%r0,[%r15,8]
12be8: 50008000                 sub	%r0,%r1,%r0
12bec: 57e68100                 sub.f	0,%r13,%r0
12bf0: 2000020a                 bge	0x1_2c04 = fread+0x218
12bf4: 28015020                 bl.d	_fill
12bf8: 60079e00                 mov	%r0,%r15
12bfc: 67e00100                 mov.f	0,%r0
12c00: 20001981                 bz	0x1_2cd0 = fread+0x2e4
12c04: 08078000                 ld	%r0,[%r15]
12c08: 57e07a00                 sub.f	0,%r0,0
12c0c: 2000158c                 ble	0x1_2cbc = fread+0x2d0
12c10: 57e01b00                 sub.f	0,%r0,%r13
12c14: 08278004                 ld	%r1,[%r15,4]
12c18: 6240000b                 mov.lt	%r18,%r0
12c1c: 62469a0a                 mov.ge	%r18,%r13
12c20: 6008a200                 mov	%r0,%r17
12c24: 2ff84120                 bl.d	memcpy
12c28: 60492400                 mov	%r2,%r18
12c2c: 08078004                 ld	%r0,[%r15,4]
12c30: 51a6a400                 sub	%r13,%r13,%r18
12c34: 41c91c00                 add	%r14,%r18,%r14
12c38: 40090000                 add	%r0,%r18,%r0
12c3c: 10078004                 st	%r0,[%r15,4]
12c40: 08078000                 ld	%r0,[%r15]
12c44: 50002400                 sub	%r0,%r0,%r18
12c48: 10078000                 st	%r0,[%r15]
12c4c: 20000da0                 b.d	0x1_2cbc = fread+0x2d0
12c50: 42292200                 add	%r17,%r18,%r17
12c54: 0807840d                 ldb	%r0,[%r15,13]
12c58: 6028a200                 mov	%r1,%r17
12c5c: 2febdd20                 bl.d	_read
12c60: 60469a00                 mov	%r2,%r13
12c64: 62400100                 mov.f	%r18,%r0
12c68: 2000078f                 bpnz	0x1_2ca8 = fread+0x2bc
12c6c: 67e92500                 mov.f	0,%r18
12c70: 20000201                 bz	0x1_2c84 = fread+0x298
12c74: 28028a80                 bl	___errno
12c78: 08000000                 ld	%r0,[%r0]
12c7c: 57e07a04                 sub.f	0,%r0,4
12c80: 20000381                 bz	0x1_2ca0 = fread+0x2b4
12c84: 57e97a00                 sub.f	0,%r18,0
12c88: 200001aa                 bge.d	0x1_2c98 = fread+0x2ac
12c8c: 0807840c                 ldb	%r0,[%r15,12]
12c90: 68007e20                 or	%r0,%r0,32
12c94: 1047800c                 stb	%r0,[%r15,12]
12c98: 68007e10                 or	%r0,%r0,16
12c9c: 1047800c                 stb	%r0,[%r15,12]
12ca0: 20000220                 b.d	0x1_2cb4 = fread+0x2c8
12ca4: 51a69a00                 sub	%r13,%r13,%r13
12ca8: 41c91c00                 add	%r14,%r18,%r14
12cac: 51a6a400                 sub	%r13,%r13,%r18
12cb0: 42292200                 add	%r17,%r18,%r17
12cb4: 57e6fa00                 sub.f	0,%r13,0
12cb8: 2000048c                 ble	0x1_2ce0 = fread+0x2f4
12cbc: 57e6fa00                 sub.f	0,%r13,0
12cc0: 2000018c                 ble	0x1_2cd0 = fread+0x2e4
12cc4: 0807840c                 ldb	%r0,[%r15,12]
12cc8: 67e07a10                 and.f	0,%r0,16
12ccc: 27fff081                 bz	0x1_2c54 = fread+0x268
12cd0: 67e82100                 mov.f	0,%r16
12cd4: 20000382                 bnz	0x1_2cf4 = fread+0x308
12cd8: 20000520                 b.d	0x1_2d04 = fread+0x318
12cdc: 51a69a00                 sub	%r13,%r13,%r13
12ce0: 08078008                 ld	%r0,[%r15,8]
12ce4: 10078004                 st	%r0,[%r15,4]
12ce8: 50000000                 sub	%r0,%r0,%r0
12cec: 27fff9a0                 b.d	0x1_2cbc = fread+0x2d0
12cf0: 10078000                 st	%r0,[%r15]
12cf4: 60071c00                 mov	%r0,%r14
12cf8: 28028720                 bl.d	_udivmod
12cfc: 60282000                 mov	%r1,%r16
12d00: 61a00000                 mov	%r13,%r0
12d04: 2ff8b4a0                 bl.d	_mwunlock_file
12d08: 60079e00                 mov	%r0,%r15
12d0c: 20022da0                 b.d	__epilog_restore18
12d10: 60069a00                 mov	%r0,%r13
close_files:
12d14: 100e3e04                 st	%blink,[%sp,4]
12d18: 280208a0                 bl.d	__prolog_save18sp
12d1c: 619ffe2c                 mov	%r12,44
12d20: 5228a200                 sub	%r17,%r17,%r17
12d24: 100da3fc                 st	%r17,[%fp,-4]
12d28: 083f0000 00018870        ld	%r1,[0x1_8870]		; _fopen_max
12d30: 61df7c00 00018550        mov	%r14,0x1_8550		; __iob
12d38: 5020fe01                 sub	%r1,%r1,1
12d3c: 57e08100                 sub.f	0,%r1,%r0
12d40: 41edfffc                 add	%r15,%fp,-4
12d44: 20000d8b                 blt	0x1_2db4 = close_files+0xa0
12d48: 50208000                 sub	%r1,%r1,%r0
12d4c: 4200fe01                 add	%r16,%r1,1
12d50: 61a00000                 mov	%r13,%r0
12d54: 40000000                 asl	%r0,%r0
12d58: 40000000                 asl	%r0,%r0
12d5c: 40000000                 asl	%r0,%r0
12d60: 40000000                 asl	%r0,%r0
12d64: 42401c00                 add	%r18,%r0,%r14
12d68: 2ff8a1a0                 bl.d	_mwlock_file
12d6c: 60092400                 mov	%r0,%r18
12d70: 0809040c                 ldb	%r0,[%r18,12]
12d74: 67e00100                 mov.f	0,%r0
12d78: 20000401                 bz	0x1_2d9c = close_files+0x88
12d7c: 2ffbb420                 bl.d	fclose
12d80: 60092400                 mov	%r0,%r18
12d84: 57e07bff                 sub.f	0,%r0,-1
12d88: 20000242                 bnz.jd	0x1_2d9c = close_files+0x88
12d8c: 4228fe01                 add	%r17,%r17,1
12d90: 08078000                 ld	%r0,[%r15]
12d94: 40007e01                 add	%r0,%r0,1
12d98: 10078000                 st	%r0,[%r15]
12d9c: 2ff8a1a0                 bl.d	_mwunlock_file
12da0: 60092400                 mov	%r0,%r18
12da4: 52087e01                 sub	%r16,%r16,1
12da8: 57e87a00                 sub.f	0,%r16,0
12dac: 27fff42d                 bhi.d	0x1_2d50 = close_files+0x3c
12db0: 4006fe01                 add	%r0,%r13,1
12db4: 080d81fc                 ld	%r0,[%fp,-4]
12db8: 67e00100                 mov.f	0,%r0
12dbc: 623f7c02 ffffffff        mov.nz	%r17,-1		; 0xffff_ffff = .regmask_lo+0x7fc0000
12dc4: 6008a200                 mov	%r0,%r17
12dc8: 200222a0                 b.d	__epilog_load18
12dcc: 619ffe2c                 mov	%r12,44
_fcloseall:
12dd0: 27ffe820                 b.d	close_files
12dd4: 601ffe03                 mov	%r0,3
_fclose_exit:
12dd8: 27ffe720                 b.d	close_files
12ddc: 50000000                 sub	%r0,%r0,%r0
setvbuf:
12de0: 100e3e04                 st	%blink,[%sp,4]
12de4: 2801e980                 bl	__prolog_save16
12de8: 61a00000                 mov	%r13,%r0
12dec: 62008200                 mov	%r16,%r1
12df0: 61c10400                 mov	%r14,%r2
12df4: 2ff89020                 bl.d	_mwlock_file
12df8: 61e18600                 mov	%r15,%r3
12dfc: 08068008                 ld	%r0,[%r13,8]
12e00: 67e00100                 mov.f	0,%r0
12e04: 20000ec2                 bnz.jd	0x1_2e7c = setvbuf+0x9c
12e08: 61dffe05                 mov	%r14,5
12e0c: 60077a44                 and.f	%r0,%r14,68
12e10: 20000201                 bz	0x1_2e24 = setvbuf+0x44
12e14: 57e07a04                 sub.f	0,%r0,4
12e18: 20000401                 bz	0x1_2e3c = setvbuf+0x5c
12e1c: 57e07a40                 sub.f	0,%r0,64
12e20: 20000202                 bnz	0x1_2e34 = setvbuf+0x54
12e24: 67e82100                 mov.f	0,%r16
12e28: 20000d82                 bnz	0x1_2e98 = setvbuf+0xb8
12e2c: 67e79f00                 mov.f	0,%r15
12e30: 20000382                 bnz	0x1_2e50 = setvbuf+0x70
12e34: 200008a0                 b.d	0x1_2e7c = setvbuf+0x9c
12e38: 61dffe16                 mov	%r14,22
12e3c: 50000000                 sub	%r0,%r0,%r0
12e40: 10068004                 st	%r0,[%r13,4]
12e44: 10068008                 st	%r0,[%r13,8]
12e48: 20000ea0                 b.d	0x1_2ec0 = setvbuf+0xe0
12e4c: 10068000                 st	%r0,[%r13]
12e50: 0806840c                 ldb	%r0,[%r13,12]
12e54: 67e07d00 00000200        and.f	0,%r0,0x200		; 0x200 = FEXP_MAX+0x101
12e5c: 200001a1                 bz.d	0x1_2e6c = setvbuf+0x8c
12e60: 60079e00                 mov	%r0,%r15
12e64: 2ffcd500                 bl	_smalloc
12e68: 20000080                 b	0x1_2e70 = setvbuf+0x90
12e6c: 2ffe5f00                 bl	malloc
12e70: 62000100                 mov.f	%r16,%r0
12e74: 20000282                 bnz	0x1_2e8c = setvbuf+0xac
12e78: 61dffe0c                 mov	%r14,12
12e7c: 28024980                 bl	___errno
12e80: 10001c00                 st	%r14,[%r0]
12e84: 200009a0                 b.d	0x1_2ed4 = setvbuf+0xf4
12e88: 61dfffff                 mov	%r14,-1
12e8c: 0806840c                 ldb	%r0,[%r13,12]
12e90: 68007e08                 or	%r0,%r0,8
12e94: 1046800c                 stb	%r0,[%r13,12]
12e98: 1006a008                 st	%r16,[%r13,8]
12e9c: 08068008                 ld	%r0,[%r13,8]
12ea0: 1006a004                 st	%r16,[%r13,4]
12ea4: 40201e00                 add	%r1,%r0,%r15
12ea8: 0806840d                 ldb	%r0,[%r13,13]
12eac: 40000000                 asl	%r0,%r0
12eb0: 40000000                 asl	%r0,%r0
12eb4: 40007c00 00018488        add	%r0,%r0,0x1_8488		; _bufendtab
12ebc: 10000200                 st	%r1,[%r0]
12ec0: 0806840c                 ldb	%r0,[%r13,12]
12ec4: 60007fbb                 and	%r0,%r0,-69
12ec8: 68001c00                 or	%r0,%r0,%r14
12ecc: 1046800c                 stb	%r0,[%r13,12]
12ed0: 51c71c00                 sub	%r14,%r14,%r14
12ed4: 2ff87aa0                 bl.d	_mwunlock_file
12ed8: 60069a00                 mov	%r0,%r13
12edc: 2001f1a0                 b.d	__epilog_restore16
12ee0: 60071c00                 mov	%r0,%r14
_flushall:
12ee4: 100e3e04                 st	%blink,[%sp,4]
12ee8: 2801cea0                 bl.d	__prolog_save18sp
12eec: 619ffe2c                 mov	%r12,44
12ef0: 51c71c00                 sub	%r14,%r14,%r14
12ef4: 09bf0000 00018870        ld	%r13,[0x1_8870]		; _fopen_max
12efc: 621f7c00 00018550        mov	%r16,0x1_8550		; __iob
12f04: 57e6fa01                 sub.f	0,%r13,1
12f08: 100d9dfc                 st	%r14,[%fp,-4]
12f0c: 20000d24                 bn.d	0x1_2f78 = _flushall+0x94
12f10: 41edfffc                 add	%r15,%fp,-4
12f14: 62471c00                 mov	%r18,%r14
12f18: 40092400                 asl	%r0,%r18
12f1c: 40000000                 asl	%r0,%r0
12f20: 40000000                 asl	%r0,%r0
12f24: 40000000                 asl	%r0,%r0
12f28: 42202000                 add	%r17,%r0,%r16
12f2c: 2ff86920                 bl.d	_mwlock_file
12f30: 6008a200                 mov	%r0,%r17
12f34: 0808840c                 ldb	%r0,[%r17,12]
12f38: 67e00100                 mov.f	0,%r0
12f3c: 20000401                 bz	0x1_2f60 = _flushall+0x7c
12f40: 2ffbb820                 bl.d	fflush
12f44: 6008a200                 mov	%r0,%r17
12f48: 57e07bff                 sub.f	0,%r0,-1
12f4c: 20000242                 bnz.jd	0x1_2f60 = _flushall+0x7c
12f50: 41c77e01                 add	%r14,%r14,1
12f54: 08078000                 ld	%r0,[%r15]
12f58: 40007e01                 add	%r0,%r0,1
12f5c: 10078000                 st	%r0,[%r15]
12f60: 2ff86920                 bl.d	_mwunlock_file
12f64: 6008a200                 mov	%r0,%r17
12f68: 51a6fe01                 sub	%r13,%r13,1
12f6c: 57e6fa00                 sub.f	0,%r13,0
12f70: 27fff4ad                 bhi.d	0x1_2f18 = _flushall+0x34
12f74: 42497e01                 add	%r18,%r18,1
12f78: 082d81fc                 ld	%r1,[%fp,-4]
12f7c: 60071c00                 mov	%r0,%r14
12f80: 67e08300                 mov.f	0,%r1
12f84: 601f7c02 ffffffff        mov.nz	%r0,-1		; 0xffff_ffff = .regmask_lo+0x7fc0000
12f8c: 2001ea20                 b.d	__epilog_load18
12f90: 619ffe2c                 mov	%r12,44
_fpecvt:
12f94: 08400004                 ld	%r2,[%r0,4]
12f98: 18bf8601                 ror	%r5,1
12f9c: 679ffe0a                 mov	%lp_count,10
12fa0: 60210400                 mov	%r1,%r2
12fa4: 30000100                 lp	0x1_2fb0 = _fpecvt+0x1c
12fa8: 18208400                 lsr	%r1,%r1
12fac: 18208400                 lsr	%r1,%r1
12fb0: 6020fc00 000007ff        and	%r1,%r1,0x7ff		; DEXP_MAX
12fb8: 57e0fd00 000007ff        sub.f	0,%r1,0x7ff		; DEXP_MAX
12fc0: 20000a82                 bnz	0x1_3018 = _fpecvt+0x84
12fc4: 50208200                 sub	%r1,%r1,%r1
12fc8: 10018200                 st	%r1,[%r3]
12fcc: 08200004                 ld	%r1,[%r0,4]
12fd0: 60208a00                 and	%r1,%r1,%r5
12fd4: 5020fa00                 sub.f	%r1,%r1,0
12fd8: 603f7c02 00000001        mov.nz	%r1,1		; 0x1 = .regmask_lo+1
12fe0: 10020200                 st	%r1,[%r4]
12fe4: 08200004                 ld	%r1,[%r0,4]
12fe8: 67e0fd00 000fffff        and.f	0,%r1,0xf_ffff		; 0xf_ffff = _end+0xe0727
12ff0: 603f7c00 00018f44        mov	%r1,0x1_8f44		; 0x1_8f44 = scale+0x34
12ff8: 20000182                 bnz	0x1_3008 = _fpecvt+0x74
12ffc: 08000000                 ld	%r0,[%r0]
13000: 67e00100                 mov.f	0,%r0
13004: 20000101                 bz	0x1_3010 = _fpecvt+0x7c
13008: 380f8020                 j.d	[%blink]
1300c: 080081b8                 ld	%r0,[%r1,-72]
13010: 380f8020                 j.d	[%blink]
13014: 080081bc                 ld	%r0,[%r1,-68]
13018: 67e17d00 7fffffff        and.f	0,%r2,0x7fff_ffff		; 0x7fff_ffff = .regmask_lo+0x63fffffc
13020: 20000182                 bnz	0x1_3030 = _fpecvt+0x9c
13024: 08200000                 ld	%r1,[%r0]
13028: 67e08300                 mov.f	0,%r1
1302c: 20000101                 bz	0x1_3038 = _fpecvt+0xa4
13030: 380f8020                 j.d	[%blink]
13034: 50000000                 sub	%r0,%r0,%r0
13038: 603ffe01                 mov	%r1,1
1303c: 10018200                 st	%r1,[%r3]
13040: 08000004                 ld	%r0,[%r0,4]
13044: 60000a00                 and	%r0,%r0,%r5
13048: 50007a00                 sub.f	%r0,%r0,0
1304c: 601f7c02 00000001        mov.nz	%r0,1		; 0x1 = .regmask_lo+1
13054: 10020000                 st	%r0,[%r4]
13058: 601f7c00 00018f0c        mov	%r0,0x1_8f0c		; 0x1_8f0c = fpinf+12
13060: 380f8000                 j	[%blink]
_fpecvtd:
13064: 08400004                 ld	%r2,[%r0,4]
13068: 18bf8601                 ror	%r5,1
1306c: 679ffe0a                 mov	%lp_count,10
13070: 60210400                 mov	%r1,%r2
13074: 30000100                 lp	0x1_3080 = _fpecvtd+0x1c
13078: 18208400                 lsr	%r1,%r1
1307c: 18208400                 lsr	%r1,%r1
13080: 6020fc00 000007ff        and	%r1,%r1,0x7ff		; DEXP_MAX
13088: 57e0fd00 000007ff        sub.f	0,%r1,0x7ff		; DEXP_MAX
13090: 20000a82                 bnz	0x1_30e8 = _fpecvtd+0x84
13094: 50208200                 sub	%r1,%r1,%r1
13098: 10018200                 st	%r1,[%r3]
1309c: 08200004                 ld	%r1,[%r0,4]
130a0: 60208a00                 and	%r1,%r1,%r5
130a4: 5020fa00                 sub.f	%r1,%r1,0
130a8: 603f7c02 00000001        mov.nz	%r1,1		; 0x1 = .regmask_lo+1
130b0: 10020200                 st	%r1,[%r4]
130b4: 08200004                 ld	%r1,[%r0,4]
130b8: 67e0fd00 000fffff        and.f	0,%r1,0xf_ffff		; 0xf_ffff = _end+0xe0727
130c0: 603f7c00 00018f44        mov	%r1,0x1_8f44		; 0x1_8f44 = scale+0x34
130c8: 20000182                 bnz	0x1_30d8 = _fpecvtd+0x74
130cc: 08000000                 ld	%r0,[%r0]
130d0: 67e00100                 mov.f	0,%r0
130d4: 20000101                 bz	0x1_30e0 = _fpecvtd+0x7c
130d8: 380f8020                 j.d	[%blink]
130dc: 080081b8                 ld	%r0,[%r1,-72]
130e0: 380f8020                 j.d	[%blink]
130e4: 080081bc                 ld	%r0,[%r1,-68]
130e8: 67e17d00 7fffffff        and.f	0,%r2,0x7fff_ffff		; 0x7fff_ffff = .regmask_lo+0x63fffffc
130f0: 20000182                 bnz	0x1_3100 = _fpecvtd+0x9c
130f4: 08200000                 ld	%r1,[%r0]
130f8: 67e08300                 mov.f	0,%r1
130fc: 20000101                 bz	0x1_3108 = _fpecvtd+0xa4
13100: 380f8020                 j.d	[%blink]
13104: 50000000                 sub	%r0,%r0,%r0
13108: 603ffe01                 mov	%r1,1
1310c: 10018200                 st	%r1,[%r3]
13110: 08000004                 ld	%r0,[%r0,4]
13114: 60000a00                 and	%r0,%r0,%r5
13118: 50007a00                 sub.f	%r0,%r0,0
1311c: 601f7c02 00000001        mov.nz	%r0,1		; 0x1 = .regmask_lo+1
13124: 10020000                 st	%r0,[%r4]
13128: 601f7c00 00018f0e        mov	%r0,0x1_8f0e		; 0x1_8f0e = fpinf+14
13130: 380f8000                 j	[%blink]
_fpexpo:
13134: 08000004                 ld	%r0,[%r0,4]
13138: 679ffe0a                 mov	%lp_count,10
1313c: 7fffffff                 nop
13140: 30000100                 lp	0x1_314c = _fpexpo+0x18
13144: 18000400                 lsr	%r0,%r0
13148: 18000400                 lsr	%r0,%r0
1314c: 60007c00 000007ff        and	%r0,%r0,0x7ff		; DEXP_MAX
13154: 50007c00 000003fe        sub	%r0,%r0,0x3fe		; 0x3fe = FEXP_MAX+0x2ff
1315c: 380f8000                 j	[%blink]
_fpexpod:
13160: 08000004                 ld	%r0,[%r0,4]
13164: 679ffe0a                 mov	%lp_count,10
13168: 7fffffff                 nop
1316c: 30000100                 lp	0x1_3178 = _fpexpod+0x18
13170: 18000400                 lsr	%r0,%r0
13174: 18000400                 lsr	%r0,%r0
13178: 60007c00 000007ff        and	%r0,%r0,0x7ff		; DEXP_MAX
13180: 50007c00 000003fe        sub	%r0,%r0,0x3fe		; 0x3fe = FEXP_MAX+0x2ff
13188: 380f8000                 j	[%blink]
_fpoddf:
1318c: 679ffe0b                 mov	%lp_count,11
13190: 18200400                 lsr	%r1,%r0
13194: 30000100                 lp	0x1_31a0 = _fpoddf+0x14
13198: 18208400                 lsr	%r1,%r1
1319c: 18208400                 lsr	%r1,%r1
131a0: 18208e00                 extb	%r1,%r1
131a4: 5020fe7e                 sub	%r1,%r1,126
131a8: 57e0fa01                 sub.f	0,%r1,1
131ac: 2000060c                 ble	0x1_31e0 = _fpoddf+0x54
131b0: 57e0fa18                 sub.f	0,%r1,24
131b4: 20000509                 bgt	0x1_31e0 = _fpoddf+0x54
131b8: 4020fe07                 add	%r1,%r1,7
131bc: 185f8601                 ror	%r2,1
131c0: 1f808300                 asr.f	%lp_count,%r1
131c4: 60210400                 mov	%r1,%r2
131c8: 18208405                 lsr.c	%r1,%r1
131cc: 30000102                 lpnz	0x1_31d8 = _fpoddf+0x4c
131d0: 18208400                 lsr	%r1,%r1
131d4: 18208400                 lsr	%r1,%r1
131d8: 380f8020                 j.d	[%blink]
131dc: 60000200                 and	%r0,%r0,%r1
131e0: 57e0fa01                 sub.f	0,%r1,1
131e4: 601ffe01                 mov	%r0,1
131e8: 601f7c02 00000000        mov.nz	%r0,0		; .CC_I
131f0: 380f8000                 j	[%blink]
_fpodd:
131f4: 538e7e08                 sub	%sp,%sp,8
131f8: 100e3600                 st	%fp,[%sp]
131fc: 636e3800                 mov	%fp,%sp
13200: 679ffe0a                 mov	%lp_count,10
13204: 60408200                 mov	%r2,%r1
13208: 30000100                 lp	0x1_3214 = _fpodd+0x20
1320c: 18410400                 lsr	%r2,%r2
13210: 18410400                 lsr	%r2,%r2
13214: 60417c00 000007ff        and	%r2,%r2,0x7ff		; DEXP_MAX
1321c: 50417c00 000003fe        sub	%r2,%r2,0x3fe		; 0x3fe = FEXP_MAX+0x2ff
13224: 57e17a01                 sub.f	0,%r2,1
13228: 20000b8c                 ble	0x1_3288 = _fpodd+0x94
1322c: 57e17a35                 sub.f	0,%r2,53
13230: 20000a89                 bgt	0x1_3288 = _fpodd+0x94
13234: 57e17a15                 sub.f	0,%r2,21
13238: 200004a9                 bgt.d	0x1_3260 = _fpodd+0x6c
1323c: 187f8601                 ror	%r3,1
13240: 40417e0a                 add	%r2,%r2,10
13244: 1f810300                 asr.f	%lp_count,%r2
13248: 60418600                 mov	%r2,%r3
1324c: 18410405                 lsr.c	%r2,%r2
13250: 30000102                 lpnz	0x1_325c = _fpodd+0x68
13254: 18410400                 lsr	%r2,%r2
13258: 18410400                 lsr	%r2,%r2
1325c: 20000400                 b	0x1_3280 = _fpodd+0x8c
13260: 50417e16                 sub	%r2,%r2,22
13264: 1f810300                 asr.f	%lp_count,%r2
13268: 60418600                 mov	%r2,%r3
1326c: 18410405                 lsr.c	%r2,%r2
13270: 30000102                 lpnz	0x1_327c = _fpodd+0x88
13274: 18410400                 lsr	%r2,%r2
13278: 18410400                 lsr	%r2,%r2
1327c: 60200000                 mov	%r1,%r0
13280: 200002a0                 b.d	0x1_3298 = _fpodd+0xa4
13284: 60008400                 and	%r0,%r1,%r2
13288: 57e17a01                 sub.f	0,%r2,1
1328c: 601ffe01                 mov	%r0,1
13290: 601f7c02 00000000        mov.nz	%r0,0		; .CC_I
13298: 0b6e1000                 ld.a	%fp,[%sp]
1329c: 380f8020                 j.d	[%blink]
132a0: 438e7e08                 add	%sp,%sp,8
_fptrnf:
132a4: 538e7e04                 sub	%sp,%sp,4
132a8: 100e3600                 st	%fp,[%sp]
132ac: 636e3800                 mov	%fp,%sp
132b0: 60400000                 mov	%r2,%r0
132b4: 100d8010                 st	%r0,[%fp,16]
132b8: 679ffe0b                 mov	%lp_count,11
132bc: 18010400                 lsr	%r0,%r2
132c0: 30000100                 lp	0x1_32cc = _fptrnf+0x28
132c4: 18000400                 lsr	%r0,%r0
132c8: 18000400                 lsr	%r0,%r0
132cc: 18000e00                 extb	%r0,%r0
132d0: 50007e7e                 sub	%r0,%r0,126
132d4: 57e07a00                 sub.f	0,%r0,0
132d8: 2000078c                 ble	0x1_3318 = _fptrnf+0x74
132dc: 57e07a18                 sub.f	0,%r0,24
132e0: 20000589                 bgt	0x1_3310 = _fptrnf+0x6c
132e4: 501f8018                 sub	%r0,24,%r0
132e8: 603ffe01                 mov	%r1,1
132ec: 1f800300                 asr.f	%lp_count,%r0
132f0: 60008200                 mov	%r0,%r1
132f4: 40000005                 asl.c	%r0,%r0
132f8: 30000102                 lpnz	0x1_3304 = _fptrnf+0x60
132fc: 40000000                 asl	%r0,%r0
13300: 40000000                 asl	%r0,%r0
13304: 50007e01                 sub	%r0,%r0,1
13308: 70010000                 bic	%r0,%r2,%r0
1330c: 100d8010                 st	%r0,[%fp,16]
13310: 20000120                 b.d	0x1_331c = _fptrnf+0x78
13314: 080d8010                 ld	%r0,[%fp,16]
13318: 50000000                 sub	%r0,%r0,%r0
1331c: 0b6e1000                 ld.a	%fp,[%sp]
13320: 380f8020                 j.d	[%blink]
13324: 438e7e04                 add	%sp,%sp,4
_fptrn:
13328: 538e7e08                 sub	%sp,%sp,8
1332c: 100e3600                 st	%fp,[%sp]
13330: 636e3800                 mov	%fp,%sp
13334: 100d8010                 st	%r0,[%fp,16]
13338: 100d8214                 st	%r1,[%fp,20]
1333c: 679ffe0a                 mov	%lp_count,10
13340: 7fffffff                 nop
13344: 30000100                 lp	0x1_3350 = _fptrn+0x28
13348: 18208400                 lsr	%r1,%r1
1334c: 18208400                 lsr	%r1,%r1
13350: 6020fc00 000007ff        and	%r1,%r1,0x7ff		; DEXP_MAX
13358: 5020fc00 000003fe        sub	%r1,%r1,0x3fe		; 0x3fe = FEXP_MAX+0x2ff
13360: 57e0fa00                 sub.f	0,%r1,0
13364: 20000f8c                 ble	0x1_33e4 = _fptrn+0xbc
13368: 57e0fa15                 sub.f	0,%r1,21
1336c: 20000709                 bgt	0x1_33a8 = _fptrn+0x80
13370: 50000000                 sub	%r0,%r0,%r0
13374: 100d8010                 st	%r0,[%fp,16]
13378: 503f8215                 sub	%r1,21,%r1
1337c: 1f808300                 asr.f	%lp_count,%r1
13380: 601ffe01                 mov	%r0,1
13384: 40000005                 asl.c	%r0,%r0
13388: 30000102                 lpnz	0x1_3394 = _fptrn+0x6c
1338c: 40000000                 asl	%r0,%r0
13390: 40000000                 asl	%r0,%r0
13394: 50207e01                 sub	%r1,%r0,1
13398: 080d8014                 ld	%r0,[%fp,20]
1339c: 70000200                 bic	%r0,%r0,%r1
133a0: 200006a0                 b.d	0x1_33d8 = _fptrn+0xb0
133a4: 100d8014                 st	%r0,[%fp,20]
133a8: 57e0fa35                 sub.f	0,%r1,53
133ac: 2000050a                 bge	0x1_33d8 = _fptrn+0xb0
133b0: 505f8235                 sub	%r2,53,%r1
133b4: 1f810300                 asr.f	%lp_count,%r2
133b8: 603ffe01                 mov	%r1,1
133bc: 40208205                 asl.c	%r1,%r1
133c0: 30000102                 lpnz	0x1_33cc = _fptrn+0xa4
133c4: 40208200                 asl	%r1,%r1
133c8: 40208200                 asl	%r1,%r1
133cc: 5020fe01                 sub	%r1,%r1,1
133d0: 70000200                 bic	%r0,%r0,%r1
133d4: 100d8010                 st	%r0,[%fp,16]
133d8: 080d8010                 ld	%r0,[%fp,16]
133dc: 27ffd720                 b.d	0x1_3298 = _fpodd+0xa4
133e0: 082d8014                 ld	%r1,[%fp,20]
133e4: 50000000                 sub	%r0,%r0,%r0
133e8: 27ffd5a0                 b.d	0x1_3298 = _fpodd+0xa4
133ec: 60200000                 mov	%r1,%r0
_pow10d:
133f0: 100e3e04                 st	%blink,[%sp,4]
133f4: 28012780                 bl	__prolog_save16
133f8: 61df7c00 00019010        mov	%r14,0x1_9010		; settings
13400: 621ffe01                 mov	%r16,1
13404: 61fffe09                 mov	%r15,9
13408: 08470100                 ld	%r2,[%r14,-256]
1340c: 08670104                 ld	%r3,[%r14,-252]
13410: 61a00100                 mov.f	%r13,%r0
13414: 20000881                 bz	0x1_345c = _pow10d+0x6c
13418: 67e6fa01                 and.f	0,%r13,1
1341c: 20000501                 bz	0x1_3448 = _pow10d+0x58
13420: 40282000                 asl	%r1,%r16
13424: 40208200                 asl	%r1,%r1
13428: 40208200                 asl	%r1,%r1
1342c: 40077f00                 add	%r0,%r14,-256
13430: 40200200                 add	%r1,%r0,%r1
13434: 08008000                 ld	%r0,[%r1]
13438: 28024720                 bl.d	full_entry
1343c: 08208004                 ld	%r1,[%r1,4]
13440: 60400000                 mov	%r2,%r0
13444: 60608200                 mov	%r3,%r1
13448: 51e7fe01                 sub	%r15,%r15,1
1344c: 57e7fa00                 sub.f	0,%r15,0
13450: 18068200                 asr	%r0,%r13
13454: 27fff72d                 bhi.d	0x1_3410 = _pow10d+0x20
13458: 42087e01                 add	%r16,%r16,1
1345c: 60010400                 mov	%r0,%r2
13460: 20014120                 b.d	__epilog_restore16
13464: 60218600                 mov	%r1,%r3
_pow10:
13468: 100e3e04                 st	%blink,[%sp,4]
1346c: 28011880                 bl	__prolog_save16
13470: 61df7c00 00019060        mov	%r14,0x1_9060		; 0x1_9060 = settings+0x50
13478: 621ffe01                 mov	%r16,1
1347c: 61fffe09                 mov	%r15,9
13480: 08470100                 ld	%r2,[%r14,-256]
13484: 08670104                 ld	%r3,[%r14,-252]
13488: 61a00100                 mov.f	%r13,%r0
1348c: 20000881                 bz	0x1_34d4 = _pow10+0x6c
13490: 67e6fa01                 and.f	0,%r13,1
13494: 20000501                 bz	0x1_34c0 = _pow10+0x58
13498: 40282000                 asl	%r1,%r16
1349c: 40208200                 asl	%r1,%r1
134a0: 40208200                 asl	%r1,%r1
134a4: 40077f00                 add	%r0,%r14,-256
134a8: 40200200                 add	%r1,%r0,%r1
134ac: 08008000                 ld	%r0,[%r1]
134b0: 28023820                 bl.d	full_entry
134b4: 08208004                 ld	%r1,[%r1,4]
134b8: 60400000                 mov	%r2,%r0
134bc: 60608200                 mov	%r3,%r1
134c0: 51e7fe01                 sub	%r15,%r15,1
134c4: 57e7fa00                 sub.f	0,%r15,0
134c8: 18068200                 asr	%r0,%r13
134cc: 27fff72d                 bhi.d	0x1_3488 = _pow10+0x20
134d0: 42087e01                 add	%r16,%r16,1
134d4: 60010400                 mov	%r0,%r2
134d8: 20013220                 b.d	__epilog_restore16
134dc: 60218600                 mov	%r1,%r3
putch:
134e0: 100e3e04                 st	%blink,[%sp,4]
134e4: 28010020                 bl.d	__prolog_save0sp
134e8: 619ffe14                 mov	%r12,20
134ec: 104d81ff                 stb	%r0,[%fp,-1]
134f0: 402dffff                 add	%r1,%fp,-1
134f4: 601ffe01                 mov	%r0,1
134f8: 2feabaa0                 bl.d	_write
134fc: 60400000                 mov	%r2,%r0
13500: 20013ea0                 b.d	__epilog_load0
13504: 619ffe14                 mov	%r12,20
putstr:
13508: 100e3e04                 st	%blink,[%sp,4]
1350c: 2800fd00                 bl	__prolog_save13
13510: 61a00100                 mov.f	%r13,%r0
13514: 20000302                 bnz	0x1_3530 = putstr+0x28
13518: 601f7c00 00017710        mov	%r0,0x1_7710		; 0x1_7710 = _ctype+0x51c
13520: 2ffffc80                 bl	putstr
13524: 20012580                 b	__epilog_restore13
13528: 2ffff6a0                 bl.d	putch
1352c: 41a6fe01                 add	%r13,%r13,1
13530: 08068400                 ldb	%r0,[%r13]
13534: 67e00100                 mov.f	0,%r0
13538: 20012301                 bz	__epilog_restore13
1353c: 27fffd00                 b	0x1_3528 = putstr+0x20
local_vprintf:
13540: 100e3e04                 st	%blink,[%sp,4]
13544: 2800f920                 bl.d	__prolog_save14sp
13548: 619ffe2c                 mov	%r12,44
1354c: 61c00000                 mov	%r14,%r0
13550: 20000220                 b.d	0x1_3564 = local_vprintf+0x24
13554: 61a08200                 mov	%r13,%r1
13558: 41a6fe04                 add	%r13,%r13,4
1355c: 2ffff520                 bl.d	putstr
13560: 080681fc                 ld	%r0,[%r13,-4]
13564: 08070400                 ldb	%r0,[%r14]
13568: 67e00100                 mov.f	0,%r0
1356c: 20001621                 bz.d	0x1_3620 = local_vprintf+0xe0
13570: 41c77e01                 add	%r14,%r14,1
13574: 57e07a25                 sub.f	0,%r0,37
13578: 20000d02                 bnz	0x1_35e4 = local_vprintf+0xa4
1357c: 08070400                 ldb	%r0,[%r14]
13580: 57e07a58                 sub.f	0,%r0,88
13584: 20000fa1                 bz.d	0x1_3604 = local_vprintf+0xc4
13588: 41c77e01                 add	%r14,%r14,1
1358c: 50207e63                 sub	%r1,%r0,99
13590: 57e0fa15                 sub.f	0,%r1,21
13594: 2000098d                 bhi	0x1_35e4 = local_vprintf+0xa4
13598: 41808200                 asl	%r12,%r1
1359c: 01867c05 000135b0        ldw.x	%r12,[%r12,0x1_35b0]		; 0x1_35b0 = local_vprintf+0x70
135a4: 41867c00 00004d6c        add	%r12,%r12,0x4d6c		; 0x4d6c = _STACKSIZE+0xd6c
135ac: 38060000                 j	[%r12]
135b0: 000b                     .short	GB+9
135b2: 000f                     .short	GB+13
135b4: 000d                     .short	GB+11
135b6: 000d                     .short	GB+11
135b8: 000d                     .short	GB+11
135ba: 000d                     .short	GB+11
135bc: 000d                     .short	GB+11
135be: 000d                     .short	GB+11
135c0: 000d                     .short	GB+11
135c2: 0014                     .short	GB+0x12
135c4: 000d                     .short	GB+11
135c6: 000d                     .short	GB+11
135c8: 000d                     .short	GB+11
135ca: 000d                     .short	GB+11
135cc: 000d                     .short	GB+11
135ce: 000d                     .short	GB+11
135d0: ffea                     .short	_doscan+0x6c6
135d2: 000d                     .short	GB+11
135d4: 000f                     .short	GB+13
135d6: 000d                     .short	GB+11
135d8: 000d                     .short	GB+11
135da: 0015                     .short	GB+0x13
135dc: 41a6fe04                 add	%r13,%r13,4
135e0: 080681fc                 ld	%r0,[%r13,-4]
135e4: 2fffdf00                 bl	putch
135e8: 27ffef00                 b	0x1_3564 = local_vprintf+0x24
135ec: 41a6fe04                 add	%r13,%r13,4
135f0: 080681fc                 ld	%r0,[%r13,-4]
135f4: 402dffec                 add	%r1,%fp,-20
135f8: 20000320                 b.d	0x1_3614 = local_vprintf+0xd4
135fc: 605ffe0a                 mov	%r2,10
13600: 41c77e01                 add	%r14,%r14,1
13604: 41a6fe04                 add	%r13,%r13,4
13608: 080681fc                 ld	%r0,[%r13,-4]
1360c: 402dffec                 add	%r1,%fp,-20
13610: 605ffe10                 mov	%r2,16
13614: 28004300                 bl	_ultoa
13618: 2fffdd80                 bl	putstr
1361c: 27ffe880                 b	0x1_3564 = local_vprintf+0x24
13620: 50000000                 sub	%r0,%r0,%r0
13624: 20011920                 b.d	__epilog_load14
13628: 619ffe2c                 mov	%r12,44
_rterr_printf:
1362c: 538e7e20                 sub	%sp,%sp,32
13630: 100e3e04                 st	%blink,[%sp,4]
13634: 28013f00                 bl	__store_va
13638: 2800d500                 bl	__prolog_save0
1363c: 085f0000 00018fb0        ld	%r2,[0x1_8fb0]		; _rterr_vprintf
13644: 100d8010                 st	%r0,[%fp,16]
13648: 38010220                 jl.d	[%r2]
1364c: 402dfe14                 add	%r1,%fp,20
13650: 0bed8004                 ld	%blink,[%fp,4]
13654: 0b6e1010                 ld.a	%fp,[%sp,16]
13658: 380f8020                 j.d	[%blink]
1365c: 438e7e20                 add	%sp,%sp,32
abort:
13660: 100e3e04                 st	%blink,[%sp,4]
13664: 2800cfa0                 bl.d	__prolog_save0
13668: 601ffe06                 mov	%r0,6
1366c: 28007400                 bl	raise
13670: 27f6bf20                 b.d	exit
13674: 601ffe01                 mov	%r0,1
_fill:
13678: 100e3e04                 st	%blink,[%sp,4]
1367c: 2800d180                 bl	__prolog_save14
13680: 61a00000                 mov	%r13,%r0
13684: 0800040c                 ldb	%r0,[%r0,12]
13688: 67e07a04                 and.f	0,%r0,4
1368c: 20000402                 bnz	0x1_36b0 = _fill+0x38
13690: 08068008                 ld	%r0,[%r13,8]
13694: 67e00100                 mov.f	0,%r0
13698: 20000282                 bnz	0x1_36b0 = _fill+0x38
1369c: 2ffa97a0                 bl.d	_finit
136a0: 60069a00                 mov	%r0,%r13
136a4: 57e07bff                 sub.f	0,%r0,-1
136a8: 20001ba1                 bz.d	0x1_3788 = _fill+0x110
136ac: 61dfffff                 mov	%r14,-1
136b0: 61df7c00 00018550        mov	%r14,0x1_8550		; __iob
136b8: 57e69d00                 sub.f	0,%r13,%r14
136bc: 20000582                 bnz	0x1_36ec = _fill+0x74
136c0: 2ff776a0                 bl.d	_mwlock_file
136c4: 40077e10                 add	%r0,%r14,16
136c8: 0807041c                 ldb	%r0,[%r14,28]
136cc: 67e07a40                 and.f	0,%r0,64
136d0: 20000201                 bz	0x1_36e4 = _fill+0x6c
136d4: 08070010                 ld	%r0,[%r14,16]
136d8: 57e07a00                 sub.f	0,%r0,0
136dc: 2ffac4c9                 blgt.jd	fflush
136e0: 40077e10                 add	%r0,%r14,16
136e4: 2ff778a0                 bl.d	_mwunlock_file
136e8: 40077e10                 add	%r0,%r14,16
136ec: 0806840c                 ldb	%r0,[%r13,12]
136f0: 67e07a34                 and.f	0,%r0,52
136f4: 20000201                 bz	0x1_3708 = _fill+0x90
136f8: 50000000                 sub	%r0,%r0,%r0
136fc: 10068000                 st	%r0,[%r13]
13700: 200010a0                 b.d	0x1_3788 = _fill+0x110
13704: 51c71c00                 sub	%r14,%r14,%r14
13708: 0806840d                 ldb	%r0,[%r13,13]
1370c: 08268008                 ld	%r1,[%r13,8]
13710: 40400000                 asl	%r2,%r0
13714: 40410400                 asl	%r2,%r2
13718: 40417c00 00018488        add	%r2,%r2,0x1_8488		; _bufendtab
13720: 08410000                 ld	%r2,[%r2]
13724: 2fea8420                 bl.d	_read
13728: 50410200                 sub	%r2,%r2,%r1
1372c: 61c00100                 mov.f	%r14,%r0
13730: 08068008                 ld	%r0,[%r13,8]
13734: 2000082f                 bpnz.d	0x1_3778 = _fill+0x100
13738: 10068004                 st	%r0,[%r13,4]
1373c: 57e77a00                 sub.f	0,%r14,0
13740: 2000028a                 bge	0x1_3758 = _fill+0xe0
13744: 28013080                 bl	___errno
13748: 08000000                 ld	%r0,[%r0]
1374c: 57e07a04                 sub.f	0,%r0,4
13750: 200004a1                 bz.d	0x1_3778 = _fill+0x100
13754: 51c71c01                 sub.z	%r14,%r14,%r14
13758: 57e77a00                 sub.f	0,%r14,0
1375c: 2000022a                 bge.d	0x1_3770 = _fill+0xf8
13760: 0806840c                 ldb	%r0,[%r13,12]
13764: 51c71c00                 sub	%r14,%r14,%r14
13768: 68007e20                 or	%r0,%r0,32
1376c: 1046800c                 stb	%r0,[%r13,12]
13770: 68007e10                 or	%r0,%r0,16
13774: 1046800c                 stb	%r0,[%r13,12]
13778: 0806840c                 ldb	%r0,[%r13,12]
1377c: 10069c00                 st	%r14,[%r13]
13780: 68007e01                 or	%r0,%r0,1
13784: 1046800c                 stb	%r0,[%r13,12]
13788: 2000da20                 b.d	__epilog_restore14
1378c: 60071c00                 mov	%r0,%r14
_mwdo_ultoa:
13790: 100e3e04                 st	%blink,[%sp,4]
13794: 2800bb00                 bl	__prolog_save19
13798: 62008200                 mov	%r16,%r1
1379c: 61e10400                 mov	%r15,%r2
137a0: 61c18600                 mov	%r14,%r3
137a4: 62420800                 mov	%r18,%r4
137a8: 62228b00                 mov.f	%r17,%r5
137ac: 67e92502                 mov.nz.f	0,%r18
137b0: 5228a201                 sub.z	%r17,%r17,%r17
137b4: 6248a201                 mov.z	%r18,%r17
137b8: 51a69a00                 sub	%r13,%r13,%r13
137bc: 200000a0                 b.d	0x1_37c4 = _mwdo_ultoa+0x34
137c0: 62682000                 mov	%r19,%r16
137c4: 28012da0                 bl.d	_udivmod
137c8: 60279e00                 mov	%r1,%r15
137cc: 57e0fa09                 sub.f	0,%r1,9
137d0: 40209c09                 add.gt	%r1,%r1,%r14
137d4: 5020fc09 0000000a        sub.gt	%r1,%r1,10		; 0xa = GB+8
137dc: 6820fc0c 00000030        or.le	%r1,%r1,48		; 0x30 = FMANT_BITS+0x18
137e4: 41a6fe01                 add	%r13,%r13,1
137e8: 57e89b00                 sub.f	0,%r17,%r13
137ec: 10498200                 stb	%r1,[%r19]
137f0: 20000222                 bnz.d	0x1_3804 = _mwdo_ultoa+0x74
137f4: 4269fe01                 add	%r19,%r19,1
137f8: 51a69a00                 sub	%r13,%r13,%r13
137fc: 1049a400                 stb	%r18,[%r19]
13800: 4269fe01                 add	%r19,%r19,1
13804: 67e00100                 mov.f	0,%r0
13808: 27fff702                 bnz	0x1_37c4 = _mwdo_ultoa+0x34
1380c: 080985ff                 ldb	%r0,[%r19,-1]
13810: 57e90100                 sub.f	0,%r18,%r0
13814: 5269fc01 00000001        sub.z	%r19,%r19,1		; 0x1 = .regmask_lo+1
1381c: 50000000                 sub	%r0,%r0,%r0
13820: 10498000                 stb	%r0,[%r19]
13824: 280043a0                 bl.d	_strrev
13828: 60082000                 mov	%r0,%r16
1382c: 2000ca80                 b	__epilog_restore19
_ultoa:
13830: 607ffe61                 mov	%r3,97
13834: 50820800                 sub	%r4,%r4,%r4
13838: 27ffeaa0                 b.d	_mwdo_ultoa
1383c: 60a20800                 mov	%r5,%r4
_utoa:
13840: 607ffe61                 mov	%r3,97
13844: 50820800                 sub	%r4,%r4,%r4
13848: 27ffe8a0                 b.d	_mwdo_ultoa
1384c: 60a20800                 mov	%r5,%r4
signal:
13850: 100e3e04                 st	%blink,[%sp,4]
13854: 28009400                 bl	__prolog_save13
13858: 57e07a20                 sub.f	0,%r0,32
1385c: 2000028b                 blt	0x1_3874 = signal+0x24
13860: 28010d20                 bl.d	___errno
13864: 61bffe16                 mov	%r13,22
13868: 10001a00                 st	%r13,[%r0]
1386c: 2000bca0                 b.d	__epilog_restore13
13870: 601fffff                 mov	%r0,-1
13874: 605f7c00 00019614        mov	%r2,0x1_9614		; _sigtbl
1387c: 40600000                 asl	%r3,%r0
13880: 40618600                 asl	%r3,%r3
13884: 40010600                 add	%r0,%r2,%r3
13888: 08000000                 ld	%r0,[%r0]
1388c: 40410600                 add	%r2,%r2,%r3
13890: 2000b820                 b.d	__epilog_restore13
13894: 10010200                 st	%r1,[%r2]
_sigfail:
13898: 100e3e04                 st	%blink,[%sp,4]
1389c: 280088a0                 bl.d	__prolog_save0
138a0: 50000000                 sub	%r0,%r0,%r0
138a4: 605f7c00 000190b4        mov	%r2,0x1_90b4		; __version_date
138ac: 10010108                 st	%r0,[%r2,-248]
138b0: 1001010c                 st	%r0,[%r2,-244]
138b4: 0821011c                 ld	%r1,[%r2,-228]
138b8: 601ffe01                 mov	%r0,1
138bc: 67e08300                 mov.f	0,%r1
138c0: 200001a1                 bz.d	0x1_38d0 = _sigfail+0x38
138c4: 10010110                 st	%r0,[%r2,-240]
138c8: 28010500                 bl	_exit
138cc: 2000af80                 b	__epilog_restore0
138d0: 27f67320                 b.d	exit
138d4: 1001011c                 st	%r0,[%r2,-228]
_sigexit:
138d8: 100e3e04                 st	%blink,[%sp,4]
138dc: 28008300                 bl	__prolog_save13
138e0: 61bf7c00 000190b4        mov	%r13,0x1_90b4		; __version_date
138e8: 08068118                 ld	%r0,[%r13,-232]
138ec: 67e00100                 mov.f	0,%r0
138f0: 2ffff481                 blz	_sigfail
138f4: 50618600                 sub	%r3,%r3,%r3
138f8: 08068100                 ld	%r0,[%r13,-256]
138fc: 1006870c                 st	%r3,[%r13,-244]
13900: 40200000                 asl	%r1,%r0
13904: 40208200                 asl	%r1,%r1
13908: 4040fc00 00019614        add	%r2,%r1,0x1_9614		; _sigtbl
13910: 08268118                 ld	%r1,[%r13,-232]
13914: 10068708                 st	%r3,[%r13,-248]
13918: 38008220                 jl.d	[%r1]
1391c: 10010600                 st	%r3,[%r2]
13920: 2000a600                 b	__epilog_restore13
_raise:
13924: 100e3e04                 st	%blink,[%sp,4]
13928: 28008380                 bl	__prolog_save17
1392c: 62000000                 mov	%r16,%r0
13930: 61a08200                 mov	%r13,%r1
13934: 57e07a20                 sub.f	0,%r0,32
13938: 61e10400                 mov	%r15,%r2
1393c: 2000032b                 blt.d	0x1_3958 = _raise+0x34
13940: 62218600                 mov	%r17,%r3
13944: 2800f0a0                 bl.d	___errno
13948: 61bffe16                 mov	%r13,22
1394c: 10001a00                 st	%r13,[%r0]
13950: 200016a0                 b.d	0x1_3a08 = _raise+0xe4
13954: 61bfffff                 mov	%r13,-1
13958: 61df7c00 000190b4        mov	%r14,0x1_90b4		; __version_date
13960: 0807010c                 ld	%r0,[%r14,-244]
13964: 67e00100                 mov.f	0,%r0
13968: 2fffed82                 blnz	_sigexit
1396c: 605f7c00 00019614        mov	%r2,0x1_9614		; _sigtbl
13974: 40682000                 asl	%r3,%r16
13978: 40618600                 asl	%r3,%r3
1397c: 10072100                 st	%r16,[%r14,-256]
13980: 40210600                 add	%r1,%r2,%r3
13984: 08208000                 ld	%r1,[%r1]
13988: 10071b04                 st	%r13,[%r14,-252]
1398c: 10070318                 st	%r1,[%r14,-232]
13990: 57e0fa01                 sub.f	0,%r1,1
13994: 10072314                 st	%r17,[%r14,-236]
13998: 20000d21                 bz.d	0x1_3a04 = _raise+0xe0
1399c: 5228a200                 sub	%r17,%r17,%r17
139a0: 67e08300                 mov.f	0,%r1
139a4: 20000682                 bnz	0x1_39dc = _raise+0xb8
139a8: 67e69b00                 mov.f	0,%r13
139ac: 67e79f02                 mov.nz.f	0,%r15
139b0: 20000a82                 bnz	0x1_3a08 = _raise+0xe4
139b4: 57e87a05                 sub.f	0,%r16,5
139b8: 57e87d02 00000008        sub.nz.f	0,%r16,8		; 0x8 = GB+6
139c0: 20000881                 bz	0x1_3a08 = _raise+0xe4
139c4: 08070108                 ld	%r0,[%r14,-248]
139c8: 67e00100                 mov.f	0,%r0
139cc: 2fffd901                 blz	_sigfail
139d0: 601ffe01                 mov	%r0,1
139d4: 20000620                 b.d	0x1_3a08 = _raise+0xe4
139d8: 1007010c                 st	%r0,[%r14,-244]
139dc: 08070108                 ld	%r0,[%r14,-248]
139e0: 67e00100                 mov.f	0,%r0
139e4: 20000282                 bnz	0x1_39fc = _raise+0xd8
139e8: 40410600                 add	%r2,%r2,%r3
139ec: 10012200                 st	%r17,[%r2]
139f0: 38008220                 jl.d	[%r1]
139f4: 60082000                 mov	%r0,%r16
139f8: 20000100                 b	0x1_3a04 = _raise+0xe0
139fc: 601ffe01                 mov	%r0,1
13a00: 1007010c                 st	%r0,[%r14,-244]
13a04: 61a8a200                 mov	%r13,%r17
13a08: 20008d20                 b.d	__epilog_restore17
13a0c: 60069a00                 mov	%r0,%r13
raise:
13a10: 100e3e04                 st	%blink,[%sp,4]
13a14: 28005e80                 bl	__prolog_save14
13a18: 61dfffff                 mov	%r14,-1
13a1c: 60271c00                 mov	%r1,%r14
13a20: 51a69a00                 sub	%r13,%r13,%r13
13a24: 60469a00                 mov	%r2,%r13
13a28: 2fffdf20                 bl.d	_raise
13a2c: 60669a00                 mov	%r3,%r13
13a30: 57e07bff                 sub.f	0,%r0,-1
13a34: 200084a1                 bz.d	__epilog_restore14
13a38: 60071c01                 mov.z	%r0,%r14
13a3c: 200083a0                 b.d	__epilog_restore14
13a40: 60069a00                 mov	%r0,%r13
_strrev:
13a44: 100e3e04                 st	%blink,[%sp,4]
13a48: 28005580                 bl	__prolog_save13
13a4c: 2ff63820                 bl.d	strlen
13a50: 61a00000                 mov	%r13,%r0
13a54: 57e07a01                 sub.f	0,%r0,1
13a58: 2000068c                 ble	0x1_3a90 = _strrev+0x4c
13a5c: 40001a00                 add	%r0,%r0,%r13
13a60: 50407e01                 sub	%r2,%r0,1
13a64: 57e68500                 sub.f	0,%r13,%r2
13a68: 20000486                 bnc	0x1_3a90 = _strrev+0x4c
13a6c: 60669a00                 mov	%r3,%r13
13a70: 08210400                 ldb	%r1,[%r2]
13a74: 08018400                 ldb	%r0,[%r3]
13a78: 10418200                 stb	%r1,[%r3]
13a7c: 10410000                 stb	%r0,[%r2]
13a80: 4061fe01                 add	%r3,%r3,1
13a84: 50417e01                 sub	%r2,%r2,1
13a88: 57e18500                 sub.f	0,%r3,%r2
13a8c: 27fffc05                 bc	0x1_3a70 = _strrev+0x2c
13a90: 20007820                 b.d	__epilog_restore13
13a94: 60069a00                 mov	%r0,%r13
priority_enq:
13a98: 40608200                 asl	%r3,%r1
13a9c: 603f7c00 00018fd4        mov	%r1,0x1_8fd4		; cdtor
13aa4: 40618600                 asl	%r3,%r3
13aa8: 40c08600                 add	%r6,%r1,%r3
13aac: 08230000                 ld	%r1,[%r6]
13ab0: 08a00000                 ld	%r5,[%r0]
13ab4: 67e08300                 mov.f	0,%r1
13ab8: 200007a1                 bz.d	0x1_3af8 = priority_enq+0x60
13abc: 50618600                 sub	%r3,%r3,%r3
13ac0: 67e10500                 mov.f	0,%r2
13ac4: 20000221                 bz.d	0x1_3ad8 = priority_enq+0x40
13ac8: 08808000                 ld	%r4,[%r1]
13acc: 57e28900                 sub.f	0,%r5,%r4
13ad0: 2000018d                 bhi	0x1_3ae0 = priority_enq+0x48
13ad4: 20000400                 b	0x1_3af8 = priority_enq+0x60
13ad8: 57e28900                 sub.f	0,%r5,%r4
13adc: 20000306                 bnc	0x1_3af8 = priority_enq+0x60
13ae0: 08808008                 ld	%r4,[%r1,8]
13ae4: 67e20900                 mov.f	0,%r4
13ae8: 20000281                 bz	0x1_3b00 = priority_enq+0x68
13aec: 60608200                 mov	%r3,%r1
13af0: 27fff9a0                 b.d	0x1_3ac0 = priority_enq+0x28
13af4: 60220800                 mov	%r1,%r4
13af8: 60808200                 mov	%r4,%r1
13afc: 60218600                 mov	%r1,%r3
13b00: 67e08300                 mov.f	0,%r1
13b04: 10000808                 st	%r4,[%r0,8]
13b08: 380f8041                 jz.jd	[%blink]
13b0c: 10030000                 st	%r0,[%r6]
13b10: 380f8020                 j.d	[%blink]
13b14: 10008008                 st	%r0,[%r1,8]
__mw_register_ctor:
13b18: 100e3e04                 st	%blink,[%sp,4]
13b1c: 280038a0                 bl.d	__prolog_save0
13b20: 50410400                 sub	%r2,%r2,%r2
13b24: 2fffee20                 bl.d	priority_enq
13b28: 08200408                 ldb	%r1,[%r0,8]
13b2c: 200063a0                 b.d	__epilog_restore0
13b30: 50000000                 sub	%r0,%r0,%r0
__mw_register_dtor:
13b34: 100e3e04                 st	%blink,[%sp,4]
13b38: 28003520                 bl.d	__prolog_save0
13b3c: 605ffe01                 mov	%r2,1
13b40: 08200008                 ld	%r1,[%r0,8]
13b44: 4020fe02                 add	%r1,%r1,2
13b48: 2fffe9a0                 bl.d	priority_enq
13b4c: 18208e00                 extb	%r1,%r1
13b50: 20005f20                 b.d	__epilog_restore0
13b54: 50000000                 sub	%r0,%r0,%r0
__mw_run_tls_ctor:
13b58: 100e3e04                 st	%blink,[%sp,4]
13b5c: 28003300                 bl	__prolog_save13
13b60: 601f7c00 00018fd8        mov	%r0,0x1_8fd8		; 0x1_8fd8 = cdtor+4
13b68: 09a00000                 ld	%r13,[%r0]
13b6c: 67e69b00                 mov.f	0,%r13
13b70: 20005c01                 bz	__epilog_restore13
13b74: 08068004                 ld	%r0,[%r13,4]
13b78: 38000200                 jl	[%r0]
13b7c: 09a68008                 ld	%r13,[%r13,8]
13b80: 67e69b00                 mov.f	0,%r13
13b84: 20005981                 bz	__epilog_restore13
13b88: 27fffd00                 b	0x1_3b74 = __mw_run_tls_ctor+0x1c
__mw_run_tls_dtor:
13b8c: 100e3e04                 st	%blink,[%sp,4]
13b90: 28002c80                 bl	__prolog_save13
13b94: 601f7c00 00018fe0        mov	%r0,0x1_8fe0		; 0x1_8fe0 = cdtor+12
13b9c: 09a00000                 ld	%r13,[%r0]
13ba0: 67e69b00                 mov.f	0,%r13
13ba4: 20005581                 bz	__epilog_restore13
13ba8: 08068004                 ld	%r0,[%r13,4]
13bac: 38000200                 jl	[%r0]
13bb0: 09a68008                 ld	%r13,[%r13,8]
13bb4: 67e69b00                 mov.f	0,%r13
13bb8: 20005301                 bz	__epilog_restore13
13bbc: 27fffd00                 b	0x1_3ba8 = __mw_run_tls_dtor+0x1c
__mw_cpp_exit:
13bc0: 100e3e04                 st	%blink,[%sp,4]
13bc4: 28002600                 bl	__prolog_save13
13bc8: 603f7c00 000190d4        mov	%r1,0x1_90d4		; 0x1_90d4 = buffer.L68+16
13bd0: 08008110                 ld	%r0,[%r1,-240]
13bd4: 67e00100                 mov.f	0,%r0
13bd8: 20004f02                 bnz	__epilog_restore13
13bdc: 601ffe01                 mov	%r0,1
13be0: 09a08108                 ld	%r13,[%r1,-248]
13be4: 10008110                 st	%r0,[%r1,-240]
13be8: 67e69b00                 mov.f	0,%r13
13bec: 50000000                 sub	%r0,%r0,%r0
13bf0: 20004c21                 bz.d	__epilog_restore13
13bf4: 10008108                 st	%r0,[%r1,-248]
13bf8: 08068004                 ld	%r0,[%r13,4]
13bfc: 38000200                 jl	[%r0]
13c00: 09a68008                 ld	%r13,[%r13,8]
13c04: 67e69b00                 mov.f	0,%r13
13c08: 20004901                 bz	__epilog_restore13
13c0c: 27fffd00                 b	0x1_3bf8 = __mw_cpp_exit+0x38
__mw_cpp_init:
13c10: 100e3e04                 st	%blink,[%sp,4]
13c14: 28001c20                 bl.d	__prolog_save13
13c18: 50000000                 sub	%r0,%r0,%r0
13c1c: 603f7c00 000190d4        mov	%r1,0x1_90d4		; 0x1_90d4 = buffer.L68+16
13c24: 09a08100                 ld	%r13,[%r1,-256]
13c28: 67e69b00                 mov.f	0,%r13
13c2c: 200044a1                 bz.d	__epilog_restore13
13c30: 10008100                 st	%r0,[%r1,-256]
13c34: 08068004                 ld	%r0,[%r13,4]
13c38: 38000200                 jl	[%r0]
13c3c: 09a68008                 ld	%r13,[%r13,8]
13c40: 67e69b00                 mov.f	0,%r13
13c44: 20004181                 bz	__epilog_restore13
13c48: 27fffd00                 b	0x1_3c34 = __mw_cpp_init+0x24
_udivmod_normbs:
13c4c: 60fffe00                 mov	%r7,0
13c50: 200003a0                 b.d	_divide_normbs
13c54: 611ffe00                 mov	%r8,0
_divmod_normbs:
13c58: 60fffe00                 mov	%r7,0
13c5c: 8900fa1f                 lsr.f	%r8,%r1,31
13c60: 50238202                 sub.nz	%r1,%r7,%r1
13c64: 90607a1f                 asr.f	%r3,%r0,31
13c68: 50038002                 sub.nz	%r0,%r7,%r0
13c6c: 79040600                 xor	%r8,%r8,%r3
_divide_normbs:
13c70: 60408300                 mov.f	%r2,%r1
13c74: 20000ba1                 bz.d	0x1_3cd4 = divloop_end+16
13c78: 60200000                 mov	%r1,%r0
13c7c: 601ffe00                 mov	%r0,0
13c80: 50607e01                 sub	%r3,%r0,1
13c84: 60a08300                 mov.f	%r5,%r1
13c88: 18a29400                 norm	%r5,%r5
13c8c: 60a18604                 mov.n	%r5,%r3
13c90: 60c10500                 mov.f	%r6,%r2
13c94: 18c31400                 norm	%r6,%r6
13c98: 60c18604                 mov.n	%r6,%r3
13c9c: 50630b00                 sub.f	%r3,%r6,%r5
13ca0: 60638e04                 mov.n	%r3,%r7
13ca4: 4781fe01                 add	%lp_count,%r3,1
13ca8: 80410603                 asl.p	%r2,%r2,%r3
13cac: 30000280                 lp	divloop_end
13cb0: 50208500                 sub.f	%r1,%r1,%r2
13cb4: 48000000                 rlc	%r0,%r0
13cb8: 78007e01                 xor	%r0,%r0,1
13cbc: 40208405                 add.c	%r1,%r1,%r2
13cc0: 18410400                 lsr	%r2,%r2
divloop_end:
13cc4: 19040500                 lsr.f	%r8,%r8
13cc8: 50038005                 sub.c	%r0,%r7,%r0
13ccc: 50238202                 sub.nz	%r1,%r7,%r1
13cd0: 380f8100                 j.f	[%blink]
13cd4: 381f0000 0000564d        j	_div0		; 0x564d = _STACKSIZE+0x164d
__prolog_save0sp_sub4:
13cdc: 20000120                 b.d	__prolog_save0sp
__prolog_save0_sub4:
13ce0: 538e7e04                 sub	%sp,%sp,4
__prolog_save0:
13ce4: 619ffe10                 mov	%r12,16
__prolog_save0sp:
13ce8: 20002a20                 b.d	__prolog_store0
13cec: 538e1800                 sub	%sp,%sp,%r12
__prolog_save13sp_sub4:
13cf0: 20000120                 b.d	__prolog_save13sp
__prolog_save13_sub4:
13cf4: 538e7e04                 sub	%sp,%sp,4
__prolog_save13:
13cf8: 619ffe14                 mov	%r12,20
__prolog_save13sp:
13cfc: 20002720                 b.d	__prolog_store13
13d00: 538e1800                 sub	%sp,%sp,%r12
__prolog_save14sp_sub4:
13d04: 20000120                 b.d	__prolog_save14sp
__prolog_save14_sub4:
13d08: 538e7e04                 sub	%sp,%sp,4
__prolog_save14:
13d0c: 619ffe18                 mov	%r12,24
__prolog_save14sp:
13d10: 20002420                 b.d	__prolog_store14
13d14: 538e1800                 sub	%sp,%sp,%r12
__prolog_save15sp_sub4:
13d18: 20000120                 b.d	__prolog_save15sp
__prolog_save15_sub4:
13d1c: 538e7e04                 sub	%sp,%sp,4
__prolog_save15:
13d20: 619ffe1c                 mov	%r12,28
__prolog_save15sp:
13d24: 20002120                 b.d	__prolog_store15
13d28: 538e1800                 sub	%sp,%sp,%r12
__prolog_save16sp_sub4:
13d2c: 20000120                 b.d	__prolog_save16sp
__prolog_save16_sub4:
13d30: 538e7e04                 sub	%sp,%sp,4
__prolog_save16:
13d34: 619ffe20                 mov	%r12,32
__prolog_save16sp:
13d38: 20001e20                 b.d	__prolog_store16
13d3c: 538e1800                 sub	%sp,%sp,%r12
__prolog_save17sp_sub4:
13d40: 20000120                 b.d	__prolog_save17sp
__prolog_save17_sub4:
13d44: 538e7e04                 sub	%sp,%sp,4
__prolog_save17:
13d48: 619ffe24                 mov	%r12,36
__prolog_save17sp:
13d4c: 20001b20                 b.d	__prolog_store17
13d50: 538e1800                 sub	%sp,%sp,%r12
__prolog_save18sp_sub4:
13d54: 20000120                 b.d	__prolog_save18sp
__prolog_save18_sub4:
13d58: 538e7e04                 sub	%sp,%sp,4
__prolog_save18:
13d5c: 619ffe28                 mov	%r12,40
__prolog_save18sp:
13d60: 20001820                 b.d	__prolog_store18
13d64: 538e1800                 sub	%sp,%sp,%r12
__prolog_save19sp_sub4:
13d68: 20000120                 b.d	__prolog_save19sp
__prolog_save19_sub4:
13d6c: 538e7e04                 sub	%sp,%sp,4
__prolog_save19:
13d70: 619ffe2c                 mov	%r12,44
__prolog_save19sp:
13d74: 20001520                 b.d	__prolog_store19
13d78: 538e1800                 sub	%sp,%sp,%r12
__prolog_save20sp_sub4:
13d7c: 20000120                 b.d	__prolog_save20sp
__prolog_save20_sub4:
13d80: 538e7e04                 sub	%sp,%sp,4
__prolog_save20:
13d84: 619ffe30                 mov	%r12,48
__prolog_save20sp:
13d88: 20001220                 b.d	__prolog_store20
13d8c: 538e1800                 sub	%sp,%sp,%r12
__prolog_save21sp_sub4:
13d90: 20000120                 b.d	__prolog_save21sp
__prolog_save21_sub4:
13d94: 538e7e04                 sub	%sp,%sp,4
__prolog_save21:
13d98: 619ffe34                 mov	%r12,52
__prolog_save21sp:
13d9c: 20000f20                 b.d	__prolog_store21
13da0: 538e1800                 sub	%sp,%sp,%r12
__prolog_save22sp_sub4:
13da4: 20000120                 b.d	__prolog_save22sp
__prolog_save22_sub4:
13da8: 538e7e04                 sub	%sp,%sp,4
__prolog_save22:
13dac: 619ffe38                 mov	%r12,56
__prolog_save22sp:
13db0: 20000c20                 b.d	__prolog_store22
13db4: 538e1800                 sub	%sp,%sp,%r12
__prolog_save23sp_sub4:
13db8: 20000120                 b.d	__prolog_save23sp
__prolog_save23_sub4:
13dbc: 538e7e04                 sub	%sp,%sp,4
__prolog_save23:
13dc0: 619ffe3c                 mov	%r12,60
__prolog_save23sp:
13dc4: 20000920                 b.d	__prolog_store23
13dc8: 538e1800                 sub	%sp,%sp,%r12
__prolog_save24sp_sub4:
13dcc: 20000120                 b.d	__prolog_save24sp
__prolog_save24_sub4:
13dd0: 538e7e04                 sub	%sp,%sp,4
__prolog_save24:
13dd4: 619ffe40                 mov	%r12,64
__prolog_save24sp:
13dd8: 20000620                 b.d	__prolog_store24
13ddc: 538e1800                 sub	%sp,%sp,%r12
__prolog_save25sp_sub4:
13de0: 20000120                 b.d	__prolog_save25sp
__prolog_save25_sub4:
13de4: 538e7e04                 sub	%sp,%sp,4
__prolog_save25:
13de8: 619ffe44                 mov	%r12,68
__prolog_save25sp:
13dec: 20000320                 b.d	__prolog_store25
13df0: 538e1800                 sub	%sp,%sp,%r12
__prolog_save26sp_sub4:
13df4: 20000120                 b.d	__prolog_save26sp
__prolog_save26_sub4:
13df8: 538e7e04                 sub	%sp,%sp,4
__prolog_save26:
13dfc: 619ffe48                 mov	%r12,72
__prolog_save26sp:
13e00: 538e1800                 sub	%sp,%sp,%r12
__prolog_store26:
13e04: 100e3444                 st	%gp,[%sp,68]
__prolog_store25:
13e08: 100e3240                 st	%r25,[%sp,64]
__prolog_store24:
13e0c: 100e303c                 st	%r24,[%sp,60]
__prolog_store23:
13e10: 100e2e38                 st	%r23,[%sp,56]
__prolog_store22:
13e14: 100e2c34                 st	%r22,[%sp,52]
__prolog_store21:
13e18: 100e2a30                 st	%r21,[%sp,48]
__prolog_store20:
13e1c: 100e282c                 st	%r20,[%sp,44]
__prolog_store19:
13e20: 100e2628                 st	%r19,[%sp,40]
__prolog_store18:
13e24: 100e2424                 st	%r18,[%sp,36]
__prolog_store17:
13e28: 100e2220                 st	%r17,[%sp,32]
__prolog_store16:
13e2c: 100e201c                 st	%r16,[%sp,28]
__prolog_store15:
13e30: 100e1e18                 st	%r15,[%sp,24]
__prolog_store14:
13e34: 100e1c14                 st	%r14,[%sp,20]
__prolog_store13:
13e38: 100e1a10                 st	%r13,[%sp,16]
__prolog_store0:
13e3c: 414e1800                 add	%r10,%sp,%r12
13e40: 10053600                 st	%fp,[%r10]
13e44: 380f8120                 j.f.d	[%blink]
13e48: 436e1800                 add	%fp,%sp,%r12
__epilog_restore0:
13e4c: 20001520                 b.d	__epilog_load0
13e50: 619ffe10                 mov	%r12,16
__epilog_restore13:
13e54: 200013a0                 b.d	__epilog_load13
13e58: 619ffe14                 mov	%r12,20
__epilog_restore14:
13e5c: 20001220                 b.d	__epilog_load14
13e60: 619ffe18                 mov	%r12,24
__epilog_restore15:
13e64: 200010a0                 b.d	__epilog_load15
13e68: 619ffe1c                 mov	%r12,28
__epilog_restore16:
13e6c: 20000f20                 b.d	__epilog_load16
13e70: 619ffe20                 mov	%r12,32
__epilog_restore17:
13e74: 20000da0                 b.d	__epilog_load17
13e78: 619ffe24                 mov	%r12,36
__epilog_restore18:
13e7c: 20000c20                 b.d	__epilog_load18
13e80: 619ffe28                 mov	%r12,40
__epilog_restore19:
13e84: 20000aa0                 b.d	__epilog_load19
13e88: 619ffe2c                 mov	%r12,44
__epilog_restore20:
13e8c: 20000920                 b.d	__epilog_load20
13e90: 619ffe30                 mov	%r12,48
__epilog_restore21:
13e94: 200007a0                 b.d	__epilog_load21
13e98: 619ffe34                 mov	%r12,52
__epilog_restore22:
13e9c: 20000620                 b.d	__epilog_load22
13ea0: 619ffe38                 mov	%r12,56
__epilog_restore23:
13ea4: 200004a0                 b.d	__epilog_load23
13ea8: 619ffe3c                 mov	%r12,60
__epilog_restore24:
13eac: 20000320                 b.d	__epilog_load24
13eb0: 619ffe40                 mov	%r12,64
__epilog_restore25:
13eb4: 200001a0                 b.d	__epilog_load25
13eb8: 619ffe44                 mov	%r12,68
__epilog_restore26:
13ebc: 619ffe48                 mov	%r12,72
__epilog_load26:
13ec0: 0b4e0044                 ld	%gp,[%sp,68]
__epilog_load25:
13ec4: 0b2e0040                 ld	%r25,[%sp,64]
__epilog_load24:
13ec8: 0b0e003c                 ld	%r24,[%sp,60]
__epilog_load23:
13ecc: 0aee0038                 ld	%r23,[%sp,56]
__epilog_load22:
13ed0: 0ace0034                 ld	%r22,[%sp,52]
__epilog_load21:
13ed4: 0aae0030                 ld	%r21,[%sp,48]
__epilog_load20:
13ed8: 0a8e002c                 ld	%r20,[%sp,44]
__epilog_load19:
13edc: 0a6e0028                 ld	%r19,[%sp,40]
__epilog_load18:
13ee0: 0a4e0024                 ld	%r18,[%sp,36]
__epilog_load17:
13ee4: 0a2e0020                 ld	%r17,[%sp,32]
__epilog_load16:
13ee8: 0a0e001c                 ld	%r16,[%sp,28]
__epilog_load15:
13eec: 09ee0018                 ld	%r15,[%sp,24]
__epilog_load14:
13ef0: 09ce0014                 ld	%r14,[%sp,20]
__epilog_load13:
13ef4: 09ae0010                 ld	%r13,[%sp,16]
__epilog_load0:
13ef8: 0bed8004                 ld	%blink,[%fp,4]
13efc: 380f8020                 j.d	[%blink]
13f00: 036e1808                 ld.a	%fp,[%sp,%r12]
__argc:
13f04: 380f8020                 j.d	[%blink]
13f08: 601ffe01                 mov	%r0,1
__argv:
13f0c: 40000000                 asl	%r0,%r0
13f10: 40000000                 asl	%r0,%r0
13f14: 00007c00 00018fe8        ld	%r0,[%r0,0x1_8fe8]		; tmp_argv
13f1c: 380f8000                 j	[%blink]
_memclr:
13f20: 60408300                 mov.f	%r2,%r1
13f24: 380f8101                 jz.f	[%blink]
13f28: 67e07a03                 and.f	0,%r0,3
13f2c: 67e17d01 00000003        and.z.f	0,%r2,3		; 0x3 = GB+1
13f34: 20000302                 bnz	0x1_3f50 = _memclr+0x30
13f38: 18410400                 lsr	%r2,%r2
13f3c: 18410400                 lsr	%r2,%r2
13f40: 57e17a08                 sub.f	0,%r2,8
13f44: 20000206                 bnc	0x1_3f58 = _memclr+0x38
13f48: 20000420                 b.d	0x1_3f6c = _memclr+0x4c
13f4c: 50208200                 sub	%r1,%r1,%r1
13f50: 27f9b720                 b.d	memset
13f54: 50208200                 sub	%r1,%r1,%r1
13f58: 50217e01                 sub	%r1,%r2,1
13f5c: 18208400                 lsr	%r1,%r1
13f60: 18208400                 lsr	%r1,%r1
13f64: 18208400                 lsr	%r1,%r1
13f68: 60417e07                 and	%r2,%r2,7
13f6c: 57e17a07                 sub.f	0,%r2,7
13f70: 380f810d                 jhi.f	[%blink]
13f74: 41810400                 asl	%r12,%r2
13f78: 01867c05 00013f90        ldw.x	%r12,[%r12,0x1_3f90]		; 0x1_3f90 = _memclr+0x70
13f80: 41867c00 00004fe4        add	%r12,%r12,0x4fe4		; 0x4fe4 = _STACKSIZE+0xfe4
13f88: 38060020                 j.d	[%r12]
13f8c: 50618600                 sub	%r3,%r3,%r3
13f90: 0012                     .short	GB+16
13f92: 0004                     .short	GB+2
13f94: 0006                     .short	GB+4
13f96: 0008                     .short	GB+6
13f98: 000a                     .short	GB+8
13f9a: 000c                     .short	GB+10
13f9c: 000e                     .short	GB+12
13f9e: 0010                     .short	GB+14
13fa0: 20000e20                 b.d	0x1_4014 = _memclr+0xf4
13fa4: 60400000                 mov	%r2,%r0
13fa8: 20000c20                 b.d	0x1_400c = _memclr+0xec
13fac: 60400000                 mov	%r2,%r0
13fb0: 20000a20                 b.d	0x1_4004 = _memclr+0xe4
13fb4: 60400000                 mov	%r2,%r0
13fb8: 20000820                 b.d	0x1_3ffc = _memclr+0xdc
13fbc: 60400000                 mov	%r2,%r0
13fc0: 20000620                 b.d	0x1_3ff4 = _memclr+0xd4
13fc4: 60400000                 mov	%r2,%r0
13fc8: 20000420                 b.d	0x1_3fec = _memclr+0xcc
13fcc: 60400000                 mov	%r2,%r0
13fd0: 20000220                 b.d	0x1_3fe4 = _memclr+0xc4
13fd4: 60400000                 mov	%r2,%r0
13fd8: 60400000                 mov	%r2,%r0
13fdc: 10010600                 st	%r3,[%r2]
13fe0: 40417e04                 add	%r2,%r2,4
13fe4: 10010600                 st	%r3,[%r2]
13fe8: 40417e04                 add	%r2,%r2,4
13fec: 10010600                 st	%r3,[%r2]
13ff0: 40417e04                 add	%r2,%r2,4
13ff4: 10010600                 st	%r3,[%r2]
13ff8: 40417e04                 add	%r2,%r2,4
13ffc: 10010600                 st	%r3,[%r2]
14000: 40417e04                 add	%r2,%r2,4
14004: 10010600                 st	%r3,[%r2]
14008: 40417e04                 add	%r2,%r2,4
1400c: 10010600                 st	%r3,[%r2]
14010: 40417e04                 add	%r2,%r2,4
14014: 57e0fa00                 sub.f	0,%r1,0
14018: 10010600                 st	%r3,[%r2]
1401c: 380f812c                 jle.f.d	[%blink]
14020: 40417e04                 add	%r2,%r2,4
14024: 27fff6a0                 b.d	0x1_3fdc = _memclr+0xbc
14028: 5020fe01                 sub	%r1,%r1,1
__start_kernel:
1402c: 380f8000                 j	[%blink]
__store_va:
14030: 100e0010                 st	%r0,[%sp,16]
14034: 100e0214                 st	%r1,[%sp,20]
14038: 100e0418                 st	%r2,[%sp,24]
1403c: 100e061c                 st	%r3,[%sp,28]
14040: 100e0820                 st	%r4,[%sp,32]
14044: 100e0a24                 st	%r5,[%sp,36]
14048: 100e0c28                 st	%r6,[%sp,40]
1404c: 380f8020                 j.d	[%blink]
14050: 100e0e2c                 st	%r7,[%sp,44]
__store13to26:
14054: 100e3444                 st	%gp,[%sp,68]
__store13to25:
14058: 100e3240                 st	%r25,[%sp,64]
__store13to24:
1405c: 100e303c                 st	%r24,[%sp,60]
__store13to23:
14060: 100e2e38                 st	%r23,[%sp,56]
__store13to22:
14064: 100e2c34                 st	%r22,[%sp,52]
__store13to21:
14068: 100e2a30                 st	%r21,[%sp,48]
__store13to20:
1406c: 100e282c                 st	%r20,[%sp,44]
__store13to19:
14070: 100e2628                 st	%r19,[%sp,40]
__store13to18:
14074: 100e2424                 st	%r18,[%sp,36]
__store13to17:
14078: 100e2220                 st	%r17,[%sp,32]
__store13to16:
1407c: 100e201c                 st	%r16,[%sp,28]
__store13to15:
14080: 100e1e18                 st	%r15,[%sp,24]
__store13to14:
14084: 100e1c14                 st	%r14,[%sp,20]
__store13to13:
14088: 380f8120                 j.f.d	[%blink]
1408c: 100e1a10                 st	%r13,[%sp,16]
__load13to26:
14090: 0b4e0044                 ld	%gp,[%sp,68]
__load13to25:
14094: 0b2e0040                 ld	%r25,[%sp,64]
__load13to24:
14098: 0b0e003c                 ld	%r24,[%sp,60]
__load13to23:
1409c: 0aee0038                 ld	%r23,[%sp,56]
__load13to22:
140a0: 0ace0034                 ld	%r22,[%sp,52]
__load13to21:
140a4: 0aae0030                 ld	%r21,[%sp,48]
__load13to20:
140a8: 0a8e002c                 ld	%r20,[%sp,44]
__load13to19:
140ac: 0a6e0028                 ld	%r19,[%sp,40]
__load13to18:
140b0: 0a4e0024                 ld	%r18,[%sp,36]
__load13to17:
140b4: 0a2e0020                 ld	%r17,[%sp,32]
__load13to16:
140b8: 0a0e001c                 ld	%r16,[%sp,28]
__load13to15:
140bc: 09ee0018                 ld	%r15,[%sp,24]
__load13to14:
140c0: 09ce0014                 ld	%r14,[%sp,20]
__load13to13:
140c4: 380f8120                 j.f.d	[%blink]
140c8: 09ae0010                 ld	%r13,[%sp,16]
___errno:
140cc: 100e3e04                 st	%blink,[%sp,4]
140d0: 2fff8200                 bl	__prolog_save0
140d4: 28030f80                 bl	_mwget_tls
140d8: 40007c00 00000000        add	%r0,%r0,0		; .CC_I
140e0: 27ffad00                 b	__epilog_restore0
_mwmutex_create:
140e4: 380f8000                 j	[%blink]
_mwmutex_delete:
140e8: 380f8000                 j	[%blink]
_mwmutex_lock:
140ec: 380f8000                 j	[%blink]
_mwmutex_unlock:
140f0: 380f8000                 j	[%blink]
_exit:
140f4: 27e7ed80                 b	_exit_halt
close:
140f8: 100e3e04                 st	%blink,[%sp,4]
140fc: 2fff7f00                 bl	__prolog_save13
14100: 2ffff920                 bl.d	___errno
14104: 61bffe09                 mov	%r13,9
14108: 10001a00                 st	%r13,[%r0]
1410c: 27ffa8a0                 b.d	__epilog_restore13
14110: 601fffff                 mov	%r0,-1
remove:
14114: 20030e00                 b	unlink
_lseek:
14118: 100e3e04                 st	%blink,[%sp,4]
1411c: 2fff7b00                 bl	__prolog_save13
14120: 2ffff520                 bl.d	___errno
14124: 61bffe09                 mov	%r13,9
14128: 10001a00                 st	%r13,[%r0]
1412c: 27ffa4a0                 b.d	__epilog_restore13
14130: 601fffff                 mov	%r0,-1
_udivmod:
14134: 60408300                 mov.f	%r2,%r1
14138: 603ffe00                 mov	%r1,0
1413c: 20000482                 bnz	0x1_4164 = _divmod+0x20
14140: 20030100                 b	_udiv0
_divmod:
14144: 60408300                 mov.f	%r2,%r1
14148: 603ffe00                 mov	%r1,0
1414c: 20000082                 bnz	0x1_4154 = _divmod+16
14150: 2002fc00                 b	_div0
14154: 20001424                 bn.d	0x1_41f8 = _divmod+0xb4
14158: 47e00100                 asl.f	0,%r0
1415c: 7fffffff                 nop
14160: 20001185                 bc	0x1_41f0 = _divmod+0xac
14164: 57e07a0f                 sub.f	0,%r0,15
14168: 60dffe01                 mov	%r6,1
1416c: 20000b0d                 bhi	0x1_41c8 = _divmod+0x84
14170: 57e07a07                 sub.f	0,%r0,7
14174: 679ffe04                 mov	%lp_count,4
14178: 2000040d                 bhi	0x1_419c = _divmod+0x58
1417c: 57e07a03                 sub.f	0,%r0,3
14180: 679ffe03                 mov	%lp_count,3
14184: 2000030d                 bhi	0x1_41a0 = _divmod+0x5c
14188: 57e07a01                 sub.f	0,%r0,1
1418c: 679ffe02                 mov	%lp_count,2
14190: 2000020d                 bhi	0x1_41a4 = _divmod+0x60
14194: 20000220                 b.d	0x1_41a8 = _divmod+0x64
14198: 679ffe01                 mov	%lp_count,1
1419c: 18000600                 ror	%r0,%r0
141a0: 18000600                 ror	%r0,%r0
141a4: 18000600                 ror	%r0,%r0
141a8: 18000600                 ror	%r0,%r0
141ac: 30000280                 lp	0x1_41c4 = _divmod+0x80
141b0: 40000100                 asl.f	%r0,%r0
141b4: 48208200                 rlc	%r1,%r1
141b8: 57e08500                 sub.f	0,%r1,%r2
141bc: 40000c06                 add.nc	%r0,%r0,%r6
141c0: 50208406                 sub.nc	%r1,%r1,%r2
141c4: 380f8100                 j.f	[%blink]
141c8: 67e00100                 mov.f	0,%r0
141cc: 60bffe20                 mov	%r5,32
141d0: 20000281                 bz	0x1_41e8 = _divmod+0xa4
141d4: 20000204                 bn	0x1_41e8 = _divmod+0xa4
141d8: 40000100                 asl.f	%r0,%r0
141dc: 50a2fe01                 sub	%r5,%r5,1
141e0: 27ffff43                 bp.jd	0x1_41dc = _divmod+0x98
141e4: 40000100                 asl.f	%r0,%r0
141e8: 27fff820                 b.d	0x1_41ac = _divmod+0x68
141ec: 67828a00                 mov	%lp_count,%r5
141f0: 200001a0                 b.d	0x1_4200 = _divmod+0xbc
141f4: 60bffe00                 mov	%r5,0
141f8: 60bffe01                 mov	%r5,1
141fc: 50408400                 sub	%r2,%r1,%r2
14200: 48a28a00                 rlc	%r5,%r5
14204: 50008105                 sub.c.f	%r0,%r1,%r0
14208: 60dffe01                 mov	%r6,1
1420c: 679ffe20                 mov	%lp_count,32
14210: 30000280                 lp	0x1_4228 = _divmod+0xe4
14214: 40000100                 asl.f	%r0,%r0
14218: 48208200                 rlc	%r1,%r1
1421c: 57e08500                 sub.f	0,%r1,%r2
14220: 40000c06                 add.nc	%r0,%r0,%r6
14224: 50208406                 sub.nc	%r1,%r1,%r2
14228: 60fffe00                 mov	%r7,0
1422c: 57e2fa03                 sub.f	0,%r5,3
14230: 50038002                 sub.nz	%r0,%r7,%r0
14234: 67e2fa01                 and.f	0,%r5,1
14238: 50238202                 sub.nz	%r1,%r7,%r1
1423c: 380f8100                 j.f	[%blink]
_mwcvtdf:
14240: 41408300                 asl.f	%r10,%r1
14244: 489ffe00                 rlc	%r4,0
14248: 20004701                 bz	zero_hi
extract:
1424c: 40c51500                 asl.f	%r6,%r10
14250: 48c30d00                 rlc.f	%r6,%r6
14254: 48c30d00                 rlc.f	%r6,%r6
14258: 48c30d00                 rlc.f	%r6,%r6
1425c: 48c30d00                 rlc.f	%r6,%r6
14260: 48c30d00                 rlc.f	%r6,%r6
14264: 48c30d00                 rlc.f	%r6,%r6
14268: 48c30d00                 rlc.f	%r6,%r6
1426c: 48c30d00                 rlc.f	%r6,%r6
14270: 48c30d00                 rlc.f	%r6,%r6
14274: 48c30d00                 rlc.f	%r6,%r6
14278: 48c30c00                 rlc	%r6,%r6
1427c: 60c37d00 000007ff        and.f	%r6,%r6,0x7ff		; DEXP_MAX
14284: 7020fc00 fff00000        bic	%r1,%r1,0xfff0_0000		; 0xfff0_0000 = .regmask_lo+0x7ec0001
1428c: 6820fc02 00100000        or.nz	%r1,%r1,0x10_0000		; DHIDDEN_BIT
14294: 20000622                 bnz.d	0x1_42c8 = extract+0x7c
14298: 60000000                 mov	%r0,%r0
1429c: 615f7c00 00100000        mov	%r10,0x10_0000		; DHIDDEN_BIT
142a4: 40000100                 asl.f	%r0,%r0
142a8: 48208200                 rlc	%r1,%r1
142ac: 40c37e01                 add	%r6,%r6,1
142b0: 67e09500                 and.f	0,%r1,%r10
142b4: 50c37e01                 sub	%r6,%r6,1
142b8: 20000182                 bnz	0x1_42c8 = extract+0x7c
142bc: 40000100                 asl.f	%r0,%r0
142c0: 27fffda0                 b.d	0x1_42b0 = extract+0x64
142c4: 48208200                 rlc	%r1,%r1
142c8: 57e37d00 000007ff        sub.f	0,%r6,0x7ff		; DEXP_MAX
142d0: 7fffffff                 nop
142d4: 20002e81                 bz	nan_or_inf
142d8: 679ffe02                 mov	%lp_count,2
142dc: 40000100                 asl.f	%r0,%r0
142e0: 49008200                 rlc	%r8,%r1
142e4: 30000100                 lp	0x1_42f0 = extract+0xa4
142e8: 40000100                 asl.f	%r0,%r0
142ec: 49041000                 rlc	%r8,%r8
142f0: 50c37d00 00000380        sub.f	%r6,%r6,0x380		; 0x380 = FEXP_MAX+0x281
142f8: 61800000                 mov	%r12,%r0
142fc: 2000138b                 blt	denormal
14300: 57e07a00                 sub.f	0,%r0,0
14304: 7fffffff                 nop
14308: 2000070a                 bge	normalize
1430c: 61807d00 7fffffff        and.f	%r12,%r0,0x7fff_ffff		; 0x7fff_ffff = .regmask_lo+0x63fffffc
14314: 7fffffff                 nop
14318: 20000182                 bnz	round_up
1431c: 67e47a01                 and.f	0,%r8,1
14320: 7fffffff                 nop
14324: 20000381                 bz	normalize
round_up:
14328: 41047e01                 add	%r8,%r8,1
1432c: 67e47d00 01000000        and.f	0,%r8,0x100_0000		; FOVF_BIT
14334: 7fffffff                 nop
14338: 20000101                 bz	normalize
1433c: 19040400                 lsr	%r8,%r8
14340: 40c37e01                 add	%r6,%r6,1
normalize:
14344: 57e37a00                 sub.f	0,%r6,0
14348: 7fffffff                 nop
1434c: 2000098c                 ble	denormal
14350: 57e37aff                 sub.f	0,%r6,255
14354: 7fffffff                 nop
14358: 20001c0a                 bge	exp_ovf
untrans:
1435c: 70047c00 00800000        bic	%r0,%r8,0x80_0000		; FHIDDEN_BIT
14364: 18430600                 ror	%r2,%r6
14368: 18410600                 ror	%r2,%r2
1436c: 18410600                 ror	%r2,%r2
14370: 18410600                 ror	%r2,%r2
14374: 18410600                 ror	%r2,%r2
14378: 18410600                 ror	%r2,%r2
1437c: 18410600                 ror	%r2,%r2
14380: 18410600                 ror	%r2,%r2
14384: 18410400                 lsr	%r2,%r2
14388: 68010000                 or	%r0,%r2,%r0
1438c: 57e27a00                 sub.f	0,%r4,0
14390: 68007c02 80000000        or.nz	%r0,%r0,0x8000_0000		; .regmask_lo
14398: 380f8100                 j.f	[%blink]
denormal:
1439c: 505f8c00                 sub	%r2,0,%r6
143a0: 50417a01                 sub.f	%r2,%r2,1
143a4: 7fffffff                 nop
143a8: 20000b8c                 ble	no_denormal_round
143ac: 57e67a00                 sub.f	0,%r12,0
143b0: 7fffffff                 nop
143b4: 20000582                 bnz	no_denormal_sticky
143b8: 615fffff                 mov	%r10,-1
143bc: 57e17a20                 sub.f	0,%r2,32
143c0: 5145140a                 sub.ge	%r10,%r10,%r10
143c4: 2000028a                 bge	0x1_43dc = denormal+0x40
143c8: 1f810300                 asr.f	%lp_count,%r2
143cc: 41451405                 asl.c	%r10,%r10
143d0: 30000102                 lpnz	0x1_43dc = denormal+0x40
143d4: 41451400                 asl	%r10,%r10
143d8: 41451400                 asl	%r10,%r10
143dc: 79457fff                 xor	%r10,%r10,-1
143e0: 61841400                 and	%r12,%r8,%r10
no_denormal_sticky:
143e4: 57e17a20                 sub.f	0,%r2,32
143e8: 5104100a                 sub.ge	%r8,%r8,%r8
143ec: 2000028a                 bge	0x1_4404 = no_denormal_sticky+0x20
143f0: 1f810300                 asr.f	%lp_count,%r2
143f4: 19040405                 lsr.c	%r8,%r8
143f8: 30000102                 lpnz	0x1_4404 = no_denormal_sticky+0x20
143fc: 19040400                 lsr	%r8,%r8
14400: 19040400                 lsr	%r8,%r8
14404: 20000080                 b	round_denormal
no_denormal_round:
14408: 4104100b                 asl.lt	%r8,%r8
round_denormal:
1440c: 67e47a02                 and.f	0,%r8,2
14410: 7fffffff                 nop
14414: 20000281                 bz	shift_denormal
14418: 60447e05                 and	%r2,%r8,5
1441c: 6fe11900                 or.f	0,%r2,%r12
14420: 7fffffff                 nop
14424: 20000081                 bz	shift_denormal
14428: 41047e02                 add	%r8,%r8,2
shift_denormal:
1442c: 19040400                 lsr	%r8,%r8
14430: 19040400                 lsr	%r8,%r8
14434: 50c30c00                 sub	%r6,%r6,%r6
14438: 27ffe400                 b	untrans
exp_ovf:
1443c: 60dffeff                 mov	%r6,255
14440: 611f7c00 00800000        mov	%r8,0x80_0000		; FHIDDEN_BIT
14448: 27ffe200                 b	untrans
nan_or_inf:
1444c: 57e0fd00 00100000        sub.f	0,%r1,0x10_0000		; DHIDDEN_BIT
14454: 7fffffff                 nop
14458: 20000302                 bnz	NaN
1445c: 57e07a00                 sub.f	0,%r0,0
14460: 18020600                 ror	%r0,%r4
14464: 20000182                 bnz	NaN
14468: 68007c00 7f800000        or	%r0,%r0,0x7f80_0000		; 0x7f80_0000 = .regmask_lo+0x637ffffd
14470: 380f8100                 j.f	[%blink]
NaN:
14474: 18020600                 ror	%r0,%r4
14478: 68007c00 7fc00000        or	%r0,%r0,0x7fc0_0000		; 0x7fc0_0000 = .regmask_lo+0x63bffffd
14480: 380f8100                 j.f	[%blink]
zero_hi:
14484: 57e07a00                 sub.f	0,%r0,0
14488: 7fffffff                 nop
1448c: 27ffb782                 bnz	extract
14490: 18020600                 ror	%r0,%r4
14494: 380f8100                 j.f	[%blink]
_Lmpy:
14498: 679ffe20                 mov	%lp_count,32
1449c: 61800000                 mov	%r12,%r0
144a0: 61608300                 mov.f	%r11,%r1
144a4: 61661801                 mov.z	%r11,%r12
144a8: 601ffe00                 mov	%r0,0
144ac: 200007a1                 bz.d	0x1_44ec = _Lmpy+0x54
144b0: 603ffe00                 mov	%r1,0
144b4: 57e1fa00                 sub.f	0,%r3,0
144b8: 20000202                 bnz	0x1_44cc = _Lmpy+0x34
144bc: 60659600                 mov	%r3,%r11
144c0: 61610400                 mov	%r11,%r2
144c4: 200004a0                 b.d	0x1_44ec = _Lmpy+0x54
144c8: 60461800                 mov	%r2,%r12
144cc: 30000300                 lp	0x1_44e8 = _Lmpy+0x50
144d0: 19860500                 lsr.f	%r12,%r12
144d4: 20000106                 bnc	0x1_44e0 = _Lmpy+0x48
144d8: 40000500                 add.f	%r0,%r0,%r2
144dc: 48208600                 adc	%r1,%r1,%r3
144e0: 40410500                 asl.f	%r2,%r2
144e4: 48618600                 rlc	%r3,%r3
144e8: 679ffe20                 mov	%lp_count,32
144ec: 30000400                 lp	0x1_4510 = _Lmpy+0x78
144f0: 19658500                 lsr.f	%r11,%r11
144f4: 679f7c01 00000001        mov.z	%lp_count,1		; 0x1 = .regmask_lo+1
144fc: 20000106                 bnc	0x1_4508 = _Lmpy+0x70
14500: 40000500                 add.f	%r0,%r0,%r2
14504: 48208600                 adc	%r1,%r1,%r3
14508: 40410500                 asl.f	%r2,%r2
1450c: 48618600                 rlc	%r3,%r3
14510: 380f8100                 j.f	[%blink]
_Lsrl:
14514: 67810500                 mov.f	%lp_count,%r2
14518: 7fffffff                 nop
1451c: 30000102                 lpnz	0x1_4528 = _Lsrl+0x14
14520: 18208500                 lsr.f	%r1,%r1
14524: 18000800                 rrc	%r0,%r0
14528: 380f8100                 j.f	[%blink]
_Ldiv:
1452c: 79608600                 xor	%r11,%r1,%r3
14530: 47e08300                 asl.f	0,%r1
14534: 615ffe00                 mov	%r10,0
14538: 200001a6                 bnc.d	0x1_4548 = _Ldiv+0x1c
1453c: 19658800                 rrc	%r11,%r11
14540: 50050100                 sub.f	%r0,%r10,%r0
14544: 58250200                 sbc	%r1,%r10,%r1
14548: 67e18700                 mov.f	0,%r3
1454c: 20000203                 bp	0x1_4560 = _Ludiv+4
14550: 50450500                 sub.f	%r2,%r10,%r2
14554: 58650600                 sbc	%r3,%r10,%r3
14558: 20000080                 b	0x1_4560 = _Ludiv+4
_Ludiv:
1455c: 617ffe00                 mov	%r11,0
14560: 60810500                 mov.f	%r4,%r2
14564: 57e1fd01 00000000        sub.z.f	0,%r3,0		; .CC_I
1456c: 20001e01                 bz	_div0
14570: 57e0fa00                 sub.f	0,%r1,0
14574: 20000381                 bz	0x1_4594 = _Ludiv+0x38
14578: 200009ab                 blt.d	0x1_45c8 = _Ludiv+0x6c
1457c: 619ffe40                 mov	%r12,64
14580: 40000100                 asl.f	%r0,%r0
14584: 48208300                 rlc.f	%r1,%r1
14588: 27fffea3                 bp.d	0x1_4580 = _Ludiv+0x24
1458c: 51867e01                 sub	%r12,%r12,1
14590: 20000680                 b	0x1_45c8 = _Ludiv+0x6c
14594: 619ffe20                 mov	%r12,32
14598: 60200100                 mov.f	%r1,%r0
1459c: 605f7c01 00000000        mov.z	%r2,0		; .CC_I
145a4: 607f7c01 00000000        mov.z	%r3,0		; .CC_I
145ac: 20000981                 bz	0x1_45fc = _Ludiv+0xa0
145b0: 200002a4                 bn.d	0x1_45c8 = _Ludiv+0x6c
145b4: 601ffe00                 mov	%r0,0
145b8: 40208300                 asl.f	%r1,%r1
145bc: 51867e01                 sub	%r12,%r12,1
145c0: 27ffff23                 bp.d	0x1_45bc = _Ludiv+0x60
145c4: 40208303                 asl.p.f	%r1,%r1
145c8: 67861800                 mov	%lp_count,%r12
145cc: 60a18700                 mov.f	%r5,%r3
145d0: 605ffe00                 mov	%r2,0
145d4: 200009a2                 bnz.d	0x1_4624 = _Ludiv+0xc8
145d8: 607ffe00                 mov	%r3,0
145dc: 30000380                 lp	0x1_45fc = _Ludiv+0xa0
145e0: 40000100                 asl.f	%r0,%r0
145e4: 48208300                 rlc.f	%r1,%r1
145e8: 48410500                 rlc.f	%r2,%r2
145ec: 57e20506                 sub.nc.f	0,%r4,%r2
145f0: 40007c0e 00000001        add.ls	%r0,%r0,1		; 0x1 = .regmask_lo+1
145f8: 5041080e                 sub.ls	%r2,%r2,%r4
145fc: 57e5fa00                 sub.f	0,%r11,0
14600: 20000d81                 bz	0x1_4670 = _div0+16
14604: 2000010a                 bge	0x1_4610 = _Ludiv+0xb4
14608: 50450500                 sub.f	%r2,%r10,%r2
1460c: 58650600                 sbc	%r3,%r10,%r3
14610: 41659700                 asl.f	%r11,%r11
14614: 20000b03                 bp	0x1_4670 = _div0+16
14618: 50050100                 sub.f	%r0,%r10,%r0
1461c: 20000a20                 b.d	0x1_4670 = _div0+16
14620: 58250200                 sbc	%r1,%r10,%r1
14624: 30000580                 lp	0x1_4654 = _Ludiv+0xf8
14628: 40000100                 asl.f	%r0,%r0
1462c: 48208300                 rlc.f	%r1,%r1
14630: 48410500                 rlc.f	%r2,%r2
14634: 48618600                 rlc	%r3,%r3
14638: 50410900                 sub.f	%r2,%r2,%r4
1463c: 58618b00                 sbc.f	%r3,%r3,%r5
14640: 20000106                 bnc	0x1_464c = _Ludiv+0xf0
14644: 40410900                 add.f	%r2,%r2,%r4
14648: 48618b00                 adc.f	%r3,%r3,%r5
1464c: 40007c06 00000001        add.nc	%r0,%r0,1		; 0x1 = .regmask_lo+1
14654: 67e59700                 mov.f	0,%r11
14658: 20000281                 bz	0x1_4670 = _div0+16
1465c: 27fff480                 b	0x1_4604 = _Ludiv+0xa8
_div0:
14660: 60451400                 mov	%r2,%r10
14664: 60651400                 mov	%r3,%r10
14668: 50017e01                 sub	%r0,%r2,1
1466c: 18200400                 lsr	%r1,%r0
14670: 380f8100                 j.f	[%blink]
full_entry:
14674: 40a18700                 asl.f	%r5,%r3
14678: 489ffe00                 rlc	%r4,0
1467c: 57e17d01 00000000        sub.z.f	0,%r2,0		; .CC_I
14684: 200089a1                 bz.d	opd2_0
14688: 41208300                 asl.f	%r9,%r1
1468c: 78827c05 00000001        xor.c	%r4,%r4,1		; 0x1 = .regmask_lo+1
14694: 57e07d01 00000000        sub.z.f	0,%r0,0		; .CC_I
1469c: 20008101                 bz	opd1_0
146a0: 40c49300                 asl.f	%r6,%r9
146a4: 48c30d00                 rlc.f	%r6,%r6
146a8: 48c30d00                 rlc.f	%r6,%r6
146ac: 48c30d00                 rlc.f	%r6,%r6
146b0: 48c30d00                 rlc.f	%r6,%r6
146b4: 48c30d00                 rlc.f	%r6,%r6
146b8: 48c30d00                 rlc.f	%r6,%r6
146bc: 48c30d00                 rlc.f	%r6,%r6
146c0: 48c30d00                 rlc.f	%r6,%r6
146c4: 48c30d00                 rlc.f	%r6,%r6
146c8: 48c30d00                 rlc.f	%r6,%r6
146cc: 48c30c00                 rlc	%r6,%r6
146d0: 60c37d00 000007ff        and.f	%r6,%r6,0x7ff		; DEXP_MAX
146d8: 7020fc00 fff00000        bic	%r1,%r1,0xfff0_0000		; 0xfff0_0000 = .regmask_lo+0x7ec0001
146e0: 6820fc02 00100000        or.nz	%r1,%r1,0x10_0000		; DHIDDEN_BIT
146e8: 20000622                 bnz.d	0x1_471c = _mwdmul_+0xa8
146ec: 60000000                 mov	%r0,%r0
146f0: 615f7c00 00100000        mov	%r10,0x10_0000		; DHIDDEN_BIT
146f8: 40000100                 asl.f	%r0,%r0
146fc: 48208200                 rlc	%r1,%r1
14700: 40c37e01                 add	%r6,%r6,1
14704: 67e09500                 and.f	0,%r1,%r10
14708: 50c37e01                 sub	%r6,%r6,1
1470c: 20000182                 bnz	0x1_471c = _mwdmul_+0xa8
14710: 40000100                 asl.f	%r0,%r0
14714: 27fffda0                 b.d	0x1_4704 = _mwdmul_+0x90
14718: 48208200                 rlc	%r1,%r1
1471c: 40e28b00                 asl.f	%r7,%r5
14720: 48e38f00                 rlc.f	%r7,%r7
14724: 48e38f00                 rlc.f	%r7,%r7
14728: 48e38f00                 rlc.f	%r7,%r7
1472c: 48e38f00                 rlc.f	%r7,%r7
14730: 48e38f00                 rlc.f	%r7,%r7
14734: 48e38f00                 rlc.f	%r7,%r7
14738: 48e38f00                 rlc.f	%r7,%r7
1473c: 48e38f00                 rlc.f	%r7,%r7
14740: 48e38f00                 rlc.f	%r7,%r7
14744: 48e38f00                 rlc.f	%r7,%r7
14748: 48e38e00                 rlc	%r7,%r7
1474c: 60e3fd00 000007ff        and.f	%r7,%r7,0x7ff		; DEXP_MAX
14754: 7101fc00 fff00000        bic	%r8,%r3,0xfff0_0000		; 0xfff0_0000 = .regmask_lo+0x7ec0001
1475c: 69047c02 00100000        or.nz	%r8,%r8,0x10_0000		; DHIDDEN_BIT
14764: 20000622                 bnz.d	0x1_4798 = _mwdmul_+0x124
14768: 60410400                 mov	%r2,%r2
1476c: 615f7c00 00100000        mov	%r10,0x10_0000		; DHIDDEN_BIT
14774: 40410500                 asl.f	%r2,%r2
14778: 49041000                 rlc	%r8,%r8
1477c: 40e3fe01                 add	%r7,%r7,1
14780: 67e41500                 and.f	0,%r8,%r10
14784: 50e3fe01                 sub	%r7,%r7,1
14788: 20000182                 bnz	0x1_4798 = _mwdmul_+0x124
1478c: 40410500                 asl.f	%r2,%r2
14790: 27fffda0                 b.d	0x1_4780 = _mwdmul_+0x10c
14794: 49041000                 rlc	%r8,%r8
14798: 57e37d00 000007ff        sub.f	0,%r6,0x7ff		; DEXP_MAX
147a0: 20005201                 bz	nan_or_inf_1
147a4: 57e3fd00 000007ff        sub.f	0,%r7,0x7ff		; DEXP_MAX
147ac: 200059a1                 bz.d	nan_or_inf_2
147b0: 40c30e00                 add	%r6,%r6,%r7
147b4: 50c37c00 000003ff        sub	%r6,%r6,0x3ff		; DEXP_BIAS
147bc: 61400000                 mov	%r10,%r0
147c0: 61608200                 mov	%r11,%r1
147c4: 613ffe00                 mov	%r9,0
147c8: 60fffe00                 mov	%r7,0
147cc: 601ffe00                 mov	%r0,0
147d0: 603ffe00                 mov	%r1,0
147d4: 60bffe00                 mov	%r5,0
147d8: 619ffe00                 mov	%r12,0
147dc: 679ffe35                 mov	%lp_count,53
147e0: 30000580                 lp	0x1_4810 = _mwdmul_+0x19c
147e4: 19040500                 lsr.f	%r8,%r8
147e8: 18410900                 rrc.f	%r2,%r2
147ec: 20000206                 bnc	0x1_4800 = _mwdmul_+0x18c
147f0: 40a29500                 add.f	%r5,%r5,%r10
147f4: 49861700                 adc.f	%r12,%r12,%r11
147f8: 48048100                 adc.f	%r0,%r9,%r0
147fc: 48238200                 adc	%r1,%r7,%r1
14800: 41451500                 asl.f	%r10,%r10
14804: 49659700                 rlc.f	%r11,%r11
14808: 49249300                 rlc.f	%r9,%r9
1480c: 48e38e00                 rlc	%r7,%r7
14810: 679ffe0b                 mov	%lp_count,11
14814: 41200100                 asl.f	%r9,%r0
14818: 48208200                 rlc	%r1,%r1
1481c: 30000100                 lp	0x1_4828 = _mwdmul_+0x1b4
14820: 41249300                 asl.f	%r9,%r9
14824: 48208200                 rlc	%r1,%r1
14828: 679ffe0b                 mov	%lp_count,11
1482c: 41861900                 asl.f	%r12,%r12
14830: 48000000                 rlc	%r0,%r0
14834: 30000100                 lp	0x1_4840 = _mwdmul_+0x1cc
14838: 41861900                 asl.f	%r12,%r12
1483c: 48000000                 rlc	%r0,%r0
14840: 57e2fa00                 sub.f	0,%r5,0
14844: 69867c02 00000002        or.nz	%r12,%r12,2		; GB
1484c: 57e37a00                 sub.f	0,%r6,0
14850: 2000080c                 ble	noround
14854: 67e0fd00 00200000        and.f	0,%r1,0x20_0000		; DOVF_BIT
1485c: 20000201                 bz	0x1_4870 = _mwdmul_+0x1fc
14860: 40c37e01                 add	%r6,%r6,1
14864: 18208500                 lsr.f	%r1,%r1
14868: 18000900                 rrc.f	%r0,%r0
1486c: 19860800                 rrc	%r12,%r12
14870: 57e67a00                 sub.f	0,%r12,0
14874: 2000068a                 bge	0x1_48ac = noround+0x18
14878: 67e67d00 7fffffff        and.f	0,%r12,0x7fff_ffff		; 0x7fff_ffff = .regmask_lo+0x63fffffc
14880: 20000102                 bnz	inc_mantissa
14884: 67e07a01                 and.f	0,%r0,1
14888: 20000401                 bz	0x1_48ac = noround+0x18
inc_mantissa:
1488c: 40007a01                 add.f	%r0,%r0,1
14890: 4820fe00                 adc	%r1,%r1,0
noround:
14894: 67e0fd00 00200000        and.f	0,%r1,0x20_0000		; DOVF_BIT
1489c: 20000181                 bz	0x1_48ac = noround+0x18
148a0: 40c37e01                 add	%r6,%r6,1
148a4: 18208500                 lsr.f	%r1,%r1
148a8: 18000800                 rrc	%r0,%r0
148ac: 57e37d00 000007ff        sub.f	0,%r6,0x7ff		; DEXP_MAX
148b4: 20002a8a                 bge	exp_ovf
148b8: 57e37a00                 sub.f	0,%r6,0
148bc: 2000090c                 ble	denormal
untrans:
148c0: 7020fc00 00100000        bic	%r1,%r1,0x10_0000		; DHIDDEN_BIT
148c8: 18430600                 ror	%r2,%r6
148cc: 18410600                 ror	%r2,%r2
148d0: 18410600                 ror	%r2,%r2
148d4: 18410600                 ror	%r2,%r2
148d8: 18410600                 ror	%r2,%r2
148dc: 18410600                 ror	%r2,%r2
148e0: 18410600                 ror	%r2,%r2
148e4: 18410600                 ror	%r2,%r2
148e8: 18410600                 ror	%r2,%r2
148ec: 18410600                 ror	%r2,%r2
148f0: 18410600                 ror	%r2,%r2
148f4: 18410400                 lsr	%r2,%r2
148f8: 68210200                 or	%r1,%r2,%r1
148fc: 18420600                 ror	%r2,%r4
14900: 68208400                 or	%r1,%r1,%r2
14904: 380f8100                 j.f	[%blink]
denormal:
14908: 57e37bcb                 sub.f	0,%r6,-53
1490c: 2000228b                 blt	underflow
14910: 515f8c00                 sub	%r10,0,%r6
14914: 51457a01                 sub.f	%r10,%r10,1
14918: 7fffffff                 nop
1491c: 2000150b                 blt	shift_left_once
14920: 20001581                 bz	round_denormal
14924: 57e57a20                 sub.f	0,%r10,32
14928: 7fffffff                 nop
1492c: 2000098b                 blt	0x1_497c = denormal+0x74
14930: 51457e20                 sub	%r10,%r10,32
14934: 69801900                 or.f	%r12,%r0,%r12
14938: 617fffff                 mov	%r11,-1
1493c: 20000382                 bnz	0x1_495c = denormal+0x54
14940: 1f850300                 asr.f	%lp_count,%r10
14944: 41659605                 asl.c	%r11,%r11
14948: 30000102                 lpnz	0x1_4954 = denormal+0x4c
1494c: 41659600                 asl	%r11,%r11
14950: 41659600                 asl	%r11,%r11
14954: 7965ffff                 xor	%r11,%r11,-1
14958: 61809600                 and	%r12,%r1,%r11
1495c: 1f850300                 asr.f	%lp_count,%r10
14960: 60008200                 mov	%r0,%r1
14964: 18000405                 lsr.c	%r0,%r0
14968: 30000102                 lpnz	0x1_4974 = denormal+0x6c
1496c: 18000400                 lsr	%r0,%r0
14970: 18000400                 lsr	%r0,%r0
14974: 20000b20                 b.d	round_denormal
14978: 603ffe00                 mov	%r1,0
1497c: 57e67a00                 sub.f	0,%r12,0
14980: 617fffff                 mov	%r11,-1
14984: 20000502                 bnz	0x1_49b0 = denormal+0xa8
14988: 57e57a20                 sub.f	0,%r10,32
1498c: 5165960a                 sub.ge	%r11,%r11,%r11
14990: 2000028a                 bge	0x1_49a8 = denormal+0xa0
14994: 1f850300                 asr.f	%lp_count,%r10
14998: 41659605                 asl.c	%r11,%r11
1499c: 30000102                 lpnz	0x1_49a8 = denormal+0xa0
149a0: 41659600                 asl	%r11,%r11
149a4: 41659600                 asl	%r11,%r11
149a8: 7965ffff                 xor	%r11,%r11,-1
149ac: 61801600                 and	%r12,%r0,%r11
149b0: 67851500                 mov.f	%lp_count,%r10
149b4: 60000000                 mov	%r0,%r0
149b8: 30000102                 lpnz	0x1_49c4 = denormal+0xbc
149bc: 18208500                 lsr.f	%r1,%r1
149c0: 18000800                 rrc	%r0,%r0
149c4: 20000100                 b	round_denormal
shift_left_once:
149c8: 40000100                 asl.f	%r0,%r0
149cc: 48208200                 rlc	%r1,%r1
round_denormal:
149d0: 67e07a02                 and.f	0,%r0,2
149d4: 7fffffff                 nop
149d8: 20000301                 bz	shift_denormal
149dc: 61407e05                 and	%r10,%r0,5
149e0: 6fe51900                 or.f	0,%r10,%r12
149e4: 7fffffff                 nop
149e8: 20000101                 bz	shift_denormal
149ec: 40007a02                 add.f	%r0,%r0,2
149f0: 4820fe00                 adc	%r1,%r1,0
shift_denormal:
149f4: 18208500                 lsr.f	%r1,%r1
149f8: 18000800                 rrc	%r0,%r0
149fc: 18208500                 lsr.f	%r1,%r1
14a00: 18000800                 rrc	%r0,%r0
14a04: 50c30c00                 sub	%r6,%r6,%r6
14a08: 27ffd680                 b	untrans
exp_ovf:
14a0c: 60df7c00 000007ff        mov	%r6,0x7ff		; DEXP_MAX
14a14: 603f7c00 00100000        mov	%r1,0x10_0000		; DHIDDEN_BIT
14a1c: 27ffd420                 b.d	untrans
14a20: 601ffe00                 mov	%r0,0
underflow:
14a24: 50c30c00                 sub	%r6,%r6,%r6
14a28: 603ffe00                 mov	%r1,0
14a2c: 27ffd220                 b.d	untrans
14a30: 601ffe00                 mov	%r0,0
nan_or_inf_1:
14a34: 57e0fd00 00100000        sub.f	0,%r1,0x10_0000		; DHIDDEN_BIT
14a3c: 57e07d01 00000000        sub.z.f	0,%r0,0		; .CC_I
14a44: 18220600                 ror	%r1,%r4
14a48: 6820fc02 7ff80000        or.nz	%r1,%r1,0x7ff8_0000		; 0x7ff8_0000 = .regmask_lo+0x63f7fffd
14a50: 601f7c02 00000000        mov.nz	%r0,0		; .CC_I
14a58: 27ffd502                 bnz	0x1_4904 = untrans+0x44
14a5c: 57e3fd00 000007ff        sub.f	0,%r7,0x7ff		; DEXP_MAX
14a64: 20000281                 bz	nan_or_inf_2
14a68: 18220600                 ror	%r1,%r4
14a6c: 6820fc00 7ff00000        or	%r1,%r1,0x7ff0_0000		; 0x7ff0_0000 = .regmask_lo+0x63effffd
14a74: 601ffe00                 mov	%r0,0
14a78: 27ffd100                 b	0x1_4904 = untrans+0x44
nan_or_inf_2:
14a7c: 57e47d00 00100000        sub.f	0,%r8,0x10_0000		; DHIDDEN_BIT
14a84: 57e17d01 00000000        sub.z.f	0,%r2,0		; .CC_I
14a8c: 18220600                 ror	%r1,%r4
14a90: 6820fc02 7ff80000        or.nz	%r1,%r1,0x7ff8_0000		; 0x7ff8_0000 = .regmask_lo+0x63f7fffd
14a98: 6820fc01 7ff00000        or.z	%r1,%r1,0x7ff0_0000		; 0x7ff0_0000 = .regmask_lo+0x63effffd
14aa0: 601ffe00                 mov	%r0,0
14aa4: 27ffcb80                 b	0x1_4904 = untrans+0x44
opd1_0:
14aa8: 57e2fd00 ffe00000        sub.f	0,%r5,0xffe0_0000		; 0xffe0_0000 = .regmask_lo+0x7dc0001
14ab0: 7fffffff                 nop
14ab4: 20000686                 bnc	return_NAN
14ab8: 7fffffff                 nop
return_zero:
14abc: 601ffe00                 mov	%r0,0
14ac0: 603ffe00                 mov	%r1,0
14ac4: 57e27a00                 sub.f	0,%r4,0
14ac8: 6820fc02 80000000        or.nz	%r1,%r1,0x8000_0000		; .regmask_lo
14ad0: 27ffc600                 b	0x1_4904 = untrans+0x44
opd2_0:
14ad4: 78827c05 00000001        xor.c	%r4,%r4,1		; 0x1 = .regmask_lo+1
14adc: 57e4fd00 ffe00000        sub.f	0,%r9,0xffe0_0000		; 0xffe0_0000 = .regmask_lo+0x7dc0001
14ae4: 27fffa85                 bc	return_zero
14ae8: 7fffffff                 nop
return_NAN:
14aec: 603f7c00 7ff80000        mov	%r1,0x7ff8_0000		; 0x7ff8_0000 = .regmask_lo+0x63f7fffd
14af4: 601ffe00                 mov	%r0,0
14af8: 27ffc100                 b	0x1_4904 = untrans+0x44
_mwdfltu_:
14afc: 57e07a00                 sub.f	0,%r0,0
14b00: 50820800                 sub	%r4,%r4,%r4
14b04: 20001981                 bz	zero
14b08: 20000520                 b.d	0x1_4b34 = _mwdflt_+0x24
14b0c: 60200000                 mov	%r1,%r0
_mwdflt_:
14b10: 57e07a00                 sub.f	0,%r0,0
14b14: 501f000b 00000000        sub.lt	%r0,0,%r0		; .CC_I
14b1c: 20001681                 bz	zero
14b20: 609f7c0b 00000001        mov.lt	%r4,1		; 0x1 = .regmask_lo+1
14b28: 609f7c0a 00000000        mov.ge	%r4,0		; .CC_I
14b30: 60200000                 mov	%r1,%r0
14b34: 50000000                 sub	%r0,%r0,%r0
14b38: 57e0fd00 001fffff        sub.f	0,%r1,0x1f_ffff		; 0x1f_ffff = DHIDDEN_BIT+0xfffff
14b40: 60df7c00 00000413        mov	%r6,0x413		; 0x413 = DEXP_BIAS+0x14
14b48: 20000d8d                 bhi	big_int
14b4c: 67e0fd00 00100000        and.f	0,%r1,0x10_0000		; DHIDDEN_BIT
14b54: 7fffffff                 nop
14b58: 20000282                 bnz	untrans
14b5c: 40208200                 asl	%r1,%r1
14b60: 67e0fd00 00100000        and.f	0,%r1,0x10_0000		; DHIDDEN_BIT
14b68: 50c37e01                 sub	%r6,%r6,1
14b6c: 27fffd81                 bz	0x1_4b5c = _mwdflt_+0x4c
untrans:
14b70: 7020fc00 00100000        bic	%r1,%r1,0x10_0000		; DHIDDEN_BIT
14b78: 18430600                 ror	%r2,%r6
14b7c: 18410600                 ror	%r2,%r2
14b80: 18410600                 ror	%r2,%r2
14b84: 18410600                 ror	%r2,%r2
14b88: 18410600                 ror	%r2,%r2
14b8c: 18410600                 ror	%r2,%r2
14b90: 18410600                 ror	%r2,%r2
14b94: 18410600                 ror	%r2,%r2
14b98: 18410600                 ror	%r2,%r2
14b9c: 18410600                 ror	%r2,%r2
14ba0: 18410600                 ror	%r2,%r2
14ba4: 18410400                 lsr	%r2,%r2
14ba8: 68210200                 or	%r1,%r2,%r1
14bac: 18420600                 ror	%r2,%r4
14bb0: 68208400                 or	%r1,%r1,%r2
14bb4: 380f8100                 j.f	[%blink]
big_int:
14bb8: 18208500                 lsr.f	%r1,%r1
14bbc: 18000800                 rrc	%r0,%r0
14bc0: 57e0fd00 001fffff        sub.f	0,%r1,0x1f_ffff		; 0x1f_ffff = DHIDDEN_BIT+0xfffff
14bc8: 40c37e01                 add	%r6,%r6,1
14bcc: 27fffd09                 bgt	big_int
14bd0: 27fff380                 b	untrans
zero:
14bd4: 50208200                 sub	%r1,%r1,%r1
14bd8: 50000000                 sub	%r0,%r0,%r0
14bdc: 380f8100                 j.f	[%blink]
_mwdrsub_:
14be0: 7820fc00 80000000        xor	%r1,%r1,0x8000_0000		; .regmask_lo
14be8: 20000100                 b	_mwdadd_
_mwdsub_:
14bec: 7861fc00 80000000        xor	%r3,%r3,0x8000_0000		; .regmask_lo
_mwdadd_:
14bf4: 41408300                 asl.f	%r10,%r1
14bf8: 489ffe00                 rlc	%r4,0
14bfc: 20005781                 bz	opd1_upper_zero
opd1_not_zero:
14c00: 41618700                 asl.f	%r11,%r3
14c04: 48bffe00                 rlc	%r5,0
14c08: 20005d01                 bz	opd2_upper_zero
opd2_not_zero:
14c0c: 57e59500                 sub.f	0,%r11,%r10
14c10: 57e10101                 sub.z.f	0,%r2,%r0
14c14: 61400000                 mov	%r10,%r0
14c18: 2000040e                 bls	noswap
14c1c: 60010400                 mov	%r0,%r2
14c20: 60451400                 mov	%r2,%r10
14c24: 61408200                 mov	%r10,%r1
14c28: 60218600                 mov	%r1,%r3
14c2c: 60651400                 mov	%r3,%r10
14c30: 61420800                 mov	%r10,%r4
14c34: 60828a00                 mov	%r4,%r5
14c38: 60a51400                 mov	%r5,%r10
noswap:
14c3c: 40c08200                 asl	%r6,%r1
14c40: 40c30d00                 asl.f	%r6,%r6
14c44: 48c30d00                 rlc.f	%r6,%r6
14c48: 48c30d00                 rlc.f	%r6,%r6
14c4c: 48c30d00                 rlc.f	%r6,%r6
14c50: 48c30d00                 rlc.f	%r6,%r6
14c54: 48c30d00                 rlc.f	%r6,%r6
14c58: 48c30d00                 rlc.f	%r6,%r6
14c5c: 48c30d00                 rlc.f	%r6,%r6
14c60: 48c30d00                 rlc.f	%r6,%r6
14c64: 48c30d00                 rlc.f	%r6,%r6
14c68: 48c30d00                 rlc.f	%r6,%r6
14c6c: 48c30c00                 rlc	%r6,%r6
14c70: 60c37d00 000007ff        and.f	%r6,%r6,0x7ff		; DEXP_MAX
14c78: 7020fc00 fff00000        bic	%r1,%r1,0xfff0_0000		; 0xfff0_0000 = .regmask_lo+0x7ec0001
14c80: 6820fc02 00100000        or.nz	%r1,%r1,0x10_0000		; DHIDDEN_BIT
14c88: 20000622                 bnz.d	0x1_4cbc = noswap+0x80
14c8c: 60000000                 mov	%r0,%r0
14c90: 615f7c00 00100000        mov	%r10,0x10_0000		; DHIDDEN_BIT
14c98: 40000100                 asl.f	%r0,%r0
14c9c: 48208200                 rlc	%r1,%r1
14ca0: 40c37e01                 add	%r6,%r6,1
14ca4: 67e09500                 and.f	0,%r1,%r10
14ca8: 50c37e01                 sub	%r6,%r6,1
14cac: 20000182                 bnz	0x1_4cbc = noswap+0x80
14cb0: 40000100                 asl.f	%r0,%r0
14cb4: 27fffda0                 b.d	0x1_4ca4 = noswap+0x68
14cb8: 48208200                 rlc	%r1,%r1
14cbc: 40e18600                 asl	%r7,%r3
14cc0: 40e38f00                 asl.f	%r7,%r7
14cc4: 48e38f00                 rlc.f	%r7,%r7
14cc8: 48e38f00                 rlc.f	%r7,%r7
14ccc: 48e38f00                 rlc.f	%r7,%r7
14cd0: 48e38f00                 rlc.f	%r7,%r7
14cd4: 48e38f00                 rlc.f	%r7,%r7
14cd8: 48e38f00                 rlc.f	%r7,%r7
14cdc: 48e38f00                 rlc.f	%r7,%r7
14ce0: 48e38f00                 rlc.f	%r7,%r7
14ce4: 48e38f00                 rlc.f	%r7,%r7
14ce8: 48e38f00                 rlc.f	%r7,%r7
14cec: 48e38e00                 rlc	%r7,%r7
14cf0: 60e3fd00 000007ff        and.f	%r7,%r7,0x7ff		; DEXP_MAX
14cf8: 7101fc00 fff00000        bic	%r8,%r3,0xfff0_0000		; 0xfff0_0000 = .regmask_lo+0x7ec0001
14d00: 69047c02 00100000        or.nz	%r8,%r8,0x10_0000		; DHIDDEN_BIT
14d08: 20000622                 bnz.d	0x1_4d3c = noswap+0x100
14d0c: 60410400                 mov	%r2,%r2
14d10: 615f7c00 00100000        mov	%r10,0x10_0000		; DHIDDEN_BIT
14d18: 40410500                 asl.f	%r2,%r2
14d1c: 49041000                 rlc	%r8,%r8
14d20: 40e3fe01                 add	%r7,%r7,1
14d24: 67e41500                 and.f	0,%r8,%r10
14d28: 50e3fe01                 sub	%r7,%r7,1
14d2c: 20000182                 bnz	0x1_4d3c = noswap+0x100
14d30: 40410500                 asl.f	%r2,%r2
14d34: 27fffda0                 b.d	0x1_4d24 = noswap+0xe8
14d38: 49041000                 rlc	%r8,%r8
14d3c: 57e37d00 000007ff        sub.f	0,%r6,0x7ff		; DEXP_MAX
14d44: 7fffffff                 nop
14d48: 20007901                 bz	nan_or_inf_1
14d4c: 57e3fd00 000007ff        sub.f	0,%r7,0x7ff		; DEXP_MAX
14d54: 7fffffff                 nop
14d58: 20008521                 bz.d	nan_or_inf_2
14d5c: 51630e00                 sub	%r11,%r6,%r7
14d60: 57e5fa36                 sub.f	0,%r11,54
14d64: 51861800                 sub	%r12,%r12,%r12
14d68: 20002109                 bgt	untrans
14d6c: 5145fa02                 sub.f	%r10,%r11,2
14d70: 7fffffff                 nop
14d74: 20000801                 bz	noshift
14d78: 20000409                 bgt	shift
14d7c: 40410500                 asl.f	%r2,%r2
14d80: 49041000                 rlc	%r8,%r8
14d84: 41457a01                 add.f	%r10,%r10,1
14d88: 7fffffff                 nop
14d8c: 20000501                 bz	noshift
14d90: 40410500                 asl.f	%r2,%r2
14d94: 20000420                 b.d	noshift
14d98: 49041000                 rlc	%r8,%r8
shift:
14d9c: 67851500                 mov.f	%lp_count,%r10
14da0: 7fffffff                 nop
14da4: 30000202                 lpnz	noshift
14da8: 19040500                 lsr.f	%r8,%r8
14dac: 18410900                 rrc.f	%r2,%r2
14db0: 69867c05 00000001        or.c	%r12,%r12,1		; 0x1 = .regmask_lo+1
noshift:
14db8: 40000100                 asl.f	%r0,%r0
14dbc: 48208200                 rlc	%r1,%r1
14dc0: 40000100                 asl.f	%r0,%r0
14dc4: 48208200                 rlc	%r1,%r1
14dc8: 57e20b00                 sub.f	0,%r4,%r5
14dcc: 7fffffff                 nop
14dd0: 20004b82                 bnz	signs_differ
14dd4: 40000500                 add.f	%r0,%r0,%r2
14dd8: 48209000                 adc	%r1,%r1,%r8
check_overflow:
14ddc: 67e0fd00 00800000        and.f	0,%r1,0x80_0000		; FHIDDEN_BIT
14de4: 7fffffff                 nop
14de8: 20000281                 bz	check_rounding
14dec: 40c37e01                 add	%r6,%r6,1
14df0: 18208500                 lsr.f	%r1,%r1
14df4: 18000900                 rrc.f	%r0,%r0
14df8: 69867c05 00000001        or.c	%r12,%r12,1		; 0x1 = .regmask_lo+1
check_rounding:
14e00: 67e07a02                 and.f	0,%r0,2
14e04: 7fffffff                 nop
14e08: 200007a1                 bz.d	0x1_4e48 = check_rounding+0x48
14e0c: 57e67a00                 sub.f	0,%r12,0
14e10: 67e07d01 00000005        and.z.f	0,%r0,5		; 0x5 = GB+3
14e18: 7fffffff                 nop
14e1c: 20000501                 bz	0x1_4e48 = check_rounding+0x48
14e20: 40007a02                 add.f	%r0,%r0,2
14e24: 4020fc05 00000001        add.c	%r1,%r1,1		; 0x1 = .regmask_lo+1
14e2c: 67e0fd00 00800000        and.f	0,%r1,0x80_0000		; FHIDDEN_BIT
14e34: 7fffffff                 nop
14e38: 20000181                 bz	0x1_4e48 = check_rounding+0x48
14e3c: 18208500                 lsr.f	%r1,%r1
14e40: 18000800                 rrc	%r0,%r0
14e44: 40c37e01                 add	%r6,%r6,1
14e48: 18208500                 lsr.f	%r1,%r1
14e4c: 18000800                 rrc	%r0,%r0
14e50: 18208500                 lsr.f	%r1,%r1
14e54: 18000800                 rrc	%r0,%r0
normalize:
14e58: 57e37a00                 sub.f	0,%r6,0
14e5c: 7fffffff                 nop
14e60: 2000150c                 ble	denormal
14e64: 57e37d00 000007ff        sub.f	0,%r6,0x7ff		; DEXP_MAX
14e6c: 7fffffff                 nop
14e70: 2000328a                 bge	exp_ovf
untrans:
14e74: 7020fc00 00100000        bic	%r1,%r1,0x10_0000		; DHIDDEN_BIT
14e7c: 18430600                 ror	%r2,%r6
14e80: 18410600                 ror	%r2,%r2
14e84: 18410600                 ror	%r2,%r2
14e88: 18410600                 ror	%r2,%r2
14e8c: 18410600                 ror	%r2,%r2
14e90: 18410600                 ror	%r2,%r2
14e94: 18410600                 ror	%r2,%r2
14e98: 18410600                 ror	%r2,%r2
14e9c: 18410600                 ror	%r2,%r2
14ea0: 18410600                 ror	%r2,%r2
14ea4: 18410600                 ror	%r2,%r2
14ea8: 18410400                 lsr	%r2,%r2
14eac: 68210200                 or	%r1,%r2,%r1
14eb0: 18420600                 ror	%r2,%r4
14eb4: 68208400                 or	%r1,%r1,%r2
14eb8: 380f8100                 j.f	[%blink]
opd1_upper_zero:
14ebc: 57e07a00                 sub.f	0,%r0,0
14ec0: 7fffffff                 nop
14ec4: 27ffa702                 bnz	opd1_not_zero
14ec8: 57e1fd00 80000000        sub.f	0,%r3,0x8000_0000		; .regmask_lo
14ed0: 7fffffff                 nop
14ed4: 200002c2                 bnz.jd	return_opd2
14ed8: 60218600                 mov	%r1,%r3
14edc: 57e17a00                 sub.f	0,%r2,0
14ee0: 7fffffff                 nop
14ee4: 60218602                 mov.nz	%r1,%r3
14ee8: 60208201                 mov.z	%r1,%r1
return_opd2:
14eec: 60010400                 mov	%r0,%r2
14ef0: 380f8100                 j.f	[%blink]
opd2_upper_zero:
14ef4: 57e17a00                 sub.f	0,%r2,0
14ef8: 7fffffff                 nop
14efc: 27ffa182                 bnz	opd2_not_zero
14f00: 7fffffff                 nop
14f04: 380f8100                 j.f	[%blink]
14f08: 7fffffff                 nop
denormal:
14f0c: 515f8c00                 sub	%r10,0,%r6
14f10: 51457a01                 sub.f	%r10,%r10,1
14f14: 7fffffff                 nop
14f18: 2000150b                 blt	shift_left_once
14f1c: 20001581                 bz	round_denormal
14f20: 57e57a20                 sub.f	0,%r10,32
14f24: 7fffffff                 nop
14f28: 2000098b                 blt	0x1_4f78 = denormal+0x6c
14f2c: 51457e20                 sub	%r10,%r10,32
14f30: 69801900                 or.f	%r12,%r0,%r12
14f34: 617fffff                 mov	%r11,-1
14f38: 20000382                 bnz	0x1_4f58 = denormal+0x4c
14f3c: 1f850300                 asr.f	%lp_count,%r10
14f40: 41659605                 asl.c	%r11,%r11
14f44: 30000102                 lpnz	0x1_4f50 = denormal+0x44
14f48: 41659600                 asl	%r11,%r11
14f4c: 41659600                 asl	%r11,%r11
14f50: 7965ffff                 xor	%r11,%r11,-1
14f54: 61809600                 and	%r12,%r1,%r11
14f58: 1f850300                 asr.f	%lp_count,%r10
14f5c: 60008200                 mov	%r0,%r1
14f60: 18000405                 lsr.c	%r0,%r0
14f64: 30000102                 lpnz	0x1_4f70 = denormal+0x64
14f68: 18000400                 lsr	%r0,%r0
14f6c: 18000400                 lsr	%r0,%r0
14f70: 20000b20                 b.d	round_denormal
14f74: 603ffe00                 mov	%r1,0
14f78: 57e67a00                 sub.f	0,%r12,0
14f7c: 617fffff                 mov	%r11,-1
14f80: 20000502                 bnz	0x1_4fac = denormal+0xa0
14f84: 57e57a20                 sub.f	0,%r10,32
14f88: 5165960a                 sub.ge	%r11,%r11,%r11
14f8c: 2000028a                 bge	0x1_4fa4 = denormal+0x98
14f90: 1f850300                 asr.f	%lp_count,%r10
14f94: 41659605                 asl.c	%r11,%r11
14f98: 30000102                 lpnz	0x1_4fa4 = denormal+0x98
14f9c: 41659600                 asl	%r11,%r11
14fa0: 41659600                 asl	%r11,%r11
14fa4: 7965ffff                 xor	%r11,%r11,-1
14fa8: 61801600                 and	%r12,%r0,%r11
14fac: 67851500                 mov.f	%lp_count,%r10
14fb0: 60000000                 mov	%r0,%r0
14fb4: 30000102                 lpnz	0x1_4fc0 = denormal+0xb4
14fb8: 18208500                 lsr.f	%r1,%r1
14fbc: 18000800                 rrc	%r0,%r0
14fc0: 20000100                 b	round_denormal
shift_left_once:
14fc4: 40000100                 asl.f	%r0,%r0
14fc8: 48208200                 rlc	%r1,%r1
round_denormal:
14fcc: 67e07a02                 and.f	0,%r0,2
14fd0: 7fffffff                 nop
14fd4: 20000301                 bz	shift_denormal
14fd8: 61407e05                 and	%r10,%r0,5
14fdc: 6fe51900                 or.f	0,%r10,%r12
14fe0: 7fffffff                 nop
14fe4: 20000101                 bz	shift_denormal
14fe8: 40007a02                 add.f	%r0,%r0,2
14fec: 4820fe00                 adc	%r1,%r1,0
shift_denormal:
14ff0: 18208500                 lsr.f	%r1,%r1
14ff4: 18000800                 rrc	%r0,%r0
14ff8: 18208500                 lsr.f	%r1,%r1
14ffc: 18000800                 rrc	%r0,%r0
15000: 50c30c00                 sub	%r6,%r6,%r6
15004: 27ffcd80                 b	untrans
exp_ovf:
15008: 60df7c00 000007ff        mov	%r6,0x7ff		; DEXP_MAX
15010: 603f7c00 00100000        mov	%r1,0x10_0000		; DHIDDEN_BIT
15018: 601ffe00                 mov	%r0,0
1501c: 27ffca80                 b	untrans
underflow:
15020: 50c30c00                 sub	%r6,%r6,%r6
15024: 603ffe00                 mov	%r1,0
15028: 27ffc920                 b.d	untrans
1502c: 601ffe00                 mov	%r0,0
signs_differ:
15030: 50000500                 sub.f	%r0,%r0,%r2
15034: 58209000                 sbc	%r1,%r1,%r8
15038: 67e0fd00 00400000        and.f	0,%r1,0x40_0000		; 0x40_0000 = DOVF_BIT+0x200000
15040: 7fffffff                 nop
15044: 20000382                 bnz	0x1_5064 = signs_differ+0x34
15048: 40000100                 asl.f	%r0,%r0
1504c: 48208200                 rlc	%r1,%r1
15050: 50c37e01                 sub	%r6,%r6,1
15054: 67e0fd00 00400000        and.f	0,%r1,0x40_0000		; 0x40_0000 = DOVF_BIT+0x200000
1505c: 7fffffff                 nop
15060: 20000a81                 bz	0x1_50b8 = droundup+0x24
15064: 67e07a02                 and.f	0,%r0,2
15068: 7fffffff                 nop
1506c: 20000921                 bz.d	0x1_50b8 = droundup+0x24
15070: 67e07a01                 and.f	0,%r0,1
15074: 7fffffff                 nop
15078: 20000302                 bnz	droundup
1507c: 57e67a00                 sub.f	0,%r12,0
15080: 7fffffff                 nop
15084: 20000602                 bnz	0x1_50b8 = droundup+0x24
15088: 67e07a04                 and.f	0,%r0,4
1508c: 7fffffff                 nop
15090: 20000481                 bz	0x1_50b8 = droundup+0x24
droundup:
15094: 40007a02                 add.f	%r0,%r0,2
15098: 4820fe00                 adc	%r1,%r1,0
1509c: 67e0fd00 00800000        and.f	0,%r1,0x80_0000		; FHIDDEN_BIT
150a4: 40c37c02 00000001        add.nz	%r6,%r6,1		; 0x1 = .regmask_lo+1
150ac: 20000101                 bz	0x1_50b8 = droundup+0x24
150b0: 18208500                 lsr.f	%r1,%r1
150b4: 18000800                 rrc	%r0,%r0
150b8: 18208500                 lsr.f	%r1,%r1
150bc: 18000800                 rrc	%r0,%r0
150c0: 18208500                 lsr.f	%r1,%r1
150c4: 18000800                 rrc	%r0,%r0
150c8: 57e0fd00 00100000        sub.f	0,%r1,0x10_0000		; DHIDDEN_BIT
150d0: 7fffffff                 nop
150d4: 27ffb00a                 bge	normalize
fix_mantissa:
150d8: 57e0fa00                 sub.f	0,%r1,0
150dc: 57e07d01 00000000        sub.z.f	0,%r0,0		; .CC_I
150e4: 7fffffff                 nop
150e8: 27ffe681                 bz	underflow
loop:
150ec: 40000100                 asl.f	%r0,%r0
150f0: 48208200                 rlc	%r1,%r1
150f4: 57e0fd00 00100000        sub.f	0,%r1,0x10_0000		; DHIDDEN_BIT
150fc: 50c37e01                 sub	%r6,%r6,1
15100: 27fffd0b                 blt	loop
15104: 57e37a00                 sub.f	0,%r6,0
15108: 7fffffff                 nop
1510c: 27ffbf8c                 ble	denormal
15110: 27ffac00                 b	untrans
nan_or_inf_1:
15114: 57e0fd00 00100000        sub.f	0,%r1,0x10_0000		; DHIDDEN_BIT
1511c: 57e07d01 00000000        sub.z.f	0,%r0,0		; .CC_I
15124: 18220600                 ror	%r1,%r4
15128: 50000000                 sub	%r0,%r0,%r0
1512c: 20000181                 bz	0x1_513c = return_NAN+12
return_NAN:
15130: 6820fc00 7ff80000        or	%r1,%r1,0x7ff8_0000		; 0x7ff8_0000 = .regmask_lo+0x63f7fffd
15138: 380f8100                 j.f	[%blink]
1513c: 57e3fd00 000007ff        sub.f	0,%r7,0x7ff		; DEXP_MAX
15144: 7fffffff                 nop
15148: 20000502                 bnz	return_INF
1514c: 57e47d00 00100000        sub.f	0,%r8,0x10_0000		; DHIDDEN_BIT
15154: 57e17d01 00000000        sub.z.f	0,%r2,0		; .CC_I
1515c: 7fffffff                 nop
15160: 27fff9c2                 bnz.jd	return_NAN
15164: 18228600                 ror	%r1,%r5
15168: 57e20b00                 sub.f	0,%r4,%r5
1516c: 7fffffff                 nop
15170: 27fff782                 bnz	return_NAN
return_INF:
15174: 6820fc00 7ff00000        or	%r1,%r1,0x7ff0_0000		; 0x7ff0_0000 = .regmask_lo+0x63effffd
1517c: 601ffe00                 mov	%r0,0
15180: 380f8100                 j.f	[%blink]
nan_or_inf_2:
15184: 60218600                 mov	%r1,%r3
15188: 60010400                 mov	%r0,%r2
1518c: 380f8100                 j.f	[%blink]
_mwdrdiv_:
15190: 61800000                 mov	%r12,%r0
15194: 60010400                 mov	%r0,%r2
15198: 60461800                 mov	%r2,%r12
1519c: 61808200                 mov	%r12,%r1
151a0: 60218600                 mov	%r1,%r3
151a4: 60661800                 mov	%r3,%r12
full_entry:
151a8: 40a18700                 asl.f	%r5,%r3
151ac: 489ffe00                 rlc	%r4,0
151b0: 57e17d01 00000000        sub.z.f	0,%r2,0		; .CC_I
151b8: 7fffffff                 nop
151bc: 20007521                 bz.d	divide_by_zero
151c0: 41208300                 asl.f	%r9,%r1
151c4: 78827c05 00000001        xor.c	%r4,%r4,1		; 0x1 = .regmask_lo+1
151cc: 57e07d01 00000000        sub.z.f	0,%r0,0		; .CC_I
151d4: 7fffffff                 nop
151d8: 20007981                 bz	dividend_zero
151dc: 40c49300                 asl.f	%r6,%r9
151e0: 48c30d00                 rlc.f	%r6,%r6
151e4: 48c30d00                 rlc.f	%r6,%r6
151e8: 48c30d00                 rlc.f	%r6,%r6
151ec: 48c30d00                 rlc.f	%r6,%r6
151f0: 48c30d00                 rlc.f	%r6,%r6
151f4: 48c30d00                 rlc.f	%r6,%r6
151f8: 48c30d00                 rlc.f	%r6,%r6
151fc: 48c30d00                 rlc.f	%r6,%r6
15200: 48c30d00                 rlc.f	%r6,%r6
15204: 48c30d00                 rlc.f	%r6,%r6
15208: 48c30c00                 rlc	%r6,%r6
1520c: 60c37d00 000007ff        and.f	%r6,%r6,0x7ff		; DEXP_MAX
15214: 7020fc00 fff00000        bic	%r1,%r1,0xfff0_0000		; 0xfff0_0000 = .regmask_lo+0x7ec0001
1521c: 6820fc02 00100000        or.nz	%r1,%r1,0x10_0000		; DHIDDEN_BIT
15224: 20000622                 bnz.d	0x1_5258 = _mwddiv_+0xb0
15228: 60000000                 mov	%r0,%r0
1522c: 615f7c00 00100000        mov	%r10,0x10_0000		; DHIDDEN_BIT
15234: 40000100                 asl.f	%r0,%r0
15238: 48208200                 rlc	%r1,%r1
1523c: 40c37e01                 add	%r6,%r6,1
15240: 67e09500                 and.f	0,%r1,%r10
15244: 50c37e01                 sub	%r6,%r6,1
15248: 20000182                 bnz	0x1_5258 = _mwddiv_+0xb0
1524c: 40000100                 asl.f	%r0,%r0
15250: 27fffda0                 b.d	0x1_5240 = _mwddiv_+0x98
15254: 48208200                 rlc	%r1,%r1
15258: 40e28b00                 asl.f	%r7,%r5
1525c: 48e38f00                 rlc.f	%r7,%r7
15260: 48e38f00                 rlc.f	%r7,%r7
15264: 48e38f00                 rlc.f	%r7,%r7
15268: 48e38f00                 rlc.f	%r7,%r7
1526c: 48e38f00                 rlc.f	%r7,%r7
15270: 48e38f00                 rlc.f	%r7,%r7
15274: 48e38f00                 rlc.f	%r7,%r7
15278: 48e38f00                 rlc.f	%r7,%r7
1527c: 48e38f00                 rlc.f	%r7,%r7
15280: 48e38f00                 rlc.f	%r7,%r7
15284: 48e38e00                 rlc	%r7,%r7
15288: 60e3fd00 000007ff        and.f	%r7,%r7,0x7ff		; DEXP_MAX
15290: 7101fc00 fff00000        bic	%r8,%r3,0xfff0_0000		; 0xfff0_0000 = .regmask_lo+0x7ec0001
15298: 69047c02 00100000        or.nz	%r8,%r8,0x10_0000		; DHIDDEN_BIT
152a0: 20000622                 bnz.d	0x1_52d4 = _mwddiv_+0x12c
152a4: 60410400                 mov	%r2,%r2
152a8: 615f7c00 00100000        mov	%r10,0x10_0000		; DHIDDEN_BIT
152b0: 40410500                 asl.f	%r2,%r2
152b4: 49041000                 rlc	%r8,%r8
152b8: 40e3fe01                 add	%r7,%r7,1
152bc: 67e41500                 and.f	0,%r8,%r10
152c0: 50e3fe01                 sub	%r7,%r7,1
152c4: 20000182                 bnz	0x1_52d4 = _mwddiv_+0x12c
152c8: 40410500                 asl.f	%r2,%r2
152cc: 27fffda0                 b.d	0x1_52bc = _mwddiv_+0x114
152d0: 49041000                 rlc	%r8,%r8
152d4: 57e37d00 000007ff        sub.f	0,%r6,0x7ff		; DEXP_MAX
152dc: 7fffffff                 nop
152e0: 20006001                 bz	nan_or_inf_1
152e4: 57e3fd00 000007ff        sub.f	0,%r7,0x7ff		; DEXP_MAX
152ec: 7fffffff                 nop
152f0: 200066a1                 bz.d	nan_or_inf_2
152f4: 50c30e00                 sub	%r6,%r6,%r7
152f8: 40c37c00 000003ff        add	%r6,%r6,0x3ff		; DEXP_BIAS
15300: 679ffe37                 mov	%lp_count,55
15304: 617ffe00                 mov	%r11,0
15308: 615ffe00                 mov	%r10,0
1530c: 30000580                 lp	0x1_533c = _mwddiv_+0x194
15310: 41451500                 asl.f	%r10,%r10
15314: 49659600                 rlc	%r11,%r11
15318: 57e09100                 sub.f	0,%r1,%r8
1531c: 57e00501                 sub.z.f	0,%r0,%r2
15320: 69457c06 00000001        or.nc	%r10,%r10,1		; 0x1 = .regmask_lo+1
15328: 20000105                 bc	0x1_5334 = _mwddiv_+0x18c
1532c: 50000500                 sub.f	%r0,%r0,%r2
15330: 58209000                 sbc	%r1,%r1,%r8
15334: 40000100                 asl.f	%r0,%r0
15338: 48208200                 rlc	%r1,%r1
1533c: 69808000                 or	%r12,%r1,%r0
15340: 60259600                 mov	%r1,%r11
15344: 60051400                 mov	%r0,%r10
15348: 67e0fd00 00400000        and.f	0,%r1,0x40_0000		; 0x40_0000 = DOVF_BIT+0x200000
15350: 50c37c01 00000001        sub.z	%r6,%r6,1		; 0x1 = .regmask_lo+1
15358: 20000102                 bnz	0x1_5364 = _mwddiv_+0x1bc
1535c: 40000100                 asl.f	%r0,%r0
15360: 48208200                 rlc	%r1,%r1
15364: 57e37a00                 sub.f	0,%r6,0
15368: 7fffffff                 nop
1536c: 2000150c                 ble	denormal_
15370: 67e07a02                 and.f	0,%r0,2
15374: 7fffffff                 nop
15378: 20000681                 bz	noround
1537c: 61407e05                 and	%r10,%r0,5
15380: 6fe61500                 or.f	0,%r12,%r10
15384: 7fffffff                 nop
15388: 20000481                 bz	noround
roundup:
1538c: 40007a02                 add.f	%r0,%r0,2
15390: 4820fe00                 adc	%r1,%r1,0
15394: 67e0fd00 00800000        and.f	0,%r1,0x80_0000		; FHIDDEN_BIT
1539c: 40c37c02 00000001        add.nz	%r6,%r6,1		; 0x1 = .regmask_lo+1
153a4: 20000101                 bz	noround
153a8: 18208500                 lsr.f	%r1,%r1
153ac: 18000800                 rrc	%r0,%r0
noround:
153b0: 18208500                 lsr.f	%r1,%r1
153b4: 18000800                 rrc	%r0,%r0
153b8: 18208500                 lsr.f	%r1,%r1
153bc: 18000800                 rrc	%r0,%r0
153c0: 57e37d00 000007ff        sub.f	0,%r6,0x7ff		; DEXP_MAX
153c8: 7fffffff                 nop
153cc: 20002e0a                 bge	exp_ovf
untrans:
153d0: 7020fc00 00100000        bic	%r1,%r1,0x10_0000		; DHIDDEN_BIT
153d8: 18430600                 ror	%r2,%r6
153dc: 18410600                 ror	%r2,%r2
153e0: 18410600                 ror	%r2,%r2
153e4: 18410600                 ror	%r2,%r2
153e8: 18410600                 ror	%r2,%r2
153ec: 18410600                 ror	%r2,%r2
153f0: 18410600                 ror	%r2,%r2
153f4: 18410600                 ror	%r2,%r2
153f8: 18410600                 ror	%r2,%r2
153fc: 18410600                 ror	%r2,%r2
15400: 18410600                 ror	%r2,%r2
15404: 18410400                 lsr	%r2,%r2
15408: 68210200                 or	%r1,%r2,%r1
1540c: 18420600                 ror	%r2,%r4
15410: 68208400                 or	%r1,%r1,%r2
15414: 380f8100                 j.f	[%blink]
denormal_:
15418: 18208500                 lsr.f	%r1,%r1
1541c: 18000900                 rrc.f	%r0,%r0
15420: 69867c05 00000001        or.c	%r12,%r12,1		; 0x1 = .regmask_lo+1
15428: 18208500                 lsr.f	%r1,%r1
1542c: 18000900                 rrc.f	%r0,%r0
15430: 69867c05 00000001        or.c	%r12,%r12,1		; 0x1 = .regmask_lo+1
denormal:
15438: 57e37bcb                 sub.f	0,%r6,-53
1543c: 7fffffff                 nop
15440: 2000228b                 blt	underflow
15444: 515f8c00                 sub	%r10,0,%r6
15448: 51457a01                 sub.f	%r10,%r10,1
1544c: 7fffffff                 nop
15450: 2000150b                 blt	shift_left_once
15454: 20001581                 bz	round_denormal
15458: 57e57a20                 sub.f	0,%r10,32
1545c: 7fffffff                 nop
15460: 2000098b                 blt	0x1_54b0 = denormal+0x78
15464: 51457e20                 sub	%r10,%r10,32
15468: 69801900                 or.f	%r12,%r0,%r12
1546c: 617fffff                 mov	%r11,-1
15470: 20000382                 bnz	0x1_5490 = denormal+0x58
15474: 1f850300                 asr.f	%lp_count,%r10
15478: 41659605                 asl.c	%r11,%r11
1547c: 30000102                 lpnz	0x1_5488 = denormal+0x50
15480: 41659600                 asl	%r11,%r11
15484: 41659600                 asl	%r11,%r11
15488: 7965ffff                 xor	%r11,%r11,-1
1548c: 61809600                 and	%r12,%r1,%r11
15490: 1f850300                 asr.f	%lp_count,%r10
15494: 60008200                 mov	%r0,%r1
15498: 18000405                 lsr.c	%r0,%r0
1549c: 30000102                 lpnz	0x1_54a8 = denormal+0x70
154a0: 18000400                 lsr	%r0,%r0
154a4: 18000400                 lsr	%r0,%r0
154a8: 20000b20                 b.d	round_denormal
154ac: 603ffe00                 mov	%r1,0
154b0: 57e67a00                 sub.f	0,%r12,0
154b4: 617fffff                 mov	%r11,-1
154b8: 20000502                 bnz	0x1_54e4 = denormal+0xac
154bc: 57e57a20                 sub.f	0,%r10,32
154c0: 5165960a                 sub.ge	%r11,%r11,%r11
154c4: 2000028a                 bge	0x1_54dc = denormal+0xa4
154c8: 1f850300                 asr.f	%lp_count,%r10
154cc: 41659605                 asl.c	%r11,%r11
154d0: 30000102                 lpnz	0x1_54dc = denormal+0xa4
154d4: 41659600                 asl	%r11,%r11
154d8: 41659600                 asl	%r11,%r11
154dc: 7965ffff                 xor	%r11,%r11,-1
154e0: 61801600                 and	%r12,%r0,%r11
154e4: 67851500                 mov.f	%lp_count,%r10
154e8: 60000000                 mov	%r0,%r0
154ec: 30000102                 lpnz	0x1_54f8 = denormal+0xc0
154f0: 18208500                 lsr.f	%r1,%r1
154f4: 18000800                 rrc	%r0,%r0
154f8: 20000100                 b	round_denormal
shift_left_once:
154fc: 40000100                 asl.f	%r0,%r0
15500: 48208200                 rlc	%r1,%r1
round_denormal:
15504: 67e07a02                 and.f	0,%r0,2
15508: 7fffffff                 nop
1550c: 20000301                 bz	shift_denormal
15510: 61407e05                 and	%r10,%r0,5
15514: 6fe51900                 or.f	0,%r10,%r12
15518: 7fffffff                 nop
1551c: 20000101                 bz	shift_denormal
15520: 40007a02                 add.f	%r0,%r0,2
15524: 4820fe00                 adc	%r1,%r1,0
shift_denormal:
15528: 18208500                 lsr.f	%r1,%r1
1552c: 18000800                 rrc	%r0,%r0
15530: 18208500                 lsr.f	%r1,%r1
15534: 18000800                 rrc	%r0,%r0
15538: 50c30c00                 sub	%r6,%r6,%r6
1553c: 27ffd200                 b	untrans
exp_ovf:
15540: 60df7c00 000007ff        mov	%r6,0x7ff		; DEXP_MAX
15548: 603f7c00 00100000        mov	%r1,0x10_0000		; DHIDDEN_BIT
15550: 27ffcfa0                 b.d	untrans
15554: 601ffe00                 mov	%r0,0
underflow:
15558: 50c30c00                 sub	%r6,%r6,%r6
1555c: 603ffe00                 mov	%r1,0
15560: 27ffcda0                 b.d	untrans
15564: 601ffe00                 mov	%r0,0
divide_by_zero:
15568: 78827c05 00000001        xor.c	%r4,%r4,1		; 0x1 = .regmask_lo+1
15570: 57e07d01 00000000        sub.z.f	0,%r0,0		; .CC_I
15578: 7fffffff                 nop
1557c: 20001081                 bz	return_NAN
15580: 57e4fd00 ffe00000        sub.f	0,%r9,0xffe0_0000		; 0xffe0_0000 = .regmask_lo+0x7dc0001
15588: 603f7c00 7ff00000        mov	%r1,0x7ff0_0000		; 0x7ff0_0000 = .regmask_lo+0x63effffd
15590: 20000e0d                 bhi	return_NAN
15594: 57e27a00                 sub.f	0,%r4,0
15598: 6820fc02 80000000        or.nz	%r1,%r1,0x8000_0000		; .regmask_lo
155a0: 601ffe00                 mov	%r0,0
155a4: 380f8100                 j.f	[%blink]
dividend_zero:
155a8: 57e2fd00 ffe00000        sub.f	0,%r5,0xffe0_0000		; 0xffe0_0000 = .regmask_lo+0x7dc0001
155b0: 7fffffff                 nop
155b4: 2000098d                 bhi	return_NAN
155b8: 603ffe00                 mov	%r1,0
155bc: 20000205                 bc	0x1_55d0 = dividend_zero+0x28
155c0: 57e17d01 00000000        sub.z.f	0,%r2,0		; .CC_I
155c8: 7fffffff                 nop
155cc: 20000682                 bnz	return_NAN
155d0: 57e27a00                 sub.f	0,%r4,0
155d4: 6820fc02 80000000        or.nz	%r1,%r1,0x8000_0000		; .regmask_lo
155dc: 601ffe00                 mov	%r0,0
155e0: 380f8100                 j.f	[%blink]
nan_or_inf_1:
155e4: 57e0fd00 00100000        sub.f	0,%r1,0x10_0000		; DHIDDEN_BIT
155ec: 7fffffff                 nop
155f0: 20000202                 bnz	return_NAN
155f4: 57e3fd00 000007ff        sub.f	0,%r7,0x7ff		; DEXP_MAX
155fc: 7fffffff                 nop
15600: 20000202                 bnz	return_INF
return_NAN:
15604: 603f7c00 7ff80000        mov	%r1,0x7ff8_0000		; 0x7ff8_0000 = .regmask_lo+0x63f7fffd
1560c: 601ffe00                 mov	%r0,0
15610: 380f8100                 j.f	[%blink]
return_INF:
15614: 18220600                 ror	%r1,%r4
15618: 6820fc00 7ff00000        or	%r1,%r1,0x7ff0_0000		; 0x7ff0_0000 = .regmask_lo+0x63effffd
15620: 601ffe00                 mov	%r0,0
15624: 380f8100                 j.f	[%blink]
nan_or_inf_2:
15628: 57e47d00 00100000        sub.f	0,%r8,0x10_0000		; DHIDDEN_BIT
15630: 57e17d01 00000000        sub.z.f	0,%r2,0		; .CC_I
15638: 601f7c01 00000000        mov.z	%r0,0		; .CC_I
15640: 380f8141                 jz.f.jd	[%blink]
15644: 603ffe00                 mov	%r1,0
15648: 27fff700                 b	return_NAN
__deq0:
1564c: 40208200                 asl	%r1,%r1
15650: 40000200                 add	%r0,%r0,%r1
15654: 380f8020                 j.d	[%blink]
15658: 57e07a00                 sub.f	0,%r0,0
__deq:
1565c: 57e08700                 sub.f	0,%r1,%r3
15660: 20000102                 bnz	0x1_566c = __deq+16
15664: 57e00500                 sub.f	0,%r0,%r2
15668: 20000301                 bz	dcmp_nan
1566c: 40618600                 asl	%r3,%r3
15670: 40208200                 asl	%r1,%r1
15674: 68000200                 or	%r0,%r0,%r1
15678: 68000400                 or	%r0,%r0,%r2
1567c: 68000700                 or.f	%r0,%r0,%r3
15680: 20000482                 bnz	dcmp_ret
dcmp_nan:
15684: 601f7c00 ffe00000        mov	%r0,0xffe0_0000		; 0xffe0_0000 = .regmask_lo+0x7dc0001
1568c: 40618600                 asl	%r3,%r3
15690: 57e00700                 sub.f	0,%r0,%r3
15694: 20000205                 bc	dcmp_ret
15698: 2000010d                 bhi	dcmp_ret0
1569c: 60010400                 mov	%r0,%r2
156a0: 20000080                 b	dcmp_ret
dcmp_ret0:
156a4: 601ffe00                 mov	%r0,0
dcmp_ret:
156a8: 380f8020                 j.d	[%blink]
156ac: 57e07a00                 sub.f	0,%r0,0
__dcmpr:
156b0: 110e01fc                 st.a	%r0,[%sp,-4]
156b4: 110e03fc                 st.a	%r1,[%sp,-4]
156b8: 60010400                 mov	%r0,%r2
156bc: 60218600                 mov	%r1,%r3
156c0: 086e0000                 ld	%r3,[%sp]
156c4: 438e7e04                 add	%sp,%sp,4
156c8: 084e0000                 ld	%r2,[%sp]
156cc: 438e7e04                 add	%sp,%sp,4
__dcmp:
156d0: 61808200                 mov	%r12,%r1
156d4: 7fe08700                 xor.f	0,%r1,%r3
156d8: 20000484                 bn	test_0
156dc: 20000102                 bnz	0x1_56e8 = __dcmp+0x18
156e0: 57e00500                 sub.f	0,%r0,%r2
156e4: 27fff381                 bz	dcmp_nan
156e8: 57e00500                 sub.f	0,%r0,%r2
156ec: 58208600                 sbc	%r1,%r1,%r3
156f0: 78008700                 xor.f	%r0,%r1,%r3
156f4: 601f7c01 00000001        mov.z	%r0,1		; 0x1 = .regmask_lo+1
156fc: 27fff500                 b	dcmp_ret
test_0:
15700: 40618600                 asl	%r3,%r3
15704: 40208200                 asl	%r1,%r1
15708: 68000200                 or	%r0,%r0,%r1
1570c: 68000400                 or	%r0,%r0,%r2
15710: 68000700                 or.f	%r0,%r0,%r3
15714: 27fff201                 bz	dcmp_ret
15718: 68067e01                 or	%r0,%r12,1
1571c: 27fff100                 b	dcmp_ret
__epilog_restore0_add4:
15720: 20001520                 b.d	__epilog_load0_add4
15724: 619ffe10                 mov	%r12,16
__epilog_restore13_add4:
15728: 200013a0                 b.d	__epilog_load13_add4
1572c: 619ffe14                 mov	%r12,20
__epilog_restore14_add4:
15730: 20001220                 b.d	__epilog_load14_add4
15734: 619ffe18                 mov	%r12,24
__epilog_restore15_add4:
15738: 200010a0                 b.d	__epilog_load15_add4
1573c: 619ffe1c                 mov	%r12,28
__epilog_restore16_add4:
15740: 20000f20                 b.d	__epilog_load16_add4
15744: 619ffe20                 mov	%r12,32
__epilog_restore17_add4:
15748: 20000da0                 b.d	__epilog_load17_add4
1574c: 619ffe24                 mov	%r12,36
__epilog_restore18_add4:
15750: 20000c20                 b.d	__epilog_load18_add4
15754: 619ffe28                 mov	%r12,40
__epilog_restore19_add4:
15758: 20000aa0                 b.d	__epilog_load19_add4
1575c: 619ffe2c                 mov	%r12,44
__epilog_restore20_add4:
15760: 20000920                 b.d	__epilog_load20_add4
15764: 619ffe30                 mov	%r12,48
__epilog_restore21_add4:
15768: 200007a0                 b.d	__epilog_load21_add4
1576c: 619ffe34                 mov	%r12,52
__epilog_restore22_add4:
15770: 20000620                 b.d	__epilog_load22_add4
15774: 619ffe38                 mov	%r12,56
__epilog_restore23_add4:
15778: 200004a0                 b.d	__epilog_load23_add4
1577c: 619ffe3c                 mov	%r12,60
__epilog_restore24_add4:
15780: 20000320                 b.d	__epilog_load24_add4
15784: 619ffe40                 mov	%r12,64
__epilog_restore25_add4:
15788: 200001a0                 b.d	__epilog_load25_add4
1578c: 619ffe44                 mov	%r12,68
__epilog_restore26_add4:
15790: 619ffe48                 mov	%r12,72
__epilog_load26_add4:
15794: 0b4e0044                 ld	%gp,[%sp,68]
__epilog_load25_add4:
15798: 0b2e0040                 ld	%r25,[%sp,64]
__epilog_load24_add4:
1579c: 0b0e003c                 ld	%r24,[%sp,60]
__epilog_load23_add4:
157a0: 0aee0038                 ld	%r23,[%sp,56]
__epilog_load22_add4:
157a4: 0ace0034                 ld	%r22,[%sp,52]
__epilog_load21_add4:
157a8: 0aae0030                 ld	%r21,[%sp,48]
__epilog_load20_add4:
157ac: 0a8e002c                 ld	%r20,[%sp,44]
__epilog_load19_add4:
157b0: 0a6e0028                 ld	%r19,[%sp,40]
__epilog_load18_add4:
157b4: 0a4e0024                 ld	%r18,[%sp,36]
__epilog_load17_add4:
157b8: 0a2e0020                 ld	%r17,[%sp,32]
__epilog_load16_add4:
157bc: 0a0e001c                 ld	%r16,[%sp,28]
__epilog_load15_add4:
157c0: 09ee0018                 ld	%r15,[%sp,24]
__epilog_load14_add4:
157c4: 09ce0014                 ld	%r14,[%sp,20]
__epilog_load13_add4:
157c8: 09ae0010                 ld	%r13,[%sp,16]
__epilog_load0_add4:
157cc: 0bed8004                 ld	%blink,[%fp,4]
157d0: 036e1808                 ld.a	%fp,[%sp,%r12]
157d4: 380f8020                 j.d	[%blink]
157d8: 438e7e04                 add	%sp,%sp,4
_sbrk:
157dc: 609f7c00 000190fc        mov	%r4,0x1_90fc		; 0x1_90fc = buffer.L68+0x38
157e4: 08220504                 ldb	%r1,[%r4,-252]
157e8: 67e08300                 mov.f	0,%r1
157ec: 20000b82                 bnz	0x1_584c = _sbrk+0x70
157f0: 603f7c00 0001d8d8        mov	%r1,0x1_d8d8		; _estack
157f8: 67e08300                 mov.f	0,%r1
157fc: 20000201                 bz	0x1_5810 = _sbrk+0x34
15800: 10027d08 0001f8d8        st	0x1_f8d8,[%r4,-248]		; 0x1_f7e0 = _fheap+0x1f08
15808: 20000720                 b.d	0x1_5844 = _sbrk+0x68
1580c: 1002030c                 st	%r1,[%r4,-244]
15810: 603f7c00 0001f8e7        mov	%r1,0x1_f8e7		; 0x1_f8e7 = _end+15
15818: 6020fff0                 and	%r1,%r1,-16
1581c: 1002030c                 st	%r1,[%r4,-244]
15820: 08420100                 ld	%r2,[%r4,-256]
15824: 4060fc00 00004000        add	%r3,%r1,0x4000		; _STACKSIZE
1582c: 57e18500                 sub.f	0,%r3,%r2
15830: 4020fc0d 00080000        add.hi	%r1,%r1,0x8_0000		; 0x8_0000 = _end+0x60728
15838: 2000014d                 bhi.jd	0x1_5844 = _sbrk+0x68
1583c: 10020308                 st	%r1,[%r4,-248]
15840: 10020508                 st	%r2,[%r4,-248]
15844: 603ffe01                 mov	%r1,1
15848: 10420304                 stb	%r1,[%r4,-252]
1584c: 0822010c                 ld	%r1,[%r4,-244]
15850: 40008000                 add	%r0,%r1,%r0
15854: 57e08100                 sub.f	0,%r1,%r0
15858: 2000020d                 bhi	0x1_586c = _sbrk+0x90
1585c: 08420108                 ld	%r2,[%r4,-248]
15860: 57e10100                 sub.f	0,%r2,%r0
15864: 20000146                 bnc.jd	0x1_5870 = _sbrk+0x94
15868: 1002010c                 st	%r0,[%r4,-244]
1586c: 50208200                 sub	%r1,%r1,%r1
15870: 380f8020                 j.d	[%blink]
15874: 60008200                 mov	%r0,%r1
_brk:
15878: 101f0000 00019008        st	%r0,[0x1_9008]		; __mwheap_cur
15880: 380f8020                 j.d	[%blink]
15884: 50000000                 sub	%r0,%r0,%r0
getenv_common:
15888: 100e3e04                 st	%blink,[%sp,4]
1588c: 2ffc9700                 bl	__prolog_save17
15890: 2ff26fa0                 bl.d	strlen
15894: 62200000                 mov	%r17,%r0
15898: 61e00000                 mov	%r15,%r0
1589c: 52082000                 sub	%r16,%r16,%r16
158a0: 601ffe20                 mov	%r0,32
158a4: 61a00000                 mov	%r13,%r0
158a8: 40282000                 asl	%r1,%r16
158ac: 081f0000 00019090        ld	%r0,[0x1_9090]		; environ
158b4: 40208200                 asl	%r1,%r1
158b8: 01c00200                 ld	%r14,[%r0,%r1]
158bc: 67e71d00                 mov.f	0,%r14
158c0: 20000581                 bz	0x1_58f0 = getenv_common+0x68
158c4: 6008a200                 mov	%r0,%r17
158c8: 60271c00                 mov	%r1,%r14
158cc: 28001b20                 bl.d	strncmp
158d0: 60479e00                 mov	%r2,%r15
158d4: 67e00100                 mov.f	0,%r0
158d8: 20000282                 bnz	0x1_58f0 = getenv_common+0x68
158dc: 00071e02                 ldb	%r0,[%r14,%r15]
158e0: 57e07a3d                 sub.f	0,%r0,61
158e4: 20000401                 bz	0x1_5908 = getenv_common+0x80
158e8: 67e00100                 mov.f	0,%r0
158ec: 20000481                 bz	0x1_5914 = getenv_common+0x8c
158f0: 5006fe01                 sub	%r0,%r13,1
158f4: 57e07a00                 sub.f	0,%r0,0
158f8: 27fff52d                 bhi.d	0x1_58a4 = getenv_common+0x1c
158fc: 42087e01                 add	%r16,%r16,1
15900: 27fcae20                 b.d	__epilog_restore17
15904: 50000000                 sub	%r0,%r0,%r0
15908: 41c71e00                 add	%r14,%r14,%r15
1590c: 27fcaca0                 b.d	__epilog_restore17
15910: 40077e01                 add	%r0,%r14,1
15914: 27fcaba0                 b.d	__epilog_restore17
15918: 40071e00                 add	%r0,%r14,%r15
_mwgetenv2:
1591c: 603f7c00 00019694        mov	%r1,0x1_9694		; buf.L12
15924: 27ffec00                 b	getenv_common
_getenv:
15928: 603f7c00 00019714        mov	%r1,0x1_9714		; buf.L10
15930: 27ffea80                 b	getenv_common
_div0:
15934: 67e00100                 mov.f	0,%r0
15938: 601ffffe                 mov	%r0,-2
1593c: 601f7c04 00000001        mov.n	%r0,1		; 0x1 = .regmask_lo+1
15944: 380f8020                 j.d	[%blink]
15948: 18000600                 ror	%r0,%r0
_udiv0:
1594c: 380f8020                 j.d	[%blink]
15950: 601fffff                 mov	%r0,-1
_mwget_tls:
15954: 100e3e04                 st	%blink,[%sp,4]
15958: 2ffc7100                 bl	__prolog_save0
1595c: 603f7c00 0001910c        mov	%r1,0x1_910c		; 0x1_910c = buffer.L68+0x48
15964: 08008100                 ld	%r0,[%r1,-256]
15968: 67e00100                 mov.f	0,%r0
1596c: 20000181                 bz	0x1_597c = _mwget_tls+0x28
15970: 50000000                 sub	%r0,%r0,%r0
15974: 2ffc3c20                 bl.d	__mw_run_tls_ctor
15978: 10008100                 st	%r0,[%r1,-256]
1597c: 601f7c00 000190a0        mov	%r0,0x1_90a0		; _ftls
15984: 20000c00                 b	__epilog_restore0f
unlink:
15988: 100e3e04                 st	%blink,[%sp,4]
1598c: 2ffc6d00                 bl	__prolog_save13
15990: 2ffce720                 bl.d	___errno
15994: 61bffe02                 mov	%r13,2
15998: 10001a00                 st	%r13,[%r0]
1599c: 27fc96a0                 b.d	__epilog_restore13
159a0: 601fffff                 mov	%r0,-1
__envstart:
159a4: 380f8000                 j	[%blink]
strncmp:
159a8: 100e3e04                 st	%blink,[%sp,4]
159ac: 2ffc6e00                 bl	__prolog_save15
159b0: 61e00000                 mov	%r15,%r0
159b4: 61c08200                 mov	%r14,%r1
159b8: 61a10400                 mov	%r13,%r2
159bc: 2ff58020                 bl.d	memchr
159c0: 50208200                 sub	%r1,%r1,%r1
159c4: 67e00100                 mov.f	0,%r0
159c8: 50001e02                 sub.nz	%r0,%r0,%r15
159cc: 41a07c02 00000001        add.nz	%r13,%r0,1		; 0x1 = .regmask_lo+1
159d4: 60079e00                 mov	%r0,%r15
159d8: 60271c00                 mov	%r1,%r14
159dc: 28001820                 bl.d	memcmp
159e0: 60469a00                 mov	%r2,%r13
159e4: 27fc8f80                 b	__epilog_restore15
__epilog_restore0f:
159e8: 20001520                 b.d	__epilog_load0f
159ec: 619ffe10                 mov	%r12,16
__epilog_restore13f:
159f0: 200013a0                 b.d	__epilog_load13f
159f4: 619ffe14                 mov	%r12,20
__epilog_restore14f:
159f8: 20001220                 b.d	__epilog_load14f
159fc: 619ffe18                 mov	%r12,24
__epilog_restore15f:
15a00: 200010a0                 b.d	__epilog_load15f
15a04: 619ffe1c                 mov	%r12,28
__epilog_restore16f:
15a08: 20000f20                 b.d	__epilog_load16f
15a0c: 619ffe20                 mov	%r12,32
__epilog_restore17f:
15a10: 20000da0                 b.d	__epilog_load17f
15a14: 619ffe24                 mov	%r12,36
__epilog_restore18f:
15a18: 20000c20                 b.d	__epilog_load18f
15a1c: 619ffe28                 mov	%r12,40
__epilog_restore19f:
15a20: 20000aa0                 b.d	__epilog_load19f
15a24: 619ffe2c                 mov	%r12,44
__epilog_restore20f:
15a28: 20000920                 b.d	__epilog_load20f
15a2c: 619ffe30                 mov	%r12,48
__epilog_restore21f:
15a30: 200007a0                 b.d	__epilog_load21f
15a34: 619ffe34                 mov	%r12,52
__epilog_restore22f:
15a38: 20000620                 b.d	__epilog_load22f
15a3c: 619ffe38                 mov	%r12,56
__epilog_restore23f:
15a40: 200004a0                 b.d	__epilog_load23f
15a44: 619ffe3c                 mov	%r12,60
__epilog_restore24f:
15a48: 20000320                 b.d	__epilog_load24f
15a4c: 619ffe40                 mov	%r12,64
__epilog_restore25f:
15a50: 200001a0                 b.d	__epilog_load25f
15a54: 619ffe44                 mov	%r12,68
__epilog_restore26f:
15a58: 619ffe48                 mov	%r12,72
__epilog_load26f:
15a5c: 0b4e0044                 ld	%gp,[%sp,68]
__epilog_load25f:
15a60: 0b2e0040                 ld	%r25,[%sp,64]
__epilog_load24f:
15a64: 0b0e003c                 ld	%r24,[%sp,60]
__epilog_load23f:
15a68: 0aee0038                 ld	%r23,[%sp,56]
__epilog_load22f:
15a6c: 0ace0034                 ld	%r22,[%sp,52]
__epilog_load21f:
15a70: 0aae0030                 ld	%r21,[%sp,48]
__epilog_load20f:
15a74: 0a8e002c                 ld	%r20,[%sp,44]
__epilog_load19f:
15a78: 0a6e0028                 ld	%r19,[%sp,40]
__epilog_load18f:
15a7c: 0a4e0024                 ld	%r18,[%sp,36]
__epilog_load17f:
15a80: 0a2e0020                 ld	%r17,[%sp,32]
__epilog_load16f:
15a84: 0a0e001c                 ld	%r16,[%sp,28]
__epilog_load15f:
15a88: 09ee0018                 ld	%r15,[%sp,24]
__epilog_load14f:
15a8c: 09ce0014                 ld	%r14,[%sp,20]
__epilog_load13f:
15a90: 09ae0010                 ld	%r13,[%sp,16]
__epilog_load0f:
15a94: 0bed8004                 ld	%blink,[%fp,4]
15a98: 380f8120                 j.f.d	[%blink]
15a9c: 036e1808                 ld.a	%fp,[%sp,%r12]
memcmp:
15aa0: 20000300                 b	0x1_5abc = memcmp+0x1c
15aa4: 08608400                 ldb	%r3,[%r1]
15aa8: 08800400                 ldb	%r4,[%r0]
15aac: 4020fe01                 add	%r1,%r1,1
15ab0: 57e20700                 sub.f	0,%r4,%r3
15ab4: 20000322                 bnz.d	0x1_5ad0 = memcmp+0x30
15ab8: 40007e01                 add	%r0,%r0,1
15abc: 50417e01                 sub	%r2,%r2,1
15ac0: 57e17bff                 sub.f	0,%r2,-1
15ac4: 27fffb82                 bnz	0x1_5aa4 = memcmp+4
15ac8: 380f8020                 j.d	[%blink]
15acc: 50000000                 sub	%r0,%r0,%r0
15ad0: 082085ff                 ldb	%r1,[%r1,-1]
15ad4: 080005ff                 ldb	%r0,[%r0,-1]
15ad8: 57e00300                 sub.f	0,%r0,%r1
15adc: 601ffe01                 mov	%r0,1
15ae0: 5000000b                 sub.lt	%r0,%r0,%r0
15ae4: 40000000                 asl	%r0,%r0
15ae8: 380f8020                 j.d	[%blink]
15aec: 50007e01                 sub	%r0,%r0,1
FlasherDelay:
15af0: afe08000                 mulu64	%r1,%r0
15af4: 183c8400                 lsr	%r1,%mlo
15af8: 50000000                 sub	%r0,%r0,%r0
15afc: 57e0fa00                 sub.f	0,%r1,0
15b00: 2000018e                 bls	0x1_5b10 = FlasherDelay+0x20
15b04: 40007e01                 add	%r0,%r0,1
15b08: 57e08100                 sub.f	0,%r1,%r0
15b0c: 27fffe8d                 bhi	0x1_5b04 = FlasherDelay+0x14
15b10: 380f8000                 j	[%blink]
FlasherInit:
15b14: 100e3e04                 st	%blink,[%sp,4]
15b18: 100e3600                 st	%fp,[%sp]
15b1c: 636e3800                 mov	%fp,%sp
15b20: 538e7e40                 sub	%sp,%sp,64
15b24: 100e1a10                 st	%r13,[%sp,16]
15b28: 100e1c14                 st	%r14,[%sp,20]
15b2c: 601f7c00 0001c200        mov	%r0,0x1_c200		; 0x1_c200 = _ebss+0x2928
15b34: 100d81ec                 st	%r0,[%fp,-20]
15b38: 601ffe07                 mov	%r0,7
15b3c: 100d81f0                 st	%r0,[%fp,-16]
15b40: 51a69a00                 sub	%r13,%r13,%r13
15b44: 100d9bf4                 st	%r13,[%fp,-12]
15b48: 100d9bf8                 st	%r13,[%fp,-8]
15b4c: 100d9bfc                 st	%r13,[%fp,-4]
15b50: 400dffec                 add	%r0,%fp,-20
15b54: 100d81dc                 st	%r0,[%fp,-36]
15b58: 104d9be4                 stb	%r13,[%fp,-28]
15b5c: 100d9be8                 st	%r13,[%fp,-24]
15b60: 61dffe01                 mov	%r14,1
15b64: 104d9dd8                 stb	%r14,[%fp,-40]
15b68: 2feb0400                 bl	FH_ARC_init
15b6c: 2feba980                 bl	FH_UART_init
15b70: 2fec1780                 bl	FH_GPIO_init
15b74: 2fecf900                 bl	FH_UPI_init
15b78: 60069a00                 mov	%r0,%r13
15b7c: 60271c00                 mov	%r1,%r14
15b80: 2fec3b80                 bl	FH_UPI_set_Mode
15b84: 60069a00                 mov	%r0,%r13
15b88: 603ffe04                 mov	%r1,4
15b8c: 2fec3f00                 bl	FH_UPI_set_TALS
15b90: 60069a00                 mov	%r0,%r13
15b94: 603ffe04                 mov	%r1,4
15b98: 2fec4280                 bl	FH_UPI_set_TALH
15b9c: 60069a00                 mov	%r0,%r13
15ba0: 603ffe04                 mov	%r1,4
15ba4: 2fec4600                 bl	FH_UPI_set_TRS
15ba8: 60069a00                 mov	%r0,%r13
15bac: 603ffe13                 mov	%r1,19
15bb0: 2fec4980                 bl	FH_UPI_set_TRDS
15bb4: 60069a00                 mov	%r0,%r13
15bb8: 603ffe02                 mov	%r1,2
15bbc: 2fec4d00                 bl	FH_UPI_set_TRDH
15bc0: 60069a00                 mov	%r0,%r13
15bc4: 603ffe05                 mov	%r1,5
15bc8: 2fec5080                 bl	FH_UPI_set_TRR
15bcc: 60069a00                 mov	%r0,%r13
15bd0: 603ffe05                 mov	%r1,5
15bd4: 2fec5400                 bl	FH_UPI_set_TWS
15bd8: 60069a00                 mov	%r0,%r13
15bdc: 603ffe09                 mov	%r1,9
15be0: 2fec5780                 bl	FH_UPI_set_TWP
15be4: 60069a00                 mov	%r0,%r13
15be8: 603ffe02                 mov	%r1,2
15bec: 2fec5b00                 bl	FH_UPI_set_TWR
15bf0: 60071c00                 mov	%r0,%r14
15bf4: 2fec8100                 bl	FH_UPI_set_AddrExt_EXT_ADDR_0
15bf8: 60069a00                 mov	%r0,%r13
15bfc: 2fec9b80                 bl	FH_UPI_set_AddrExt_LIN_MODE_0
15c00: 60069a00                 mov	%r0,%r13
15c04: 2fe6a100                 bl	FD_GPIO_Init
15c08: 400dffdc                 add	%r0,%fp,-36
15c0c: 2fe86380                 bl	FD_UART_Init
15c10: 400dffd8                 add	%r0,%fp,-40
15c14: 2fe4e900                 bl	FM_DEBUG_Init
15c18: 09ae0010                 ld	%r13,[%sp,16]
15c1c: 09ce0014                 ld	%r14,[%sp,20]
15c20: 0bed8004                 ld	%blink,[%fp,4]
15c24: 380f8020                 j.d	[%blink]
15c28: 0b6e1040                 ld.a	%fp,[%sp,64]
FlasherPrintf:
15c2c: 538e7e20                 sub	%sp,%sp,32
15c30: 100e0010                 st	%r0,[%sp,16]
15c34: 100e0214                 st	%r1,[%sp,20]
15c38: 100e0418                 st	%r2,[%sp,24]
15c3c: 100e061c                 st	%r3,[%sp,28]
15c40: 100e0820                 st	%r4,[%sp,32]
15c44: 100e0a24                 st	%r5,[%sp,36]
15c48: 100e0c28                 st	%r6,[%sp,40]
15c4c: 100e0e2c                 st	%r7,[%sp,44]
15c50: 100e3e04                 st	%blink,[%sp,4]
15c54: 100e3600                 st	%fp,[%sp]
15c58: 636e3800                 mov	%fp,%sp
15c5c: 538e7e14                 sub	%sp,%sp,20
15c60: 100e1a10                 st	%r13,[%sp,16]
15c64: 60200000                 mov	%r1,%r0
15c68: 100d8210                 st	%r1,[%fp,16]
15c6c: 404dfe14                 add	%r2,%fp,20
15c70: 601f7c00 000191a4        mov	%r0,0x1_91a4		; 0x1_91a4 = handles+0x60
15c78: 41a07f20                 add	%r13,%r0,-224
15c7c: 60069a00                 mov	%r0,%r13
15c80: 2ff00b00                 bl	vsprintf
15c84: 60069a00                 mov	%r0,%r13
15c88: 2fe60680                 bl	FM_PrStr
15c8c: 09ae0010                 ld	%r13,[%sp,16]
15c90: 0bed8004                 ld	%blink,[%fp,4]
15c94: 0b6e1014                 ld.a	%fp,[%sp,20]
15c98: 380f8020                 j.d	[%blink]
15c9c: 438e7e20                 add	%sp,%sp,32
FlasherProgram16:
15ca0: 100e3e04                 st	%blink,[%sp,4]
15ca4: 100e3600                 st	%fp,[%sp]
15ca8: 636e3800                 mov	%fp,%sp
15cac: 538e7e50                 sub	%sp,%sp,80
15cb0: 100e1a10                 st	%r13,[%sp,16]
15cb4: 100e1c14                 st	%r14,[%sp,20]
15cb8: 100e1e18                 st	%r15,[%sp,24]
15cbc: 100e201c                 st	%r16,[%sp,28]
15cc0: 100e2220                 st	%r17,[%sp,32]
15cc4: 100e2424                 st	%r18,[%sp,36]
15cc8: 100e2628                 st	%r19,[%sp,40]
15ccc: 100e282c                 st	%r20,[%sp,44]
15cd0: 100e2a30                 st	%r21,[%sp,48]
15cd4: 100e2c34                 st	%r22,[%sp,52]
15cd8: 100e2e38                 st	%r23,[%sp,56]
15cdc: 100e303c                 st	%r24,[%sp,60]
15ce0: 100e3240                 st	%r25,[%sp,64]
15ce4: 62600000                 mov	%r19,%r0
15ce8: 62008200                 mov	%r16,%r1
15cec: 100d85fc                 st	%r2,[%fp,-4]
15cf0: 100d87f8                 st	%r3,[%fp,-8]
15cf4: 63220800                 mov	%r25,%r4
15cf8: 100d8bf4                 st	%r5,[%fp,-12]
15cfc: 89a87e05                 lsr	%r13,%r16,5
15d00: 080d81f4                 ld	%r0,[%fp,-12]
15d04: 57e07a01                 sub.f	0,%r0,1
15d08: 080d81fc                 ld	%r0,[%fp,-4]
15d0c: 20000282                 bnz	0x1_5d24 = FlasherProgram16+0x84
15d10: 42407c00 00001554        add	%r18,%r0,0x1554		; 0x1554 = DEXP_MAX+0xd55
15d18: 42207c00 00000aa8        add	%r17,%r0,0xaa8		; 0xaa8 = DEXP_MAX+0x2a9
15d20: 20000200                 b	0x1_5d34 = FlasherProgram16+0x94
15d24: 42407c00 00000aaa        add	%r18,%r0,0xaaa		; 0xaaa = DEXP_MAX+0x2ab
15d2c: 42207c00 00000554        add	%r17,%r0,0x554		; 0x554 = DEXP_BIAS+0x155
15d34: 62fffeaa                 mov	%r23,170
15d38: 14892e00                 stw.di	%r23,[%r18]
15d3c: 631ffe55                 mov	%r24,85
15d40: 1488b000                 stw.di	%r24,[%r17]
15d44: 601ffef0                 mov	%r0,240
15d48: 14890000                 stw.di	%r0,[%r18]
15d4c: 080d81f4                 ld	%r0,[%fp,-12]
15d50: 57e07a01                 sub.f	0,%r0,1
15d54: 20000102                 bnz	0x1_5d60 = FlasherProgram16+0xc0
15d58: 62dffe04                 mov	%r22,4
15d5c: 20000080                 b	0x1_5d64 = FlasherProgram16+0xc4
15d60: 62dffe02                 mov	%r22,2
15d64: 14892e00                 stw.di	%r23,[%r18]
15d68: 1488b000                 stw.di	%r24,[%r17]
15d6c: 601ffe90                 mov	%r0,144
15d70: 14890000                 stw.di	%r0,[%r18]
15d74: 080d81f4                 ld	%r0,[%fp,-12]
15d78: 57e07a01                 sub.f	0,%r0,1
15d7c: 20000302                 bnz	0x1_5d98 = FlasherProgram16+0xf8
15d80: 080d81f8                 ld	%r0,[%fp,-8]
15d84: 40200000                 asl	%r1,%r0
15d88: 080d81fc                 ld	%r0,[%fp,-4]
15d8c: 40008000                 add	%r0,%r1,%r0
15d90: 61c07ffc                 and	%r14,%r0,-4
15d94: 20000200                 b	0x1_5da8 = FlasherProgram16+0x108
15d98: 082d81f8                 ld	%r1,[%fp,-8]
15d9c: 080d81fc                 ld	%r0,[%fp,-4]
15da0: 40208000                 add	%r1,%r1,%r0
15da4: 61c0fffc                 and	%r14,%r1,-4
15da8: 0aa74800                 ldw.di	%r21,[%r14]
15dac: 028b1c24                 ldw.di	%r20,[%r22,%r14]
15db0: 14892e00                 stw.di	%r23,[%r18]
15db4: 1488b000                 stw.di	%r24,[%r17]
15db8: 601ffef0                 mov	%r0,240
15dbc: 14890000                 stw.di	%r0,[%r18]
15dc0: 61e9a600                 mov	%r15,%r19
15dc4: 61df7c00 00017a28        mov	%r14,0x1_7a28		; 0x1_7a28 = FLASHER_cvs_version+0x264
15dcc: 40077f3c                 add	%r0,%r14,-196
15dd0: 2fffcb00                 bl	FlasherPrintf
15dd4: 40077f40                 add	%r0,%r14,-192
15dd8: 6029a600                 mov	%r1,%r19
15ddc: 2fffc980                 bl	FlasherPrintf
15de0: 40077f6c                 add	%r0,%r14,-148
15de4: 082d81fc                 ld	%r1,[%fp,-4]
15de8: 2fffc800                 bl	FlasherPrintf
15dec: 40077f98                 add	%r0,%r14,-104
15df0: 082d81f8                 ld	%r1,[%fp,-8]
15df4: 2fffc680                 bl	FlasherPrintf
15df8: 40077fc8                 add	%r0,%r14,-56
15dfc: 602aaa00                 mov	%r1,%r21
15e00: 2fffc500                 bl	FlasherPrintf
15e04: 40077ff4                 add	%r0,%r14,-12
15e08: 602a2800                 mov	%r1,%r20
15e0c: 2fffc380                 bl	FlasherPrintf
15e10: 40077e20                 add	%r0,%r14,32
15e14: 40282000                 asl	%r1,%r16
15e18: 2fffc200                 bl	FlasherPrintf
15e1c: 40077e48                 add	%r0,%r14,72
15e20: 57ecfa01                 sub.f	0,%r25,1
15e24: 20000102                 bnz	0x1_5e30 = FlasherProgram16+0x190
15e28: 40277e70                 add	%r1,%r14,112
15e2c: 20000080                 b	0x1_5e34 = FlasherProgram16+0x194
15e30: 40277e74                 add	%r1,%r14,116
15e34: 2fffbe80                 bl	FlasherPrintf
15e38: 40077e78                 add	%r0,%r14,120
15e3c: 082d81f4                 ld	%r1,[%fp,-12]
15e40: 57e0fa01                 sub.f	0,%r1,1
15e44: 20000102                 bnz	0x1_5e50 = FlasherProgram16+0x1b0
15e48: 40277ea0                 add	%r1,%r14,160
15e4c: 20000080                 b	0x1_5e54 = FlasherProgram16+0x1b4
15e50: 40277ea4                 add	%r1,%r14,164
15e54: 2fffba80                 bl	FlasherPrintf
15e58: 40077ea8                 add	%r0,%r14,168
15e5c: 603ffe02                 mov	%r1,2
15e60: 2fffb900                 bl	FlasherPrintf
15e64: 40077ed4                 add	%r0,%r14,212
15e68: 602b2c00                 mov	%r1,%r22
15e6c: 2fffb780                 bl	FlasherPrintf
15e70: 08278000                 ld	%r1,[%r15]
15e74: 57e0fd00 6f6c656d        sub.f	0,%r1,0x6f6c_656d		; 0x6f6c_656d = .regmask_lo+0x536c656a
15e7c: 20000481                 bz	0x1_5ea4 = FlasherProgram16+0x204
15e80: 57e0fd00 736d6532        sub.f	0,%r1,0x736d_6532		; 0x736d_6532 = .regmask_lo+0x576d652f
15e88: 20000301                 bz	0x1_5ea4 = FlasherProgram16+0x204
15e8c: 57e0fd00 736d6332        sub.f	0,%r1,0x736d_6332		; 0x736d_6332 = .regmask_lo+0x576d632f
15e94: 20000181                 bz	0x1_5ea4 = FlasherProgram16+0x204
15e98: 633f7c00 00017c28        mov	%r25,0x1_7c28		; 0x1_7c28 = FLASHER_cvs_version+0x464
15ea0: 20000880                 b	0x1_5ee8 = FlasherProgram16+0x248
15ea4: 40077efc                 add	%r0,%r14,252
15ea8: 41e7fe04                 add	%r15,%r15,4
15eac: 2fffaf80                 bl	FlasherPrintf
15eb0: 633f7c00 00017c28        mov	%r25,0x1_7c28		; 0x1_7c28 = FLASHER_cvs_version+0x464
15eb8: 400cff28                 add	%r0,%r25,-216
15ebc: 08278000                 ld	%r1,[%r15]
15ec0: 8040fe02                 asl	%r2,%r1,2
15ec4: 2fffac80                 bl	FlasherPrintf
15ec8: 41e7fe04                 add	%r15,%r15,4
15ecc: 400cff5c                 add	%r0,%r25,-164
15ed0: 08278000                 ld	%r1,[%r15]
15ed4: 41e7fe04                 add	%r15,%r15,4
15ed8: 2fffaa00                 bl	FlasherPrintf
15edc: 400cff88                 add	%r0,%r25,-120
15ee0: 08278000                 ld	%r1,[%r15]
15ee4: 2fffa880                 bl	FlasherPrintf
15ee8: 400cffb4                 add	%r0,%r25,-76
15eec: 2fffa780                 bl	FlasherPrintf
15ef0: 400cffb8                 add	%r0,%r25,-72
15ef4: 2fffa680                 bl	FlasherPrintf
15ef8: 400cffec                 add	%r0,%r25,-20
15efc: 2fffa580                 bl	FlasherPrintf
15f00: 400cfe1c                 add	%r0,%r25,28
15f04: 2fffa480                 bl	FlasherPrintf
15f08: 601ffe57                 mov	%r0,87
15f0c: 2fea4200                 bl	FH_ARC_set_AuxTimeStampTimer
15f10: 080d81f4                 ld	%r0,[%fp,-12]
15f14: 57e07a01                 sub.f	0,%r0,1
15f18: 20000302                 bnz	0x1_5f34 = FlasherProgram16+0x294
15f1c: 080d81f8                 ld	%r0,[%fp,-8]
15f20: 40200000                 asl	%r1,%r0
15f24: 080d81fc                 ld	%r0,[%fp,-4]
15f28: 40008000                 add	%r0,%r1,%r0
15f2c: 61c07ffc                 and	%r14,%r0,-4
15f30: 20000200                 b	0x1_5f44 = FlasherProgram16+0x2a4
15f34: 082d81f8                 ld	%r1,[%fp,-8]
15f38: 080d81fc                 ld	%r0,[%fp,-4]
15f3c: 40208000                 add	%r1,%r1,%r0
15f40: 61c0fffc                 and	%r14,%r1,-4
15f44: 52aaaa00                 sub	%r21,%r21,%r21
15f48: 57e87a00                 sub.f	0,%r16,0
15f4c: 20001a8e                 bls	0x1_6024 = FlasherProgram16+0x384
15f50: 600aaa00                 mov	%r0,%r21
15f54: 60269a00                 mov	%r1,%r13
15f58: 2ffb9e00                 bl	_udivmod_normbs
15f5c: 61e00000                 mov	%r15,%r0
15f60: 400afe01                 add	%r0,%r21,1
15f64: 60269a00                 mov	%r1,%r13
15f68: 2ffb9c00                 bl	_udivmod_normbs
15f6c: 57e78100                 sub.f	0,%r15,%r0
15f70: 20000101                 bz	0x1_5f7c = FlasherProgram16+0x2dc
15f74: 400cfe2c                 add	%r0,%r25,44
15f78: 2fff9600                 bl	FlasherPrintf
15f7c: 08074800                 ldw.di	%r0,[%r14]
15f80: 57e07d00 0000ffff        sub.f	0,%r0,0xffff		; 0xffff = _doscan+0x6db
15f88: 20001101                 bz	0x1_6014 = FlasherProgram16+0x374
15f8c: 14892e00                 stw.di	%r23,[%r18]
15f90: 1488b000                 stw.di	%r24,[%r17]
15f94: 601ffef0                 mov	%r0,240
15f98: 14890000                 stw.di	%r0,[%r18]
15f9c: 14892e00                 stw.di	%r23,[%r18]
15fa0: 1488b000                 stw.di	%r24,[%r17]
15fa4: 601ffe80                 mov	%r0,128
15fa8: 14890000                 stw.di	%r0,[%r18]
15fac: 14892e00                 stw.di	%r23,[%r18]
15fb0: 1488b000                 stw.di	%r24,[%r17]
15fb4: 601ffe30                 mov	%r0,48
15fb8: 14870000                 stw.di	%r0,[%r14]
15fbc: 51e79e00                 sub	%r15,%r15,%r15
15fc0: 601ffe83                 mov	%r0,131
15fc4: 603ffe14                 mov	%r1,20
15fc8: 2fff6480                 bl	FlasherDelay
15fcc: 08074800                 ldw.di	%r0,[%r14]
15fd0: 60407e80                 and	%r2,%r0,128
15fd4: 57e17a00                 sub.f	0,%r2,0
15fd8: 20000382                 bnz	0x1_5ff8 = FlasherProgram16+0x358
15fdc: 60007e20                 and	%r0,%r0,32
15fe0: 57e07a00                 sub.f	0,%r0,0
15fe4: 20000281                 bz	0x1_5ffc = FlasherProgram16+0x35c
15fe8: 08074800                 ldw.di	%r0,[%r14]
15fec: 60407e80                 and	%r2,%r0,128
15ff0: 57e17a00                 sub.f	0,%r2,0
15ff4: 20001001                 bz	0x1_6078 = FlasherProgram16+0x3d8
15ff8: 61fffe01                 mov	%r15,1
15ffc: 57e7fa00                 sub.f	0,%r15,0
16000: 27fff781                 bz	0x1_5fc0 = FlasherProgram16+0x320
16004: 14892e00                 stw.di	%r23,[%r18]
16008: 1488b000                 stw.di	%r24,[%r17]
1600c: 601ffef0                 mov	%r0,240
16010: 14890000                 stw.di	%r0,[%r18]
16014: 41cb1c00                 add	%r14,%r22,%r14
16018: 42aafe01                 add	%r21,%r21,1
1601c: 57e82b00                 sub.f	0,%r16,%r21
16020: 27ffe58d                 bhi	0x1_5f50 = FlasherProgram16+0x2b0
16024: 2fea2000                 bl	FH_ARC_get_AuxTimeStampTimer
16028: 603f7c00 057619f1        mov	%r1,0x576_19f1		; 0x576_19f1 = FOVF_BIT+0x47619f1
16030: afe08000                 mulu64	%r1,%r0
16034: 601df600                 mov	%r0,%mhi
16038: 88207e05                 lsr	%r1,%r0,5
1603c: 400cfe40                 add	%r0,%r25,64
16040: 2fff7d00                 bl	FlasherPrintf
16044: 400cfe4c                 add	%r0,%r25,76
16048: 2fff7c00                 bl	FlasherPrintf
1604c: 601ffe57                 mov	%r0,87
16050: 2fea1980                 bl	FH_ARC_set_AuxTimeStampTimer
16054: 080d81f4                 ld	%r0,[%fp,-12]
16058: 57e07a01                 sub.f	0,%r0,1
1605c: 20000502                 bnz	0x1_6088 = FlasherProgram16+0x3e8
16060: 080d81f8                 ld	%r0,[%fp,-8]
16064: 40200000                 asl	%r1,%r0
16068: 080d81fc                 ld	%r0,[%fp,-4]
1606c: 40008000                 add	%r0,%r1,%r0
16070: 61c07ffc                 and	%r14,%r0,-4
16074: 20000400                 b	0x1_6098 = FlasherProgram16+0x3f8
16078: 400cfe30                 add	%r0,%r25,48
1607c: 602aaa00                 mov	%r1,%r21
16080: 2fff7500                 bl	FlasherPrintf
16084: 20003980                 b	0x1_6254 = FlasherProgram16+0x5b4
16088: 082d81f8                 ld	%r1,[%fp,-8]
1608c: 080d81fc                 ld	%r0,[%fp,-4]
16090: 40208000                 add	%r1,%r1,%r0
16094: 61c0fffc                 and	%r14,%r1,-4
16098: 52aaaa00                 sub	%r21,%r21,%r21
1609c: 57e87a00                 sub.f	0,%r16,0
160a0: 2000170e                 bls	0x1_615c = FlasherProgram16+0x4bc
160a4: 600aaa00                 mov	%r0,%r21
160a8: 60269a00                 mov	%r1,%r13
160ac: 2ffb7380                 bl	_udivmod_normbs
160b0: 61e00000                 mov	%r15,%r0
160b4: 400afe01                 add	%r0,%r21,1
160b8: 60269a00                 mov	%r1,%r13
160bc: 2ffb7180                 bl	_udivmod_normbs
160c0: 57e78100                 sub.f	0,%r15,%r0
160c4: 20000101                 bz	0x1_60d0 = FlasherProgram16+0x430
160c8: 400cfe5c                 add	%r0,%r25,92
160cc: 2fff6b80                 bl	FlasherPrintf
160d0: 14892e00                 stw.di	%r23,[%r18]
160d4: 1488b000                 stw.di	%r24,[%r17]
160d8: 601ffea0                 mov	%r0,160
160dc: 14890000                 stw.di	%r0,[%r18]
160e0: 428aaa00                 asl	%r20,%r21
160e4: 0029a804                 ldw	%r1,[%r19,%r20]
160e8: 14870200                 stw.di	%r1,[%r14]
160ec: 51e79e00                 sub	%r15,%r15,%r15
160f0: 601ffe83                 mov	%r0,131
160f4: 603ffe14                 mov	%r1,20
160f8: 2fff3e80                 bl	FlasherDelay
160fc: 08074800                 ldw.di	%r0,[%r14]
16100: 60407e80                 and	%r2,%r0,128
16104: 0029a804                 ldw	%r1,[%r19,%r20]
16108: 6020fe80                 and	%r1,%r1,128
1610c: 57e10300                 sub.f	0,%r2,%r1
16110: 20000381                 bz	0x1_6130 = FlasherProgram16+0x490
16114: 60007e20                 and	%r0,%r0,32
16118: 57e07a20                 sub.f	0,%r0,32
1611c: 20000282                 bnz	0x1_6134 = FlasherProgram16+0x494
16120: 08074800                 ldw.di	%r0,[%r14]
16124: 60407e80                 and	%r2,%r0,128
16128: 57e10300                 sub.f	0,%r2,%r1
1612c: 20001002                 bnz	0x1_61b0 = FlasherProgram16+0x510
16130: 61fffe01                 mov	%r15,1
16134: 57e7fa00                 sub.f	0,%r15,0
16138: 27fff681                 bz	0x1_60f0 = FlasherProgram16+0x450
1613c: 41cb1c00                 add	%r14,%r22,%r14
16140: 14892e00                 stw.di	%r23,[%r18]
16144: 1488b000                 stw.di	%r24,[%r17]
16148: 601ffef0                 mov	%r0,240
1614c: 14890000                 stw.di	%r0,[%r18]
16150: 42aafe01                 add	%r21,%r21,1
16154: 57e82b00                 sub.f	0,%r16,%r21
16158: 27ffe90d                 bhi	0x1_60a4 = FlasherProgram16+0x404
1615c: 2fe9f900                 bl	FH_ARC_get_AuxTimeStampTimer
16160: 603f7c00 057619f1        mov	%r1,0x576_19f1		; 0x576_19f1 = FOVF_BIT+0x47619f1
16168: afe08000                 mulu64	%r1,%r0
1616c: 601df600                 mov	%r0,%mhi
16170: 88207e05                 lsr	%r1,%r0,5
16174: 400cfe70                 add	%r0,%r25,112
16178: 2fff5600                 bl	FlasherPrintf
1617c: 400cfe7c                 add	%r0,%r25,124
16180: 2fff5500                 bl	FlasherPrintf
16184: 601ffe57                 mov	%r0,87
16188: 2fe9f280                 bl	FH_ARC_set_AuxTimeStampTimer
1618c: 080d81f4                 ld	%r0,[%fp,-12]
16190: 57e07a01                 sub.f	0,%r0,1
16194: 20000402                 bnz	0x1_61b8 = FlasherProgram16+0x518
16198: 080d81f8                 ld	%r0,[%fp,-8]
1619c: 40200000                 asl	%r1,%r0
161a0: 080d81fc                 ld	%r0,[%fp,-4]
161a4: 40008000                 add	%r0,%r1,%r0
161a8: 61c07ffc                 and	%r14,%r0,-4
161ac: 20000300                 b	0x1_61c8 = FlasherProgram16+0x528
161b0: 400cfe60                 add	%r0,%r25,96
161b4: 27ffd880                 b	0x1_607c = FlasherProgram16+0x3dc
161b8: 082d81f8                 ld	%r1,[%fp,-8]
161bc: 080d81fc                 ld	%r0,[%fp,-4]
161c0: 40208000                 add	%r1,%r1,%r0
161c4: 61c0fffc                 and	%r14,%r1,-4
161c8: 52aaaa00                 sub	%r21,%r21,%r21
161cc: 57e87a00                 sub.f	0,%r16,0
161d0: 20000a0e                 bls	0x1_6224 = FlasherProgram16+0x584
161d4: 600aaa00                 mov	%r0,%r21
161d8: 60269a00                 mov	%r1,%r13
161dc: 2ffb4d80                 bl	_udivmod_normbs
161e0: 61e00000                 mov	%r15,%r0
161e4: 400afe01                 add	%r0,%r21,1
161e8: 60269a00                 mov	%r1,%r13
161ec: 2ffb4b80                 bl	_udivmod_normbs
161f0: 57e78100                 sub.f	0,%r15,%r0
161f4: 20000101                 bz	0x1_6200 = FlasherProgram16+0x560
161f8: 400cfe8c                 add	%r0,%r25,140
161fc: 2fff4580                 bl	FlasherPrintf
16200: 08074800                 ldw.di	%r0,[%r14]
16204: 428aaa00                 asl	%r20,%r21
16208: 0029a804                 ldw	%r1,[%r19,%r20]
1620c: 57e00300                 sub.f	0,%r0,%r1
16210: 20001002                 bnz	0x1_6294 = FlasherProgram16+0x5f4
16214: 41cb1c00                 add	%r14,%r22,%r14
16218: 42aafe01                 add	%r21,%r21,1
1621c: 57e82b00                 sub.f	0,%r16,%r21
16220: 27fff60d                 bhi	0x1_61d4 = FlasherProgram16+0x534
16224: 2fe9e000                 bl	FH_ARC_get_AuxTimeStampTimer
16228: 603f7c00 057619f1        mov	%r1,0x576_19f1		; 0x576_19f1 = FOVF_BIT+0x47619f1
16230: afe08000                 mulu64	%r1,%r0
16234: 601df600                 mov	%r0,%mhi
16238: 88207e05                 lsr	%r1,%r0,5
1623c: 400cfea0                 add	%r0,%r25,160
16240: 2fff3d00                 bl	FlasherPrintf
16244: 400cfeac                 add	%r0,%r25,172
16248: 2fff3c00                 bl	FlasherPrintf
1624c: 400cfedc                 add	%r0,%r25,220
16250: 2fff3b00                 bl	FlasherPrintf
16254: 09ae0010                 ld	%r13,[%sp,16]
16258: 09ce0014                 ld	%r14,[%sp,20]
1625c: 09ee0018                 ld	%r15,[%sp,24]
16260: 0a0e001c                 ld	%r16,[%sp,28]
16264: 0a2e0020                 ld	%r17,[%sp,32]
16268: 0a4e0024                 ld	%r18,[%sp,36]
1626c: 0a6e0028                 ld	%r19,[%sp,40]
16270: 0a8e002c                 ld	%r20,[%sp,44]
16274: 0aae0030                 ld	%r21,[%sp,48]
16278: 0ace0034                 ld	%r22,[%sp,52]
1627c: 0aee0038                 ld	%r23,[%sp,56]
16280: 0b0e003c                 ld	%r24,[%sp,60]
16284: 0b2e0040                 ld	%r25,[%sp,64]
16288: 0bed8004                 ld	%blink,[%fp,4]
1628c: 380f8020                 j.d	[%blink]
16290: 0b6e1050                 ld.a	%fp,[%sp,80]
16294: 400cfe90                 add	%r0,%r25,144
16298: 27ffbc00                 b	0x1_607c = FlasherProgram16+0x3dc
FlasherProgram8:
1629c: 100e3e04                 st	%blink,[%sp,4]
162a0: 100e3600                 st	%fp,[%sp]
162a4: 636e3800                 mov	%fp,%sp
162a8: 538e7e54                 sub	%sp,%sp,84
162ac: 100e1a10                 st	%r13,[%sp,16]
162b0: 100e1c14                 st	%r14,[%sp,20]
162b4: 100e1e18                 st	%r15,[%sp,24]
162b8: 100e201c                 st	%r16,[%sp,28]
162bc: 100e2220                 st	%r17,[%sp,32]
162c0: 100e2424                 st	%r18,[%sp,36]
162c4: 100e2628                 st	%r19,[%sp,40]
162c8: 100e282c                 st	%r20,[%sp,44]
162cc: 100e2a30                 st	%r21,[%sp,48]
162d0: 100e2c34                 st	%r22,[%sp,52]
162d4: 100e2e38                 st	%r23,[%sp,56]
162d8: 100e303c                 st	%r24,[%sp,60]
162dc: 100e3240                 st	%r25,[%sp,64]
162e0: 61e00000                 mov	%r15,%r0
162e4: 61c08200                 mov	%r14,%r1
162e8: 100d85fc                 st	%r2,[%fp,-4]
162ec: 100d87f8                 st	%r3,[%fp,-8]
162f0: 100d89f4                 st	%r4,[%fp,-12]
162f4: 100d8bf0                 st	%r5,[%fp,-16]
162f8: 8a877e05                 lsr	%r20,%r14,5
162fc: 080d81f0                 ld	%r0,[%fp,-16]
16300: 57e07a01                 sub.f	0,%r0,1
16304: 080d81fc                 ld	%r0,[%fp,-4]
16308: 20000282                 bnz	0x1_6320 = FlasherProgram8+0x84
1630c: 42a07c00 00002aa8        add	%r21,%r0,0x2aa8		; 0x2aa8 = _HEAPSIZE+0xaa8
16314: 42007c00 00001554        add	%r16,%r0,0x1554		; 0x1554 = DEXP_MAX+0xd55
1631c: 20000200                 b	0x1_6330 = FlasherProgram8+0x94
16320: 42a07c00 00000555        add	%r21,%r0,0x555		; 0x555 = DEXP_BIAS+0x156
16328: 42007c00 000002aa        add	%r16,%r0,0x2aa		; 0x2aa = FEXP_MAX+0x1ab
16330: 62fffeaa                 mov	%r23,170
16334: 144aae00                 stb.di	%r23,[%r21]
16338: 631ffe55                 mov	%r24,85
1633c: 14483000                 stb.di	%r24,[%r16]
16340: 633ffef0                 mov	%r25,240
16344: 144ab200                 stb.di	%r25,[%r21]
16348: 080d81f0                 ld	%r0,[%fp,-16]
1634c: 57e07a01                 sub.f	0,%r0,1
16350: 20000102                 bnz	0x1_635c = FlasherProgram8+0xc0
16354: 61bffe04                 mov	%r13,4
16358: 20000080                 b	0x1_6360 = FlasherProgram8+0xc4
1635c: 61bffe01                 mov	%r13,1
16360: 607ffeaa                 mov	%r3,170
16364: 148a8600                 stw.di	%r3,[%r21]
16368: 605ffe55                 mov	%r2,85
1636c: 14880400                 stw.di	%r2,[%r16]
16370: 601ffe90                 mov	%r0,144
16374: 148a8000                 stw.di	%r0,[%r21]
16378: 080d81f0                 ld	%r0,[%fp,-16]
1637c: 57e07a01                 sub.f	0,%r0,1
16380: 080d81f8                 ld	%r0,[%fp,-8]
16384: 20000282                 bnz	0x1_639c = FlasherProgram8+0x100
16388: 80207e02                 asl	%r1,%r0,2
1638c: 080d81fc                 ld	%r0,[%fp,-4]
16390: 40008000                 add	%r0,%r1,%r0
16394: 62607ffc                 and	%r19,%r0,-4
16398: 20000100                 b	0x1_63a4 = FlasherProgram8+0x108
1639c: 082d81fc                 ld	%r1,[%fp,-4]
163a0: 42600200                 add	%r19,%r0,%r1
163a4: 0ac9c400                 ldb.di	%r22,[%r19]
163a8: 0266a622                 ldb.di	%r19,[%r13,%r19]
163ac: 148a8600                 stw.di	%r3,[%r21]
163b0: 14880400                 stw.di	%r2,[%r16]
163b4: 601ffef0                 mov	%r0,240
163b8: 148a8000                 stw.di	%r0,[%r21]
163bc: 62479e00                 mov	%r18,%r15
163c0: 623f7c00 00017c28        mov	%r17,0x1_7c28		; 0x1_7c28 = FLASHER_cvs_version+0x464
163c8: 4008fee4                 add	%r0,%r17,228
163cc: 2fff0b80                 bl	FlasherPrintf
163d0: 4008fee8                 add	%r0,%r17,232
163d4: 60279e00                 mov	%r1,%r15
163d8: 2fff0a00                 bl	FlasherPrintf
163dc: 623f7c00 00017e28        mov	%r17,0x1_7e28		; 0x1_7e28 = FLASHER_cvs_version+0x664
163e4: 4008ff14                 add	%r0,%r17,-236
163e8: 082d81fc                 ld	%r1,[%fp,-4]
163ec: 2fff0780                 bl	FlasherPrintf
163f0: 4008ff40                 add	%r0,%r17,-192
163f4: 082d81f8                 ld	%r1,[%fp,-8]
163f8: 2fff0600                 bl	FlasherPrintf
163fc: 4008ff70                 add	%r0,%r17,-144
16400: 602b2c00                 mov	%r1,%r22
16404: 2fff0480                 bl	FlasherPrintf
16408: 4008ff9c                 add	%r0,%r17,-100
1640c: 6029a600                 mov	%r1,%r19
16410: 2fff0300                 bl	FlasherPrintf
16414: 4008ffc8                 add	%r0,%r17,-56
16418: 40271c00                 asl	%r1,%r14
1641c: 2fff0180                 bl	FlasherPrintf
16420: 4008fff0                 add	%r0,%r17,-16
16424: 082d81f4                 ld	%r1,[%fp,-12]
16428: 57e0fa01                 sub.f	0,%r1,1
1642c: 20000102                 bnz	0x1_6438 = FlasherProgram8+0x19c
16430: 4028fe18                 add	%r1,%r17,24
16434: 20000080                 b	0x1_643c = FlasherProgram8+0x1a0
16438: 4028fe1c                 add	%r1,%r17,28
1643c: 2ffefd80                 bl	FlasherPrintf
16440: 4008fe20                 add	%r0,%r17,32
16444: 082d81f0                 ld	%r1,[%fp,-16]
16448: 57e0fa01                 sub.f	0,%r1,1
1644c: 20000102                 bnz	0x1_6458 = FlasherProgram8+0x1bc
16450: 4028fe48                 add	%r1,%r17,72
16454: 20000080                 b	0x1_645c = FlasherProgram8+0x1c0
16458: 4028fe4c                 add	%r1,%r17,76
1645c: 2ffef980                 bl	FlasherPrintf
16460: 4008fe50                 add	%r0,%r17,80
16464: 603ffe01                 mov	%r1,1
16468: 2ffef800                 bl	FlasherPrintf
1646c: 4008fe7c                 add	%r0,%r17,124
16470: 60269a00                 mov	%r1,%r13
16474: 2ffef680                 bl	FlasherPrintf
16478: 08290000                 ld	%r1,[%r18]
1647c: 57e0fd00 6f6c656d        sub.f	0,%r1,0x6f6c_656d		; 0x6f6c_656d = .regmask_lo+0x536c656a
16484: 20000481                 bz	0x1_64ac = FlasherProgram8+0x210
16488: 57e0fd00 736d6532        sub.f	0,%r1,0x736d_6532		; 0x736d_6532 = .regmask_lo+0x576d652f
16490: 20000301                 bz	0x1_64ac = FlasherProgram8+0x210
16494: 57e0fd00 736d6332        sub.f	0,%r1,0x736d_6332		; 0x736d_6332 = .regmask_lo+0x576d632f
1649c: 20000181                 bz	0x1_64ac = FlasherProgram8+0x210
164a0: 62df7c00 00018028        mov	%r22,0x1_8028		; 0x1_8028 = FLASHER_cvs_version+0x864
164a8: 20000880                 b	0x1_64f0 = FlasherProgram8+0x254
164ac: 4008fea4                 add	%r0,%r17,164
164b0: 42497e04                 add	%r18,%r18,4
164b4: 2ffeee80                 bl	FlasherPrintf
164b8: 4008fed0                 add	%r0,%r17,208
164bc: 08290000                 ld	%r1,[%r18]
164c0: 8040fe02                 asl	%r2,%r1,2
164c4: 2ffeec80                 bl	FlasherPrintf
164c8: 42497e04                 add	%r18,%r18,4
164cc: 62df7c00 00018028        mov	%r22,0x1_8028		; 0x1_8028 = FLASHER_cvs_version+0x864
164d4: 400b7f08                 add	%r0,%r22,-248
164d8: 08290000                 ld	%r1,[%r18]
164dc: 42497e04                 add	%r18,%r18,4
164e0: 2ffee900                 bl	FlasherPrintf
164e4: 400b7f34                 add	%r0,%r22,-204
164e8: 08290000                 ld	%r1,[%r18]
164ec: 2ffee780                 bl	FlasherPrintf
164f0: 400b7f60                 add	%r0,%r22,-160
164f4: 2ffee680                 bl	FlasherPrintf
164f8: 400b7f64                 add	%r0,%r22,-156
164fc: 2ffee580                 bl	FlasherPrintf
16500: 400b7f98                 add	%r0,%r22,-104
16504: 2ffee480                 bl	FlasherPrintf
16508: 400b7fc8                 add	%r0,%r22,-56
1650c: 2ffee380                 bl	FlasherPrintf
16510: 601ffe57                 mov	%r0,87
16514: 2fe98100                 bl	FH_ARC_set_AuxTimeStampTimer
16518: 080d81f0                 ld	%r0,[%fp,-16]
1651c: 57e07a01                 sub.f	0,%r0,1
16520: 080d81f8                 ld	%r0,[%fp,-8]
16524: 20000282                 bnz	0x1_653c = FlasherProgram8+0x2a0
16528: 80207e02                 asl	%r1,%r0,2
1652c: 080d81fc                 ld	%r0,[%fp,-4]
16530: 40008000                 add	%r0,%r1,%r0
16534: 62607ffc                 and	%r19,%r0,-4
16538: 20000100                 b	0x1_6544 = FlasherProgram8+0x2a8
1653c: 082d81fc                 ld	%r1,[%fp,-4]
16540: 42600200                 add	%r19,%r0,%r1
16544: 5228a200                 sub	%r17,%r17,%r17
16548: 57e77a00                 sub.f	0,%r14,0
1654c: 2000170e                 bls	0x1_6608 = FlasherProgram8+0x36c
16550: 6008a200                 mov	%r0,%r17
16554: 602a2800                 mov	%r1,%r20
16558: 2ffade00                 bl	_udivmod_normbs
1655c: 62400000                 mov	%r18,%r0
16560: 4008fe01                 add	%r0,%r17,1
16564: 602a2800                 mov	%r1,%r20
16568: 2ffadc00                 bl	_udivmod_normbs
1656c: 57e90100                 sub.f	0,%r18,%r0
16570: 20000101                 bz	0x1_657c = FlasherProgram8+0x2e0
16574: 400b7fd8                 add	%r0,%r22,-40
16578: 2ffed600                 bl	FlasherPrintf
1657c: 0809c400                 ldb.di	%r0,[%r19]
16580: 57e07aff                 sub.f	0,%r0,255
16584: 20000e01                 bz	0x1_65f8 = FlasherProgram8+0x35c
16588: 144ab200                 stb.di	%r25,[%r21]
1658c: 144aae00                 stb.di	%r23,[%r21]
16590: 14483000                 stb.di	%r24,[%r16]
16594: 601ffe80                 mov	%r0,128
16598: 144a8000                 stb.di	%r0,[%r21]
1659c: 144aae00                 stb.di	%r23,[%r21]
165a0: 14483000                 stb.di	%r24,[%r16]
165a4: 601ffe30                 mov	%r0,48
165a8: 14498000                 stb.di	%r0,[%r19]
165ac: 52492400                 sub	%r18,%r18,%r18
165b0: 601ffe83                 mov	%r0,131
165b4: 603ffe14                 mov	%r1,20
165b8: 2ffea680                 bl	FlasherDelay
165bc: 0809c400                 ldb.di	%r0,[%r19]
165c0: 60407e80                 and	%r2,%r0,128
165c4: 57e17a80                 sub.f	0,%r2,128
165c8: 20000381                 bz	0x1_65e8 = FlasherProgram8+0x34c
165cc: 60007e20                 and	%r0,%r0,32
165d0: 57e07a00                 sub.f	0,%r0,0
165d4: 20000281                 bz	0x1_65ec = FlasherProgram8+0x350
165d8: 0809c400                 ldb.di	%r0,[%r19]
165dc: 60407e80                 and	%r2,%r0,128
165e0: 57e17a00                 sub.f	0,%r2,0
165e4: 20000e81                 bz	0x1_665c = FlasherProgram8+0x3c0
165e8: 625ffe01                 mov	%r18,1
165ec: 57e97a00                 sub.f	0,%r18,0
165f0: 27fff781                 bz	0x1_65b0 = FlasherProgram8+0x314
165f4: 144ab200                 stb.di	%r25,[%r21]
165f8: 4266a600                 add	%r19,%r13,%r19
165fc: 4228fe01                 add	%r17,%r17,1
16600: 57e72300                 sub.f	0,%r14,%r17
16604: 27ffe90d                 bhi	0x1_6550 = FlasherProgram8+0x2b4
16608: 2fe96380                 bl	FH_ARC_get_AuxTimeStampTimer
1660c: 603f7c00 057619f1        mov	%r1,0x576_19f1		; 0x576_19f1 = FOVF_BIT+0x47619f1
16614: afe08000                 mulu64	%r1,%r0
16618: 601df600                 mov	%r0,%mhi
1661c: 88207e05                 lsr	%r1,%r0,5
16620: 400b7fec                 add	%r0,%r22,-20
16624: 2ffec080                 bl	FlasherPrintf
16628: 400b7ff8                 add	%r0,%r22,-8
1662c: 2ffebf80                 bl	FlasherPrintf
16630: 601ffe57                 mov	%r0,87
16634: 2fe95d00                 bl	FH_ARC_set_AuxTimeStampTimer
16638: 080d81f0                 ld	%r0,[%fp,-16]
1663c: 57e07a01                 sub.f	0,%r0,1
16640: 080d81f8                 ld	%r0,[%fp,-8]
16644: 20000482                 bnz	0x1_666c = FlasherProgram8+0x3d0
16648: 80207e02                 asl	%r1,%r0,2
1664c: 080d81fc                 ld	%r0,[%fp,-4]
16650: 40008000                 add	%r0,%r1,%r0
16654: 62607ffc                 and	%r19,%r0,-4
16658: 20000300                 b	0x1_6674 = FlasherProgram8+0x3d8
1665c: 400b7fdc                 add	%r0,%r22,-36
16660: 6028a200                 mov	%r1,%r17
16664: 2ffeb880                 bl	FlasherPrintf
16668: 20003580                 b	0x1_6818 = FlasherProgram8+0x57c
1666c: 082d81fc                 ld	%r1,[%fp,-4]
16670: 42600200                 add	%r19,%r0,%r1
16674: 5228a200                 sub	%r17,%r17,%r17
16678: 57e77a00                 sub.f	0,%r14,0
1667c: 2000150e                 bls	0x1_6728 = FlasherProgram8+0x48c
16680: 6008a200                 mov	%r0,%r17
16684: 602a2800                 mov	%r1,%r20
16688: 2ffab800                 bl	_udivmod_normbs
1668c: 62400000                 mov	%r18,%r0
16690: 4008fe01                 add	%r0,%r17,1
16694: 602a2800                 mov	%r1,%r20
16698: 2ffab600                 bl	_udivmod_normbs
1669c: 57e90100                 sub.f	0,%r18,%r0
166a0: 20000101                 bz	0x1_66ac = FlasherProgram8+0x410
166a4: 400b7e08                 add	%r0,%r22,8
166a8: 2ffeb000                 bl	FlasherPrintf
166ac: 144aae00                 stb.di	%r23,[%r21]
166b0: 14483000                 stb.di	%r24,[%r16]
166b4: 601ffea0                 mov	%r0,160
166b8: 144a8000                 stb.di	%r0,[%r21]
166bc: 0027a202                 ldb	%r1,[%r15,%r17]
166c0: 14498200                 stb.di	%r1,[%r19]
166c4: 52492400                 sub	%r18,%r18,%r18
166c8: 601ffe83                 mov	%r0,131
166cc: 603ffe14                 mov	%r1,20
166d0: 2ffe8380                 bl	FlasherDelay
166d4: 0809c400                 ldb.di	%r0,[%r19]
166d8: 60407e80                 and	%r2,%r0,128
166dc: 0027a202                 ldb	%r1,[%r15,%r17]
166e0: 6020fe80                 and	%r1,%r1,128
166e4: 57e10300                 sub.f	0,%r2,%r1
166e8: 20000381                 bz	0x1_6708 = FlasherProgram8+0x46c
166ec: 60007e20                 and	%r0,%r0,32
166f0: 57e07a20                 sub.f	0,%r0,32
166f4: 20000282                 bnz	0x1_670c = FlasherProgram8+0x470
166f8: 0809c400                 ldb.di	%r0,[%r19]
166fc: 60407e80                 and	%r2,%r0,128
16700: 57e10300                 sub.f	0,%r2,%r1
16704: 20000e82                 bnz	0x1_677c = FlasherProgram8+0x4e0
16708: 625ffe01                 mov	%r18,1
1670c: 57e97a00                 sub.f	0,%r18,0
16710: 27fff681                 bz	0x1_66c8 = FlasherProgram8+0x42c
16714: 4266a600                 add	%r19,%r13,%r19
16718: 144ab200                 stb.di	%r25,[%r21]
1671c: 4228fe01                 add	%r17,%r17,1
16720: 57e72300                 sub.f	0,%r14,%r17
16724: 27ffeb0d                 bhi	0x1_6680 = FlasherProgram8+0x3e4
16728: 2fe93f80                 bl	FH_ARC_get_AuxTimeStampTimer
1672c: 603f7c00 057619f1        mov	%r1,0x576_19f1		; 0x576_19f1 = FOVF_BIT+0x47619f1
16734: afe08000                 mulu64	%r1,%r0
16738: 601df600                 mov	%r0,%mhi
1673c: 88207e05                 lsr	%r1,%r0,5
16740: 400b7e1c                 add	%r0,%r22,28
16744: 2ffe9c80                 bl	FlasherPrintf
16748: 400b7e28                 add	%r0,%r22,40
1674c: 2ffe9b80                 bl	FlasherPrintf
16750: 601ffe57                 mov	%r0,87
16754: 2fe93900                 bl	FH_ARC_set_AuxTimeStampTimer
16758: 080d81f0                 ld	%r0,[%fp,-16]
1675c: 57e07a01                 sub.f	0,%r0,1
16760: 20000402                 bnz	0x1_6784 = FlasherProgram8+0x4e8
16764: 080d81f8                 ld	%r0,[%fp,-8]
16768: 80207e02                 asl	%r1,%r0,2
1676c: 080d81fc                 ld	%r0,[%fp,-4]
16770: 40008000                 add	%r0,%r1,%r0
16774: 62607ffc                 and	%r19,%r0,-4
16778: 20000280                 b	0x1_6790 = FlasherProgram8+0x4f4
1677c: 400b7e0c                 add	%r0,%r22,12
16780: 27ffdb80                 b	0x1_6660 = FlasherProgram8+0x3c4
16784: 082d81f8                 ld	%r1,[%fp,-8]
16788: 080d81fc                 ld	%r0,[%fp,-4]
1678c: 42608000                 add	%r19,%r1,%r0
16790: 5228a200                 sub	%r17,%r17,%r17
16794: 57e77a00                 sub.f	0,%r14,0
16798: 2000098e                 bls	0x1_67e8 = FlasherProgram8+0x54c
1679c: 6008a200                 mov	%r0,%r17
167a0: 602a2800                 mov	%r1,%r20
167a4: 2ffa9480                 bl	_udivmod_normbs
167a8: 62000000                 mov	%r16,%r0
167ac: 4008fe01                 add	%r0,%r17,1
167b0: 602a2800                 mov	%r1,%r20
167b4: 2ffa9280                 bl	_udivmod_normbs
167b8: 57e80100                 sub.f	0,%r16,%r0
167bc: 20000101                 bz	0x1_67c8 = FlasherProgram8+0x52c
167c0: 400b7e38                 add	%r0,%r22,56
167c4: 2ffe8c80                 bl	FlasherPrintf
167c8: 0809c400                 ldb.di	%r0,[%r19]
167cc: 0027a202                 ldb	%r1,[%r15,%r17]
167d0: 57e00300                 sub.f	0,%r0,%r1
167d4: 20001002                 bnz	0x1_6858 = FlasherProgram8+0x5bc
167d8: 4266a600                 add	%r19,%r13,%r19
167dc: 4228fe01                 add	%r17,%r17,1
167e0: 57e72300                 sub.f	0,%r14,%r17
167e4: 27fff68d                 bhi	0x1_679c = FlasherProgram8+0x500
167e8: 2fe92780                 bl	FH_ARC_get_AuxTimeStampTimer
167ec: 603f7c00 057619f1        mov	%r1,0x576_19f1		; 0x576_19f1 = FOVF_BIT+0x47619f1
167f4: afe08000                 mulu64	%r1,%r0
167f8: 601df600                 mov	%r0,%mhi
167fc: 88207e05                 lsr	%r1,%r0,5
16800: 400b7e4c                 add	%r0,%r22,76
16804: 2ffe8480                 bl	FlasherPrintf
16808: 400b7e58                 add	%r0,%r22,88
1680c: 2ffe8380                 bl	FlasherPrintf
16810: 400b7e88                 add	%r0,%r22,136
16814: 2ffe8280                 bl	FlasherPrintf
16818: 09ae0010                 ld	%r13,[%sp,16]
1681c: 09ce0014                 ld	%r14,[%sp,20]
16820: 09ee0018                 ld	%r15,[%sp,24]
16824: 0a0e001c                 ld	%r16,[%sp,28]
16828: 0a2e0020                 ld	%r17,[%sp,32]
1682c: 0a4e0024                 ld	%r18,[%sp,36]
16830: 0a6e0028                 ld	%r19,[%sp,40]
16834: 0a8e002c                 ld	%r20,[%sp,44]
16838: 0aae0030                 ld	%r21,[%sp,48]
1683c: 0ace0034                 ld	%r22,[%sp,52]
16840: 0aee0038                 ld	%r23,[%sp,56]
16844: 0b0e003c                 ld	%r24,[%sp,60]
16848: 0b2e0040                 ld	%r25,[%sp,64]
1684c: 0bed8004                 ld	%blink,[%fp,4]
16850: 380f8020                 j.d	[%blink]
16854: 0b6e1054                 ld.a	%fp,[%sp,84]
16858: 400b7e3c                 add	%r0,%r22,60
1685c: 27ffc000                 b	0x1_6660 = FlasherProgram8+0x3c4
FlasherReport:
16860: 100e3e04                 st	%blink,[%sp,4]
16864: 100e3600                 st	%fp,[%sp]
16868: 636e3800                 mov	%fp,%sp
1686c: 538e7c00 0000011c        sub	%sp,%sp,0x11c		; 0x11c = FEXP_MAX+0x1d
16874: 100e1a78                 st	%r13,[%sp,120]
16878: 100e1c7c                 st	%r14,[%sp,124]
1687c: 100e1e80                 st	%r15,[%sp,128]
16880: 100e2084                 st	%r16,[%sp,132]
16884: 100e2288                 st	%r17,[%sp,136]
16888: 100e248c                 st	%r18,[%sp,140]
1688c: 100e2690                 st	%r19,[%sp,144]
16890: 100e2894                 st	%r20,[%sp,148]
16894: 100e2a98                 st	%r21,[%sp,152]
16898: 100e2c9c                 st	%r22,[%sp,156]
1689c: 100e2ea0                 st	%r23,[%sp,160]
168a0: 100e30a4                 st	%r24,[%sp,164]
168a4: 100e32a8                 st	%r25,[%sp,168]
168a8: 62000000                 mov	%r16,%r0
168ac: 61a08200                 mov	%r13,%r1
168b0: 62610400                 mov	%r19,%r2
168b4: 100d87cc                 st	%r3,[%fp,-52]
168b8: 62220800                 mov	%r17,%r4
168bc: 61df7c00 00018028        mov	%r14,0x1_8028		; 0x1_8028 = FLASHER_cvs_version+0x864
168c4: 40077e90                 add	%r0,%r14,144
168c8: 2ffe6c00                 bl	FlasherPrintf
168cc: 40077e94                 add	%r0,%r14,148
168d0: 60269a00                 mov	%r1,%r13
168d4: 6049a600                 mov	%r2,%r19
168d8: 2ffe6a00                 bl	FlasherPrintf
168dc: 40077ec4                 add	%r0,%r14,196
168e0: 2ffe6900                 bl	FlasherPrintf
168e4: 080d81cc                 ld	%r0,[%fp,-52]
168e8: 57e07a01                 sub.f	0,%r0,1
168ec: 20001e82                 bnz	0x1_69e4 = FlasherReport+0x184
168f0: 57e8fa00                 sub.f	0,%r17,0
168f4: 61df7c00 00018228        mov	%r14,0x1_8228		; 0x1_8228 = FLASHER_cvs_version+0xa64
168fc: 20000e81                 bz	0x1_6974 = FlasherReport+0x114
16900: 40077f14                 add	%r0,%r14,-236
16904: 603ffe1c                 mov	%r1,28
16908: 100e0210                 st	%r1,[%sp,16]
1690c: 603ffe20                 mov	%r1,32
16910: 100e0214                 st	%r1,[%sp,20]
16914: 603ffe24                 mov	%r1,36
16918: 100e0218                 st	%r1,[%sp,24]
1691c: 603ffe28                 mov	%r1,40
16920: 100e021c                 st	%r1,[%sp,28]
16924: 603ffe2c                 mov	%r1,44
16928: 100e0220                 st	%r1,[%sp,32]
1692c: 603ffe30                 mov	%r1,48
16930: 100e0224                 st	%r1,[%sp,36]
16934: 603ffe34                 mov	%r1,52
16938: 100e0228                 st	%r1,[%sp,40]
1693c: 603ffe38                 mov	%r1,56
16940: 100e022c                 st	%r1,[%sp,44]
16944: 603ffe3c                 mov	%r1,60
16948: 100e0230                 st	%r1,[%sp,48]
1694c: 50208200                 sub	%r1,%r1,%r1
16950: 605ffe04                 mov	%r2,4
16954: 607ffe08                 mov	%r3,8
16958: 609ffe0c                 mov	%r4,12
1695c: 60bffe10                 mov	%r5,16
16960: 60dffe14                 mov	%r6,20
16964: 60fffe18                 mov	%r7,24
16968: 2ffe5800                 bl	FlasherPrintf
1696c: 81a6fe02                 asl	%r13,%r13,2
16970: 20001f80                 b	0x1_6a70 = FlasherReport+0x210
16974: 40077f78                 add	%r0,%r14,-136
16978: 603ffe07                 mov	%r1,7
1697c: 100e0210                 st	%r1,[%sp,16]
16980: 603ffe08                 mov	%r1,8
16984: 100e0214                 st	%r1,[%sp,20]
16988: 603ffe09                 mov	%r1,9
1698c: 100e0218                 st	%r1,[%sp,24]
16990: 603ffe0a                 mov	%r1,10
16994: 100e021c                 st	%r1,[%sp,28]
16998: 603ffe0b                 mov	%r1,11
1699c: 100e0220                 st	%r1,[%sp,32]
169a0: 603ffe0c                 mov	%r1,12
169a4: 100e0224                 st	%r1,[%sp,36]
169a8: 603ffe0d                 mov	%r1,13
169ac: 100e0228                 st	%r1,[%sp,40]
169b0: 603ffe0e                 mov	%r1,14
169b4: 100e022c                 st	%r1,[%sp,44]
169b8: 603ffe0f                 mov	%r1,15
169bc: 100e0230                 st	%r1,[%sp,48]
169c0: 50208200                 sub	%r1,%r1,%r1
169c4: 605ffe01                 mov	%r2,1
169c8: 607ffe02                 mov	%r3,2
169cc: 609ffe03                 mov	%r4,3
169d0: 60bffe04                 mov	%r5,4
169d4: 60dffe05                 mov	%r6,5
169d8: 60fffe06                 mov	%r7,6
169dc: 2ffe4980                 bl	FlasherPrintf
169e0: 20001180                 b	0x1_6a70 = FlasherReport+0x210
169e4: 080d81cc                 ld	%r0,[%fp,-52]
169e8: 57e07a02                 sub.f	0,%r0,2
169ec: 20001b02                 bnz	0x1_6ac8 = FlasherReport+0x268
169f0: 57e8fa00                 sub.f	0,%r17,0
169f4: 61df7c00 00018228        mov	%r14,0x1_8228		; 0x1_8228 = FLASHER_cvs_version+0xa64
169fc: 20001801                 bz	0x1_6ac0 = FlasherReport+0x260
16a00: 40077fdc                 add	%r0,%r14,-36
16a04: 603ffe0d                 mov	%r1,13
16a08: 100e0210                 st	%r1,[%sp,16]
16a0c: 603ffe10                 mov	%r1,16
16a10: 100e0214                 st	%r1,[%sp,20]
16a14: 603ffe11                 mov	%r1,17
16a18: 100e0218                 st	%r1,[%sp,24]
16a1c: 603ffe14                 mov	%r1,20
16a20: 100e021c                 st	%r1,[%sp,28]
16a24: 603ffe15                 mov	%r1,21
16a28: 100e0220                 st	%r1,[%sp,32]
16a2c: 603ffe18                 mov	%r1,24
16a30: 100e0224                 st	%r1,[%sp,36]
16a34: 603ffe19                 mov	%r1,25
16a38: 100e0228                 st	%r1,[%sp,40]
16a3c: 603ffe1c                 mov	%r1,28
16a40: 100e022c                 st	%r1,[%sp,44]
16a44: 603ffe1d                 mov	%r1,29
16a48: 100e0230                 st	%r1,[%sp,48]
16a4c: 50208200                 sub	%r1,%r1,%r1
16a50: 605ffe01                 mov	%r2,1
16a54: 607ffe04                 mov	%r3,4
16a58: 609ffe05                 mov	%r4,5
16a5c: 60bffe08                 mov	%r5,8
16a60: 60dffe09                 mov	%r6,9
16a64: 60fffe0c                 mov	%r7,12
16a68: 2ffe3800                 bl	FlasherPrintf
16a6c: 41a69a00                 asl	%r13,%r13
16a70: 40077ed4                 add	%r0,%r14,212
16a74: 2ffe3680                 bl	FlasherPrintf
16a78: 41a6a000                 add	%r13,%r13,%r16
16a7c: 61e69a00                 mov	%r15,%r13
16a80: 61c69a00                 mov	%r14,%r13
16a84: 52492400                 sub	%r18,%r18,%r18
16a88: 8809fe04                 lsr	%r0,%r19,4
16a8c: 100d81c8                 st	%r0,[%fp,-56]
16a90: 57e90100                 sub.f	0,%r18,%r0
16a94: 20006106                 bnc	0x1_6da0 = FlasherReport+0x540
16a98: 601f7c00 0001834c        mov	%r0,0x1_834c		; 0x1_834c = FLASHER_cvs_version+0xb88
16aa0: 100d8190                 st	%r0,[%fp,-112]
16aa4: 080d81cc                 ld	%r0,[%fp,-52]
16aa8: 57e07a01                 sub.f	0,%r0,1
16aac: 20001582                 bnz	0x1_6b5c = FlasherReport+0x2fc
16ab0: 57e8fa00                 sub.f	0,%r17,0
16ab4: 20000581                 bz	0x1_6ae4 = FlasherReport+0x284
16ab8: 62079e00                 mov	%r16,%r15
16abc: 20000500                 b	0x1_6ae8 = FlasherReport+0x288
16ac0: 40077e40                 add	%r0,%r14,64
16ac4: 27ffd600                 b	0x1_6978 = FlasherReport+0x118
16ac8: 61df7c00 00018228        mov	%r14,0x1_8228		; 0x1_8228 = FLASHER_cvs_version+0xa64
16ad0: 40077ea4                 add	%r0,%r14,164
16ad4: 2ffe2a80                 bl	FlasherPrintf
16ad8: 40077ea8                 add	%r0,%r14,168
16adc: 082d81cc                 ld	%r1,[%fp,-52]
16ae0: 20005900                 b	0x1_6dac = FlasherReport+0x54c
16ae4: 62071c00                 mov	%r16,%r14
16ae8: 50410400                 sub	%r2,%r2,%r2
16aec: 57e8fa00                 sub.f	0,%r17,0
16af0: 20000281                 bz	0x1_6b08 = FlasherReport+0x2a8
16af4: 08278000                 ld	%r1,[%r15]
16af8: 406d8400                 add	%r3,%fp,%r2
16afc: 104183e0                 stb	%r1,[%r3,-32]
16b00: 41e7fe04                 add	%r15,%r15,4
16b04: 20000200                 b	0x1_6b18 = FlasherReport+0x2b8
16b08: 08070400                 ldb	%r0,[%r14]
16b0c: 406d8400                 add	%r3,%fp,%r2
16b10: 104181e0                 stb	%r0,[%r3,-32]
16b14: 41c77e01                 add	%r14,%r14,1
16b18: 40417e01                 add	%r2,%r2,1
16b1c: 57e17a10                 sub.f	0,%r2,16
16b20: 27fff90b                 blt	0x1_6aec = FlasherReport+0x28c
16b24: 50410400                 sub	%r2,%r2,%r2
16b28: 406d8400                 add	%r3,%fp,%r2
16b2c: 080185e0                 ldb	%r0,[%r3,-32]
16b30: 104181d0                 stb	%r0,[%r3,-48]
16b34: 57e07a20                 sub.f	0,%r0,32
16b38: 2000010b                 blt	0x1_6b44 = FlasherReport+0x2e4
16b3c: 57e07a7a                 sub.f	0,%r0,122
16b40: 2000010c                 ble	0x1_6b4c = FlasherReport+0x2ec
16b44: 603ffe2e                 mov	%r1,46
16b48: 104183d0                 stb	%r1,[%r3,-48]
16b4c: 40417e01                 add	%r2,%r2,1
16b50: 57e17a10                 sub.f	0,%r2,16
16b54: 27fffa0b                 blt	0x1_6b28 = FlasherReport+0x2c8
16b58: 20001b00                 b	0x1_6c34 = FlasherReport+0x3d4
16b5c: 080d81cc                 ld	%r0,[%fp,-52]
16b60: 57e07a02                 sub.f	0,%r0,2
16b64: 20001982                 bnz	0x1_6c34 = FlasherReport+0x3d4
16b68: 57e8fa00                 sub.f	0,%r17,0
16b6c: 20000101                 bz	0x1_6b78 = FlasherReport+0x318
16b70: 62079e00                 mov	%r16,%r15
16b74: 20000080                 b	0x1_6b7c = FlasherReport+0x31c
16b78: 62069a00                 mov	%r16,%r13
16b7c: 50410400                 sub	%r2,%r2,%r2
16b80: 57e8fa00                 sub.f	0,%r17,0
16b84: 20000301                 bz	0x1_6ba0 = FlasherReport+0x340
16b88: 08278000                 ld	%r1,[%r15]
16b8c: 40010400                 asl	%r0,%r2
16b90: 400d8000                 add	%r0,%fp,%r0
16b94: 108003f0                 stw	%r1,[%r0,-16]
16b98: 41e7fe04                 add	%r15,%r15,4
16b9c: 20000280                 b	0x1_6bb4 = FlasherReport+0x354
16ba0: 08268800                 ldw	%r1,[%r13]
16ba4: 40010400                 asl	%r0,%r2
16ba8: 400d8000                 add	%r0,%fp,%r0
16bac: 108003f0                 stw	%r1,[%r0,-16]
16bb0: 41a6fe02                 add	%r13,%r13,2
16bb4: 40417e01                 add	%r2,%r2,1
16bb8: 57e17a08                 sub.f	0,%r2,8
16bbc: 27fff80b                 blt	0x1_6b80 = FlasherReport+0x320
16bc0: 50410400                 sub	%r2,%r2,%r2
16bc4: 40010400                 asl	%r0,%r2
16bc8: 400d8000                 add	%r0,%fp,%r0
16bcc: 082009f0                 ldw	%r1,[%r0,-16]
16bd0: 104003e0                 stb	%r1,[%r0,-32]
16bd4: 6020fc00 0000ff00        and	%r1,%r1,0xff00		; 0xff00 = _doscan+0x5dc
16bdc: 9060fe08                 asr	%r3,%r1,8
16be0: 18818e00                 extb	%r4,%r3
16be4: 104007e1                 stb	%r3,[%r0,-31]
16be8: 082005e0                 ldb	%r1,[%r0,-32]
16bec: 104003d0                 stb	%r1,[%r0,-48]
16bf0: 104007d1                 stb	%r3,[%r0,-47]
16bf4: 082005d0                 ldb	%r1,[%r0,-48]
16bf8: 57e0fa20                 sub.f	0,%r1,32
16bfc: 2000010b                 blt	0x1_6c08 = FlasherReport+0x3a8
16c00: 57e0fa7a                 sub.f	0,%r1,122
16c04: 2000010c                 ble	0x1_6c10 = FlasherReport+0x3b0
16c08: 603ffe2e                 mov	%r1,46
16c0c: 104003d0                 stb	%r1,[%r0,-48]
16c10: 57e27a20                 sub.f	0,%r4,32
16c14: 2000010b                 blt	0x1_6c20 = FlasherReport+0x3c0
16c18: 57e27a7a                 sub.f	0,%r4,122
16c1c: 2000010c                 ble	0x1_6c28 = FlasherReport+0x3c8
16c20: 603ffe2e                 mov	%r1,46
16c24: 104003d1                 stb	%r1,[%r0,-47]
16c28: 40417e01                 add	%r2,%r2,1
16c2c: 57e17a08                 sub.f	0,%r2,8
16c30: 27fff20b                 blt	0x1_6bc4 = FlasherReport+0x364
16c34: 080d85e0                 ldb	%r0,[%fp,-32]
16c38: 100d81c4                 st	%r0,[%fp,-60]
16c3c: 080d85e1                 ldb	%r0,[%fp,-31]
16c40: 100d81c0                 st	%r0,[%fp,-64]
16c44: 080d85e2                 ldb	%r0,[%fp,-30]
16c48: 100d81bc                 st	%r0,[%fp,-68]
16c4c: 080d85e3                 ldb	%r0,[%fp,-29]
16c50: 100d81b8                 st	%r0,[%fp,-72]
16c54: 080d85e4                 ldb	%r0,[%fp,-28]
16c58: 100d81b4                 st	%r0,[%fp,-76]
16c5c: 080d85e5                 ldb	%r0,[%fp,-27]
16c60: 100d81b0                 st	%r0,[%fp,-80]
16c64: 0aad85e6                 ldb	%r21,[%fp,-26]
16c68: 0a8d85e7                 ldb	%r20,[%fp,-25]
16c6c: 0a6d85e8                 ldb	%r19,[%fp,-24]
16c70: 096d85e9                 ldb	%r11,[%fp,-23]
16c74: 094d85ea                 ldb	%r10,[%fp,-22]
16c78: 092d85eb                 ldb	%r9,[%fp,-21]
16c7c: 090d85ec                 ldb	%r8,[%fp,-20]
16c80: 086d85ed                 ldb	%r3,[%fp,-19]
16c84: 084d85ee                 ldb	%r2,[%fp,-18]
16c88: 080d85ef                 ldb	%r0,[%fp,-17]
16c8c: 082d85d0                 ldb	%r1,[%fp,-48]
16c90: 088d85d1                 ldb	%r4,[%fp,-47]
16c94: 08ad85d2                 ldb	%r5,[%fp,-46]
16c98: 08cd85d3                 ldb	%r6,[%fp,-45]
16c9c: 08ed85d4                 ldb	%r7,[%fp,-44]
16ca0: 0acd85d5                 ldb	%r22,[%fp,-43]
16ca4: 100dadac                 st	%r22,[%fp,-84]
16ca8: 0acd85d6                 ldb	%r22,[%fp,-42]
16cac: 100dada8                 st	%r22,[%fp,-88]
16cb0: 0acd85d7                 ldb	%r22,[%fp,-41]
16cb4: 100dada4                 st	%r22,[%fp,-92]
16cb8: 0acd85d8                 ldb	%r22,[%fp,-40]
16cbc: 100dada0                 st	%r22,[%fp,-96]
16cc0: 0acd85d9                 ldb	%r22,[%fp,-39]
16cc4: 100dad9c                 st	%r22,[%fp,-100]
16cc8: 0acd85da                 ldb	%r22,[%fp,-38]
16ccc: 100dad98                 st	%r22,[%fp,-104]
16cd0: 0acd85db                 ldb	%r22,[%fp,-37]
16cd4: 100dad94                 st	%r22,[%fp,-108]
16cd8: 0aed85dc                 ldb	%r23,[%fp,-36]
16cdc: 0b0d85dd                 ldb	%r24,[%fp,-35]
16ce0: 0b2d85de                 ldb	%r25,[%fp,-34]
16ce4: 0acd85df                 ldb	%r22,[%fp,-33]
16ce8: 100e2a10                 st	%r21,[%sp,16]
16cec: 100e2814                 st	%r20,[%sp,20]
16cf0: 100e2618                 st	%r19,[%sp,24]
16cf4: 100e161c                 st	%r11,[%sp,28]
16cf8: 100e1420                 st	%r10,[%sp,32]
16cfc: 100e1224                 st	%r9,[%sp,36]
16d00: 100e1028                 st	%r8,[%sp,40]
16d04: 100e062c                 st	%r3,[%sp,44]
16d08: 100e0430                 st	%r2,[%sp,48]
16d0c: 100e0034                 st	%r0,[%sp,52]
16d10: 100e0238                 st	%r1,[%sp,56]
16d14: 100e083c                 st	%r4,[%sp,60]
16d18: 100e0a40                 st	%r5,[%sp,64]
16d1c: 100e0c44                 st	%r6,[%sp,68]
16d20: 100e0e48                 st	%r7,[%sp,72]
16d24: 080d81ac                 ld	%r0,[%fp,-84]
16d28: 100e004c                 st	%r0,[%sp,76]
16d2c: 080d81a8                 ld	%r0,[%fp,-88]
16d30: 100e0050                 st	%r0,[%sp,80]
16d34: 080d81a4                 ld	%r0,[%fp,-92]
16d38: 100e0054                 st	%r0,[%sp,84]
16d3c: 080d81a0                 ld	%r0,[%fp,-96]
16d40: 100e0058                 st	%r0,[%sp,88]
16d44: 080d819c                 ld	%r0,[%fp,-100]
16d48: 100e005c                 st	%r0,[%sp,92]
16d4c: 080d8198                 ld	%r0,[%fp,-104]
16d50: 100e0060                 st	%r0,[%sp,96]
16d54: 080d8194                 ld	%r0,[%fp,-108]
16d58: 100e0064                 st	%r0,[%sp,100]
16d5c: 100e2e68                 st	%r23,[%sp,104]
16d60: 100e306c                 st	%r24,[%sp,108]
16d64: 100e3270                 st	%r25,[%sp,112]
16d68: 100e2c74                 st	%r22,[%sp,116]
16d6c: 080d8190                 ld	%r0,[%fp,-112]
16d70: 60282000                 mov	%r1,%r16
16d74: 084d81c4                 ld	%r2,[%fp,-60]
16d78: 086d81c0                 ld	%r3,[%fp,-64]
16d7c: 088d81bc                 ld	%r4,[%fp,-68]
16d80: 08ad81b8                 ld	%r5,[%fp,-72]
16d84: 08cd81b4                 ld	%r6,[%fp,-76]
16d88: 08ed81b0                 ld	%r7,[%fp,-80]
16d8c: 2ffdd380                 bl	FlasherPrintf
16d90: 42497e01                 add	%r18,%r18,1
16d94: 080d81c8                 ld	%r0,[%fp,-56]
16d98: 57e90100                 sub.f	0,%r18,%r0
16d9c: 27ffa085                 bc	0x1_6aa4 = FlasherReport+0x244
16da0: 603f7c00 000183cc        mov	%r1,0x1_83cc		; 0x1_83cc = FLASHER_cvs_version+0xc08
16da8: 4000fffc                 add	%r0,%r1,-4
16dac: 2ffdcf80                 bl	FlasherPrintf
16db0: 09ae0078                 ld	%r13,[%sp,120]
16db4: 09ce007c                 ld	%r14,[%sp,124]
16db8: 09ee0080                 ld	%r15,[%sp,128]
16dbc: 0a0e0084                 ld	%r16,[%sp,132]
16dc0: 0a2e0088                 ld	%r17,[%sp,136]
16dc4: 0a4e008c                 ld	%r18,[%sp,140]
16dc8: 0a6e0090                 ld	%r19,[%sp,144]
16dcc: 0a8e0094                 ld	%r20,[%sp,148]
16dd0: 0aae0098                 ld	%r21,[%sp,152]
16dd4: 0ace009c                 ld	%r22,[%sp,156]
16dd8: 0aee00a0                 ld	%r23,[%sp,160]
16ddc: 0b0e00a4                 ld	%r24,[%sp,164]
16de0: 0b2e00a8                 ld	%r25,[%sp,168]
16de4: 0bed8004                 ld	%blink,[%fp,4]
16de8: 036e7c08 0000011c        ld.a	%fp,[%sp,0x11c]		; 0x11c = FEXP_MAX+0x1d
16df0: 380f8000                 j	[%blink]
VersionGetDate:
16df4: 57e07a00                 sub.f	0,%r0,0
16df8: 607f7c00 00017828        mov	%r3,0x1_7828		; 0x1_7828 = FLASHER_cvs_version+0x64
16e00: 20000082                 bnz	0x1_6e08 = VersionGetDate+0x14
16e04: 08018100                 ld	%r0,[%r3,-256]
16e08: 50208200                 sub	%r1,%r1,%r1
16e0c: 08400400                 ldb	%r2,[%r0]
16e10: 57e17a00                 sub.f	0,%r2,0
16e14: 20000501                 bz	0x1_6e40 = VersionGetDate+0x4c
16e18: 57e17a20                 sub.f	0,%r2,32
16e1c: 20000102                 bnz	0x1_6e28 = VersionGetDate+0x34
16e20: 4020fe01                 add	%r1,%r1,1
16e24: 18208c00                 sexw	%r1,%r1
16e28: 40007e01                 add	%r0,%r0,1
16e2c: 08400400                 ldb	%r2,[%r0]
16e30: 57e17a00                 sub.f	0,%r2,0
16e34: 20000101                 bz	0x1_6e40 = VersionGetDate+0x4c
16e38: 57e0fa03                 sub.f	0,%r1,3
16e3c: 27fffb0b                 blt	0x1_6e18 = VersionGetDate+0x24
16e40: 08400405                 ldb	%r2,[%r0,5]
16e44: 80217e02                 asl	%r1,%r2,2
16e48: 40208400                 add	%r1,%r1,%r2
16e4c: 40208200                 asl	%r1,%r1
16e50: 5040fc00 000001e0        sub	%r2,%r1,0x1e0		; 0x1e0 = FEXP_MAX+0xe1
16e58: 08200406                 ldb	%r1,[%r0,6]
16e5c: 5020fe30                 sub	%r1,%r1,48
16e60: 40208400                 add	%r1,%r1,%r2
16e64: 18208c00                 sexw	%r1,%r1
16e68: 8040fe02                 asl	%r2,%r1,2
16e6c: 4021ff00                 add	%r1,%r3,-256
16e70: 40208400                 add	%r1,%r1,%r2
16e74: 08608000                 ld	%r3,[%r1]
16e78: 08218400                 ldb	%r1,[%r3]
16e7c: 605f7c00 000191a4        mov	%r2,0x1_91a4		; 0x1_91a4 = handles+0x60
16e84: 10410310                 stb	%r1,[%r2,-240]
16e88: 08218401                 ldb	%r1,[%r3,1]
16e8c: 10410311                 stb	%r1,[%r2,-239]
16e90: 08218402                 ldb	%r1,[%r3,2]
16e94: 10410312                 stb	%r1,[%r2,-238]
16e98: 607ffe20                 mov	%r3,32
16e9c: 10410713                 stb	%r3,[%r2,-237]
16ea0: 08200408                 ldb	%r1,[%r0,8]
16ea4: 10410314                 stb	%r1,[%r2,-236]
16ea8: 08200409                 ldb	%r1,[%r0,9]
16eac: 10410315                 stb	%r1,[%r2,-235]
16eb0: 603ffe2c                 mov	%r1,44
16eb4: 10410316                 stb	%r1,[%r2,-234]
16eb8: 10410717                 stb	%r3,[%r2,-233]
16ebc: 08200400                 ldb	%r1,[%r0]
16ec0: 10410318                 stb	%r1,[%r2,-232]
16ec4: 08200401                 ldb	%r1,[%r0,1]
16ec8: 10410319                 stb	%r1,[%r2,-231]
16ecc: 08200402                 ldb	%r1,[%r0,2]
16ed0: 1041031a                 stb	%r1,[%r2,-230]
16ed4: 08000403                 ldb	%r0,[%r0,3]
16ed8: 1041011b                 stb	%r0,[%r2,-229]
16edc: 50000000                 sub	%r0,%r0,%r0
16ee0: 1041011c                 stb	%r0,[%r2,-228]
16ee4: 40017f10                 add	%r0,%r2,-240
16ee8: 380f8000                 j	[%blink]
VersionGetNumber:
16eec: 50410400                 sub	%r2,%r2,%r2
16ef0: 57e07a00                 sub.f	0,%r0,0
16ef4: 20000182                 bnz	0x1_6f04 = VersionGetNumber+0x18
16ef8: 601f7c00 00017828        mov	%r0,0x1_7828		; 0x1_7828 = FLASHER_cvs_version+0x64
16f00: 08000100                 ld	%r0,[%r0,-256]
16f04: 50208200                 sub	%r1,%r1,%r1
16f08: 08600400                 ldb	%r3,[%r0]
16f0c: 57e1fa00                 sub.f	0,%r3,0
16f10: 20000501                 bz	0x1_6f3c = VersionGetNumber+0x50
16f14: 57e1fa20                 sub.f	0,%r3,32
16f18: 20000102                 bnz	0x1_6f24 = VersionGetNumber+0x38
16f1c: 4020fe01                 add	%r1,%r1,1
16f20: 18208c00                 sexw	%r1,%r1
16f24: 40007e01                 add	%r0,%r0,1
16f28: 08600400                 ldb	%r3,[%r0]
16f2c: 57e1fa00                 sub.f	0,%r3,0
16f30: 20000101                 bz	0x1_6f3c = VersionGetNumber+0x50
16f34: 57e0fa02                 sub.f	0,%r1,2
16f38: 27fffb0b                 blt	0x1_6f14 = VersionGetNumber+0x28
16f3c: 57e1fa00                 sub.f	0,%r3,0
16f40: 20000101                 bz	0x1_6f4c = VersionGetNumber+0x60
16f44: 57e1fa20                 sub.f	0,%r3,32
16f48: 20000182                 bnz	0x1_6f58 = VersionGetNumber+0x6c
16f4c: 603f7c00 000190a4        mov	%r1,0x1_90a4		; _fbss
16f54: 20000600                 b	0x1_6f88 = VersionGetNumber+0x9c
16f58: 603f7c00 000190a4        mov	%r1,0x1_90a4		; _fbss
16f60: 41808400                 add	%r12,%r1,%r2
16f64: 10460600                 stb	%r3,[%r12]
16f68: 40007e01                 add	%r0,%r0,1
16f6c: 40417e01                 add	%r2,%r2,1
16f70: 18410c00                 sexw	%r2,%r2
16f74: 08600400                 ldb	%r3,[%r0]
16f78: 57e1fa00                 sub.f	0,%r3,0
16f7c: 20000101                 bz	0x1_6f88 = VersionGetNumber+0x9c
16f80: 57e1fa20                 sub.f	0,%r3,32
16f84: 27fffb02                 bnz	0x1_6f60 = VersionGetNumber+0x74
16f88: 50000000                 sub	%r0,%r0,%r0
16f8c: 40408400                 add	%r2,%r1,%r2
16f90: 10410000                 stb	%r0,[%r2]
16f94: 60008200                 mov	%r0,%r1
16f98: 380f8000                 j	[%blink]
main:
16f9c: 100e3e04                 st	%blink,[%sp,4]
16fa0: 100e3600                 st	%fp,[%sp]
16fa4: 636e3800                 mov	%fp,%sp
16fa8: 538e7e30                 sub	%sp,%sp,48
16fac: 100e1a10                 st	%r13,[%sp,16]
16fb0: 100e1c14                 st	%r14,[%sp,20]
16fb4: 100e1e18                 st	%r15,[%sp,24]
16fb8: 100e201c                 st	%r16,[%sp,28]
16fbc: 100e2220                 st	%r17,[%sp,32]
16fc0: 100e2424                 st	%r18,[%sp,36]
16fc4: 100e2628                 st	%r19,[%sp,40]
16fc8: 100e282c                 st	%r20,[%sp,44]
16fcc: 603f7c00 00008000        mov	%r1,0x8000		; _start
16fd4: 0a40c1fc                 ld.di	%r18,[%r1,-4]
16fd8: 0a20c1f8                 ld.di	%r17,[%r1,-8]
16fdc: 09a0c1f4                 ld.di	%r13,[%r1,-12]
16fe0: 09e0c1f0                 ld.di	%r15,[%r1,-16]
16fe4: 0a00c1ec                 ld.di	%r16,[%r1,-20]
16fe8: 0a60c1e8                 ld.di	%r19,[%r1,-24]
16fec: 09c0c1e4                 ld.di	%r14,[%r1,-28]
16ff0: 0800c1e0                 ld.di	%r0,[%r1,-32]
16ff4: 0820c1dc                 ld.di	%r1,[%r1,-36]
16ff8: 2ffd6300                 bl	FlasherInit
16ffc: 629f7c00 00017828        mov	%r20,0x1_7828		; 0x1_7828 = FLASHER_cvs_version+0x64
17004: 400a7fd8                 add	%r0,%r20,-40
17008: 2ffd8400                 bl	FlasherPrintf
1700c: 400a7ff4                 add	%r0,%r20,-12
17010: 2ffd8300                 bl	FlasherPrintf
17014: 088a019c                 ld	%r4,[%r20,-100]
17018: 60020800                 mov	%r0,%r4
1701c: 2fffd980                 bl	VersionGetNumber
17020: 60a00000                 mov	%r5,%r0
17024: 60020800                 mov	%r0,%r4
17028: 2fffb900                 bl	VersionGetDate
1702c: 60800000                 mov	%r4,%r0
17030: 400a7e30                 add	%r0,%r20,48
17034: 402a7e44                 add	%r1,%r20,68
17038: 406a7e54                 add	%r3,%r20,84
1703c: 60428a00                 mov	%r2,%r5
17040: 2ffd7d00                 bl	FlasherPrintf
17044: 400a7e58                 add	%r0,%r20,88
17048: 402a7e5c                 add	%r1,%r20,92
1704c: 2ffd7b80                 bl	FlasherPrintf
17050: 400a7e7c                 add	%r0,%r20,124
17054: 2ffd7a80                 bl	FlasherPrintf
17058: 400a7eb8                 add	%r0,%r20,184
1705c: 2ffd7980                 bl	FlasherPrintf
17060: 57e77a01                 sub.f	0,%r14,1
17064: 20000402                 bnz	0x1_7088 = main+0xec
17068: 8028fe02                 asl	%r1,%r17,2
1706c: 60092400                 mov	%r0,%r18
17070: 60469a00                 mov	%r2,%r13
17074: 60679e00                 mov	%r3,%r15
17078: 60882000                 mov	%r4,%r16
1707c: 60a9a600                 mov	%r5,%r19
17080: 2ffe4300                 bl	FlasherProgram8
17084: 20000600                 b	0x1_70b8 = main+0x11c
17088: 57e77a02                 sub.f	0,%r14,2
1708c: 20000402                 bnz	0x1_70b0 = main+0x114
17090: 4028a200                 asl	%r1,%r17
17094: 60092400                 mov	%r0,%r18
17098: 60469a00                 mov	%r2,%r13
1709c: 60679e00                 mov	%r3,%r15
170a0: 60882000                 mov	%r4,%r16
170a4: 60a9a600                 mov	%r5,%r19
170a8: 2ffd7e80                 bl	FlasherProgram16
170ac: 20000100                 b	0x1_70b8 = main+0x11c
170b0: 400a7ef4                 add	%r0,%r20,244
170b4: 2ffd6e80                 bl	FlasherPrintf
170b8: 57e87a00                 sub.f	0,%r16,0
170bc: 20000301                 bz	0x1_70d8 = main+0x13c
170c0: 60069a00                 mov	%r0,%r13
170c4: 60279e00                 mov	%r1,%r15
170c8: 405ffe80                 asl	%r2,128
170cc: 60671c00                 mov	%r3,%r14
170d0: 6089a600                 mov	%r4,%r19
170d4: 2ffef100                 bl	FlasherReport
170d8: 61bf7c00 00017a28        mov	%r13,0x1_7a28		; 0x1_7a28 = FLASHER_cvs_version+0x264
170e0: 4006ff28                 add	%r0,%r13,-216
170e4: 2ffd6880                 bl	FlasherPrintf
170e8: 4006ff2c                 add	%r0,%r13,-212
170ec: 2ffd6780                 bl	FlasherPrintf
170f0: 2fe1ee00                 bl	_exit_halt
170f4: 09ae0010                 ld	%r13,[%sp,16]
170f8: 09ce0014                 ld	%r14,[%sp,20]
170fc: 09ee0018                 ld	%r15,[%sp,24]
17100: 0a0e001c                 ld	%r16,[%sp,28]
17104: 0a2e0020                 ld	%r17,[%sp,32]
17108: 0a4e0024                 ld	%r18,[%sp,36]
1710c: 0a6e0028                 ld	%r19,[%sp,40]
17110: 0a8e002c                 ld	%r20,[%sp,44]
17114: 0bed8004                 ld	%blink,[%fp,4]
17118: 380f8020                 j.d	[%blink]
1711c: 0b6e1030                 ld.a	%fp,[%sp,48]
Content of section .rodata (#5) size=0x606 start=0xf194
BaudRateTable:
 17120:   6E 00 00 00 EB 3B 00 00   0A 00 00 00 01 00 00 00  'n....;..........'
 17130:   2C 01 00 00 F8 15 00 00   00 00 00 00 01 00 00 00  ',...............'
 17140:   B0 04 00 00 7D 05 00 00   01 00 00 00 03 00 00 00  '....}...........'
 17150:   60 09 00 00 BE 02 00 00   01 00 00 00 07 00 00 00  '`...............'
 17160:   C0 12 00 00 5E 01 00 00   09 00 00 00 07 00 00 00  '....^...........'
 17170:   80 25 00 00 AE 00 00 00   19 00 00 00 07 00 00 00  '.%..............'
 17180:   00 4B 00 00 56 00 00 00   39 00 00 00 07 00 00 00  '.K..V...9.......'
 17190:   00 96 00 00 2A 00 00 00   79 00 00 00 07 00 00 00  '....*...y.......'
 171A0:   00 E1 00 00 1C 00 00 00   13 00 00 00 2D 00 00 00  '............-...'
 171B0:   00 C2 01 00 0D 00 00 00   53 00 00 00 2D 00 00 00  '........S...-...'
 171C0:   00 84 03 00 06 00 00 00   53 00 00 00 AD 00 00 00  '........S.......'
 171D0:   00 08 07 00 02 00 00 00   53 01 00 00 AD 00 00 00  '........S.......'
 171E0:   00 10 0E 00 00 00 00 00   AA 01 00 00 57 00 00 00  '............W...'
 171F0:   00 00 00 00                                        '....'
__ctype:
 171F4:               00 20 20 20   20 20 20 20 20 20 28 28      '.         (('
 17200:   28 28 28 20 20 20 20 20   20 20 20 20 20 20 20 20  '(((             '
 17210:   20 20 20 20 20 48 10 10   10 10 10 10 10 10 10 10  '     H..........'
 17220:   10 10 10 10 10 84 84 84   84 84 84 84 84 84 84 10  '................'
 17230:   10 10 10 10 10 10 81 81   81 81 81 81 01 01 01 01  '................'
 17240:   01 01 01 01 01 01 01 01   01 01 01 01 01 01 01 01  '................'
 17250:   10 10 10 10 10 10 82 82   82 82 82 82 02 02 02 02  '................'
 17260:   02 02 02 02 02 02 02 02   02 02 02 02 02 02 02 02  '................'
 17270:   10 10 10 10 20 00 00 00   00 00 00 00 00 00 00 00  '.... ...........'
 17280:   00 00 00 00 00 00 00 00   00 00 00 00 00 00 00 00  '................'
 17290:   00 00 00 00 00 00 00 00   00 00 00 00 00 00 00 00  '................'
 172A0:   00 00 00 00 00 00 00 00   00 00 00 00 00 00 00 00  '................'
 172B0:   00 00 00 00 00 00 00 00   00 00 00 00 00 00 00 00  '................'
 172C0:   00 00 00 00 00 00 00 00   00 00 00 00 00 00 00 00  '................'
 172D0:   00 00 00 00 00 00 00 00   00 00 00 00 00 00 00 00  '................'
 172E0:   00 00 00 00 00 00 00 00   00 00 00 00 00 00 00 00  '................'
 172F0:   00 00 00 00 00 00 00 00   00 00 00 00 00 00 00 00  '................'
 17300:   00 00 00 00 00 00 00 00   00 00 00 00 00 00 00 00  '................'
 17310:   00 00 00 00 00 00 00 00   00 00 00 00 00 00 00 00  '................'
 17320:   00 00 00 00 00 00 00 00   00 00 00 00 00 00 00 00  '................'
 17330:   00 00 00 00 00 00 00 00   00 00 00 00 00 00 00 00  '................'
 17340:   00 00 00 00 00 00 00 00   00 00 00 00 00 00 00 00  '................'
 17350:   00 00 00 00 00 00 00 00   00 00 00 00 00 00 00 00  '................'
 17360:   00 00 00 00 00 00 00 00   00 00 00 00 00 00 00 00  '................'
 17370:   00 00 00 00 00 00 00 00   00 00 00 00 00 00 00 00  '................'
 17380:   00 00 00 00 00 00 00 00   00 00 00 00 00 00 00 00  '................'
 17390:   00 00 00 00 00 00 00 00   00 00 00 00 00 00 00 00  '................'
 173A0:   00 00 00 00 00 00 00 00   00 00 00 00 00 00 00 00  '................'
 173B0:   00 00 00 00 00 00 00 00   00 00 00 00 00 00 00 00  '................'
 173C0:   00 00 00 00 00 00 00 00   00 00 00 00 00 00 00 00  '................'
 173D0:   00 00 00 00 00 00 00 00   00 00 00 00 00 00 00 00  '................'
 173E0:   00 00 00 00 00 00 00 00   00 00 00 00 00 00 00 00  '................'
 173F0:   00 00 00 00 00 00 00 00   00 00 00 00 00 00 00 00  '................'
 17400:   2A 2A 2A 66 72 65 65 28   30 78 25 6C 78 29 3A 20  '***free(0x%lx): '
 17410:   25 73 0A 41 62 6F 72 74   69 6E 67 2E 2E 2E 0A 00  '%s.Aborting.....'
 17420:   28 30 78 25 6C 78 20 3C   2D 2D 20 00 70 73 3D 25  '(0x%lx <-- .ps=%'
 17430:   64 2C 00 30 78 25 6C 78   2C 73 7A 3D 25 64 00 20  'd,.0x%lx,sz=%d. '
 17440:   2D 2D 3E 20 30 78 25 6C   78 00 5B 30 78 25 6C 78  '--> 0x%lx.[0x%lx'
 17450:   20 3C 2D 2D 20 30 78 25   6C 78 2C 73 7A 3D 25 64  ' <-- 0x%lx,sz=%d'
 17460:   28 30 78 25 78 29 20 2D   2D 3E 20 30 78 25 6C 78  '(0x%x) --> 0x%lx'
 17470:   2C 6C 69 70 3D 30 78 25   6C 78 3B 00 20 61 64 72  ',lip=0x%lx;. adr'
 17480:   3D 30 78 25 6C 78 20 3C   2D 2D 20 73 7A 3D 30 78  '=0x%lx <-- sz=0x'
 17490:   25 6C 78 20 2D 2D 3E 20   30 78 25 6C 78 2C 6C 69  '%lx --> 0x%lx,li'
 174A0:   70 3D 30 78 25 6C 78 5D   00 49 74 65 6D 20 00 44  'p=0x%lx].Item .D'
 174B0:   75 6D 70 20 6F 66 20 68   65 61 70 3A 0A 0A 00 0A  'ump of heap:....'
 174C0:   54 68 65 20 66 6F 6C 6C   6F 77 69 6E 67 20 66 72  'The following fr'
 174D0:   65 65 20 63 68 61 69 6E   73 20 61 72 65 20 65 6D  'ee chains are em'
 174E0:   70 74 79 3A 0A 00 25 64   20 00 0A 00 0A 43 6F 6E  'pty:..%d ....Con'
 174F0:   74 65 6E 74 73 20 6F 66   20 66 72 65 65 20 63 68  'tents of free ch'
 17500:   61 69 6E 20 23 25 64 3A   0A 00 09 00 2A 2A 2A 45  'ain #%d:....***E'
 17510:   6E 76 69 72 6F 6E 6D 65   6E 74 20 68 6F 70 65 6C  'nvironment hopel'
 17520:   65 73 73 6C 79 20 63 6F   72 72 75 70 74 65 64 2E  'essly corrupted.'
 17530:   20 42 79 65 20 42 79 65   2E 2E 2E 0A 00 48 65 61  ' Bye Bye.....Hea'
 17540:   70 20 63 6F 72 72 75 70   74 69 6F 6E 3A 20 25 73  'p corruption: %s'
 17550:   0A 09 69 74 65 6D 3D 00   20 69 6E 20 73 65 67 6D  '..item=. in segm'
 17560:   65 6E 74 20 00 44 69 73   70 6C 61 79 69 6E 67 20  'ent .Displaying '
 17570:   68 65 61 70 20 6F 6E 20   73 74 61 6E 64 61 72 64  'heap on standard'
 17580:   20 6F 75 74 70 75 74 2E   0A 00 46 72 65 65 20 63  ' output...Free c'
 17590:   68 61 69 6E 20 62 72 6F   6B 65 6E 00 49 74 65 6D  'hain broken.Item'
 175A0:   20 6F 6E 20 66 72 65 65   20 63 68 61 69 6E 20 6E  ' on free chain n'
 175B0:   6F 74 20 66 72 65 65 00   50 72 65 76 20 6F 66 20  'ot free.Prev of '
 175C0:   6E 65 78 74 20 6E 6F 74   20 63 6F 6E 73 69 73 74  'next not consist'
 175D0:   65 6E 74 00 5F 63 68 65   63 6B 5F 68 65 61 70 3A  'ent._check_heap:'
 175E0:   20 66 72 65 65 20 69 74   65 6D 20 30 78 25 78 20  ' free item 0x%x '
 175F0:   6E 6F 74 20 69 6E 20 68   65 61 70 2E 0A 00 42 61  'not in heap...Ba'
 17600:   64 20 66 6F 72 77 61 72   64 20 6C 69 6E 6B 00 42  'd forward link.B'
 17610:   61 64 20 62 61 63 6B 77   61 72 64 20 6C 69 6E 6B  'ad backward link'
 17620:   00 66 72 65 65 28 25 78   29 3A 20 63 6F 75 6C 64  '.free(%x): could'
 17630:   6E 27 74 20 66 69 6E 64   20 69 74 65 6D 20 69 6E  'n't find item in'
 17640:   20 68 65 61 70 2E 0A 00   50 6F 69 6E 74 65 72 20  ' heap...Pointer '
 17650:   61 6C 72 65 61 64 79 20   66 72 65 65 00 4D 41 4C  'already free.MAL'
 17660:   4C 4F 43 5F 4C 45 56 45   4C 00 66 69 6E 64 5F 68  'LOC_LEVEL.find_h'
 17670:   65 61 70 5F 69 74 65 6D   3A 20 63 6F 75 6C 64 6E  'eap_item: couldn'
 17680:   27 74 20 66 69 6E 64 20   74 68 69 73 20 65 6C 65  ''t find this ele'
 17690:   6D 65 6E 74 21 20 25 78   0A 00 69 74 65 6D 20 6F  'ment! %x..item o'
 176A0:   75 74 73 69 64 65 20 73   65 67 6D 65 6E 74 00 73  'utside segment.s'
 176B0:   69 7A 65 20 6F 66 20 69   74 65 6D 20 69 73 20 67  'ize of item is g'
 176C0:   61 72 62 61 67 65 00 49   74 65 6D 20 73 69 7A 65  'arbage.Item size'
 176D0:   20 62 61 64 00 70 72 65   76 20 6F 66 20 6E 65 78  ' bad.prev of nex'
 176E0:   74 20 69 73 20 62 61 64   00 43 6F 6E 74 65 6E 74  't is bad.Content'
 176F0:   73 20 6F 66 20 73 65 67   6D 65 6E 74 20 00 53 65  's of segment .Se'
 17700:   67 6D 65 6E 74 20 6C 69   6E 6B 73 20 62 61 64 00  'gment links bad.'
 17710:   28 6E 75 6C 6C 29 00 00   6F 75 74 00 77 00 00 00  '(null)..out.w...'
 17720:   69 6E 00 00 72 00                                  'in..r.'
Content of section .data (#7) size=0x1977 start=0xf79a
__version_string:
 17728:                             5C 77 01 00                      '\w..'
__version_months:
 1772C:                                         94 77 01 00              '.w..'
 17730:   98 77 01 00 9C 77 01 00   A0 77 01 00 A4 77 01 00  '.w...w...w...w..'
 17740:   A8 77 01 00 AC 77 01 00   B0 77 01 00 B4 77 01 00  '.w...w...w...w..'
 17750:   B8 77 01 00 BC 77 01 00   C0 77 01 00 24 49 64 3A  '.w...w...w..$Id:'
 17760:   20 76 65 72 73 69 6F 6E   2E 68 2C 76 20 31 2E 33  ' version.h,v 1.3'
 17770:   20 32 30 30 35 2F 31 32   2F 30 37 20 31 30 3A 31  ' 2005/12/07 10:1'
 17780:   37 3A 31 38 20 77 6C 61   72 69 73 20 45 78 70 20  '7:18 wlaris Exp '
 17790:   24 00 00 00 4A 61 6E 00   46 65 62 00 4D 61 72 00  '$...Jan.Feb.Mar.'
 177A0:   41 70 72 00 4D 61 79 00   4A 75 6E 00 4A 75 6C 00  'Apr.May.Jun.Jul.'
 177B0:   41 75 67 00 53 65 70 00   4F 63 74 00 4E 6F 76 00  'Aug.Sep.Oct.Nov.'
 177C0:   44 65 63 00                                        'Dec.'
FLASHER_cvs_version:
 177C4:               C8 77 01 00   24 49 64 3A 20 66 6C 61      '.w..$Id: fla'
 177D0:   73 68 65 72 2E 63 2C 76   20 31 2E 31 32 20 32 30  'sher.c,v 1.12 20'
 177E0:   30 37 2F 30 31 2F 31 31   20 31 35 3A 35 30 3A 34  '07/01/11 15:50:4'
 177F0:   39 20 77 6C 61 72 69 73   20 45 78 70 20 24 00 00  '9 wlaris Exp $..'
 17800:   20 20 20 20 20 20 20 20   20 20 20 20 20 20 20 20  '                '
 17810:   20 20 20 20 20 20 20 20   0A 00 00 00 3D 3D 3D 3D  '        ....===='
 17820:   3D 3D 3D 3D 3D 3D 3D 3D   3D 3D 3D 3D 3D 3D 3D 3D  '================'
 17830:   3D 3D 3D 3D 3D 3D 3D 3D   3D 3D 3D 3D 3D 3D 3D 3D  '================'
 17840:   3D 3D 3D 3D 3D 3D 3D 3D   3D 3D 3D 3D 3D 3D 3D 3D  '================'
 17850:   3D 3D 3D 3D 3D 3D 0A 00   25 73 20 76 25 73 20 28  '======..%s v%s ('
 17860:   25 73 29 20 2D 20 25 73   0A 00 00 00 66 6C 61 73  '%s) - %s....flas'
 17870:   68 65 72 5F 45 2E 6F 75   74 00 00 00 57 4C 00 00  'her_E.out...WL..'
 17880:   25 73 0A 00 55 6E 69 76   65 72 73 61 6C 20 46 6C  '%s..Universal Fl'
 17890:   61 73 68 65 72 20 41 70   70 6C 69 63 61 74 69 6F  'asher Applicatio'
 178A0:   6E 00 00 00 28 43 29 20   43 6F 70 79 72 69 67 68  'n...(C) Copyrigh'
 178B0:   74 20 32 30 30 35 20 62   79 20 46 75 6A 69 74 73  't 2005 by Fujits'
 178C0:   75 20 4D 69 63 72 6F 65   6C 65 63 74 72 6F 6E 69  'u Microelectroni'
 178D0:   63 73 20 45 75 72 6F 70   65 20 47 6D 62 48 0A 00  'cs Europe GmbH..'
 178E0:   3D 3D 3D 3D 3D 3D 3D 3D   3D 3D 3D 3D 3D 3D 3D 3D  '================'
 178F0:   3D 3D 3D 3D 3D 3D 3D 3D   3D 3D 3D 3D 3D 3D 3D 3D  '================'
 17900:   3D 3D 3D 3D 3D 3D 3D 3D   3D 3D 3D 3D 3D 3D 3D 3D  '================'
 17910:   3D 3D 3D 3D 3D 3D 3D 3D   3D 3D 0A 00 0A 45 52 52  '==========...ERR'
 17920:   4F 52 3A 20 66 6C 61 73   68 20 77 6F 72 64 20 73  'OR: flash word s'
 17930:   69 7A 65 20 25 64 20 69   73 20 6F 75 74 20 6F 66  'ize %d is out of'
 17940:   20 72 61 6E 67 65 20 5B   31 2C 32 5D 0A 00 00 00  ' range [1,2]....'
 17950:   0A 00 00 00 41 52 43 20   68 61 6C 74 65 64 2E 0A  '....ARC halted..'
 17960:   00 00 00 00 0A 00 00 00   53 44 52 41 4D 20 73 6F  '........SDRAM so'
 17970:   75 72 63 65 20 64 61 74   61 20 61 64 64 72 65 73  'urce data addres'
 17980:   73 2E 2E 2E 2E 2E 2E 3A   20 30 78 25 30 38 58 0A  's......: 0x%08X.'
 17990:   00 00 00 00 46 4C 41 53   48 20 74 61 72 67 65 74  '....FLASH target'
 179A0:   20 64 61 74 61 20 61 64   64 72 65 73 73 2E 2E 2E  ' data address...'
 179B0:   2E 2E 2E 3A 20 30 78 25   30 38 58 0A 00 00 00 00  '...: 0x%08X.....'
 179C0:   46 4C 41 53 48 20 61 64   64 72 65 73 73 20 6F 66  'FLASH address of'
 179D0:   66 73 65 74 2E 2E 2E 2E   2E 2E 2E 2E 2E 2E 2E 3A  'fset...........:'
 179E0:   20 30 78 25 30 38 58 20   62 79 74 65 73 0A 00 00  ' 0x%08X bytes...'
 179F0:   46 4C 41 53 48 20 6D 61   6E 75 66 61 63 74 6F 72  'FLASH manufactor'
 17A00:   20 69 64 2E 2E 2E 2E 2E   2E 2E 2E 2E 2E 2E 2E 3A  ' id............:'
 17A10:   20 30 78 25 30 34 58 0A   00 00 00 00 46 4C 41 53  ' 0x%04X.....FLAS'
 17A20:   48 20 64 65 76 69 64 65   20 69 64 2E 2E 2E 2E 2E  'H devide id.....'
 17A30:   2E 2E 2E 2E 2E 2E 2E 2E   2E 2E 2E 3A 20 30 78 25  '...........: 0x%'
 17A40:   30 34 58 0A 00 00 00 00   4E 75 6D 62 65 72 20 6F  '04X.....Number o'
 17A50:   66 20 62 79 74 65 73 20   74 6F 20 66 6C 61 73 68  'f bytes to flash'
 17A60:   2E 2E 2E 2E 2E 2E 2E 3A   20 25 64 0A 00 00 00 00  '.......: %d.....'
 17A70:   56 65 72 62 6F 73 65 20   6D 6F 64 65 2E 2E 2E 2E  'Verbose mode....'
 17A80:   2E 2E 2E 2E 2E 2E 2E 2E   2E 2E 2E 2E 2E 2E 2E 3A  '...............:'
 17A90:   20 25 73 0A 00 00 00 00   6F 6E 00 00 6F 66 66 00  ' %s.....on..off.'
 17AA0:   46 4C 41 53 48 20 61 64   64 72 65 73 73 20 67 61  'FLASH address ga'
 17AB0:   70 20 6D 6F 64 65 2E 2E   2E 2E 2E 2E 2E 2E 2E 3A  'p mode.........:'
 17AC0:   20 25 73 0A 00 00 00 00   6F 6E 00 00 6F 66 66 00  ' %s.....on..off.'
 17AD0:   46 4C 41 53 48 20 64 61   74 61 20 77 6F 72 64 20  'FLASH data word '
 17AE0:   73 69 7A 65 2E 2E 2E 2E   2E 2E 2E 2E 2E 2E 2E 3A  'size...........:'
 17AF0:   20 25 64 20 62 79 74 65   73 0A 00 00 46 4C 41 53  ' %d bytes...FLAS'
 17B00:   48 20 61 64 64 72 65 73   73 20 63 6F 75 6E 74 65  'H address counte'
 17B10:   72 20 6F 66 66 73 65 74   2E 2E 2E 3A 20 25 64 0A  'r offset...: %d.'
 17B20:   00 00 00 00 4D 61 67 69   63 20 49 44 2E 2E 2E 2E  '....Magic ID....'
 17B30:   2E 2E 2E 2E 2E 2E 2E 2E   2E 2E 2E 2E 2E 2E 2E 2E  '................'
 17B40:   2E 2E 2E 3A 20 30 78 25   30 38 58 0A 00 00 00 00  '...: 0x%08X.....'
 17B50:   41 70 70 6C 69 63 61 74   69 6F 6E 20 69 6D 61 67  'Application imag'
 17B60:   65 20 73 69 7A 65 2E 2E   2E 2E 2E 2E 2E 2E 2E 3A  'e size.........:'
 17B70:   20 25 6C 64 20 28 25 6C   64 20 62 79 74 65 73 29  ' %ld (%ld bytes)'
 17B80:   0A 00 00 00 41 70 70 6C   69 63 61 74 69 6F 6E 20  '....Application '
 17B90:   63 6F 70 79 20 61 64 64   72 65 73 73 2E 2E 2E 2E  'copy address....'
 17BA0:   2E 2E 2E 3A 20 30 78 25   30 38 58 0A 00 00 00 00  '...: 0x%08X.....'
 17BB0:   41 70 70 6C 69 63 61 74   69 6F 6E 20 6A 75 6D 70  'Application jump'
 17BC0:   20 61 64 64 72 65 73 73   2E 2E 2E 2E 2E 2E 2E 3A  ' address.......:'
 17BD0:   20 30 78 25 30 38 58 0A   00 00 00 00 0A 00 00 00  ' 0x%08X.........'
 17BE0:   20 20 20 20 20 20 20 20   20 20 20 20 30 25 25 20  '            0%% '
 17BF0:   20 20 20 20 20 20 20 20   20 20 20 20 20 35 30 25  '             50%'
 17C00:   25 20 20 20 20 20 20 20   20 20 20 20 31 30 30 25  '%           100%'
 17C10:   25 0A 00 00 20 20 20 20   20 20 20 20 20 20 20 20  '%...            '
 17C20:   7C 2D 2D 2D 2D 2D 2D 2D   2D 2D 2D 2D 2D 2D 2D 2D  '|---------------'
 17C30:   2D 2D 2D 2D 2D 2D 2D 2D   2D 2D 2D 2D 2D 2D 2D 2D  '----------------'
 17C40:   2D 7C 0A 00 44 65 6C 65   74 69 6E 67 20 20 20 20  '-|..Deleting    '
 17C50:   7C 00 00 00 2A 00 00 00   20 65 72 72 6F 72 20 61  '|...*... error a'
 17C60:   74 20 30 78 25 78 0A 00   7C 20 25 75 20 6D 73 0A  't 0x%x..| %u ms.'
 17C70:   00 00 00 00 50 72 6F 67   72 61 6D 6D 69 6E 67 20  '....Programming '
 17C80:   7C 00 00 00 2A 00 00 00   20 65 72 72 6F 72 20 61  '|...*... error a'
 17C90:   74 20 30 78 25 78 0A 00   7C 20 25 75 20 6D 73 0A  't 0x%x..| %u ms.'
 17CA0:   00 00 00 00 56 65 72 69   66 79 69 6E 67 20 20 20  '....Verifying   '
 17CB0:   7C 00 00 00 2A 00 00 00   20 65 72 72 6F 72 20 61  '|...*... error a'
 17CC0:   74 20 30 78 25 78 0A 00   7C 20 25 75 20 6D 73 0A  't 0x%x..| %u ms.'
 17CD0:   00 00 00 00 20 20 20 20   20 20 20 20 20 20 20 20  '....            '
 17CE0:   7C 2D 2D 2D 2D 2D 2D 2D   2D 2D 2D 2D 2D 2D 2D 2D  '|---------------'
 17CF0:   2D 2D 2D 2D 2D 2D 2D 2D   2D 2D 2D 2D 2D 2D 2D 2D  '----------------'
 17D00:   2D 7C 0A 00 44 6F 6E 65   2E 0A 00 00 0A 00 00 00  '-|..Done........'
 17D10:   53 44 52 41 4D 20 73 6F   75 72 63 65 20 64 61 74  'SDRAM source dat'
 17D20:   61 20 61 64 64 72 65 73   73 2E 2E 2E 2E 2E 2E 3A  'a address......:'
 17D30:   20 30 78 25 30 38 58 0A   00 00 00 00 46 4C 41 53  ' 0x%08X.....FLAS'
 17D40:   48 20 74 61 72 67 65 74   20 64 61 74 61 20 61 64  'H target data ad'
 17D50:   64 72 65 73 73 2E 2E 2E   2E 2E 2E 3A 20 30 78 25  'dress......: 0x%'
 17D60:   30 38 58 0A 00 00 00 00   46 4C 41 53 48 20 61 64  '08X.....FLASH ad'
 17D70:   64 72 65 73 73 20 6F 66   66 73 65 74 2E 2E 2E 2E  'dress offset....'
 17D80:   2E 2E 2E 2E 2E 2E 2E 3A   20 30 78 25 30 38 58 20  '.......: 0x%08X '
 17D90:   62 79 74 65 73 0A 00 00   46 4C 41 53 48 20 6D 61  'bytes...FLASH ma'
 17DA0:   6E 75 66 61 63 74 6F 72   20 69 64 2E 2E 2E 2E 2E  'nufactor id.....'
 17DB0:   2E 2E 2E 2E 2E 2E 2E 3A   20 30 78 25 30 32 58 0A  '.......: 0x%02X.'
 17DC0:   00 00 00 00 46 4C 41 53   48 20 64 65 76 69 64 65  '....FLASH devide'
 17DD0:   20 69 64 2E 2E 2E 2E 2E   2E 2E 2E 2E 2E 2E 2E 2E  ' id.............'
 17DE0:   2E 2E 2E 3A 20 30 78 25   30 32 58 0A 00 00 00 00  '...: 0x%02X.....'
 17DF0:   4E 75 6D 62 65 72 20 6F   66 20 62 79 74 65 73 20  'Number of bytes '
 17E00:   74 6F 20 66 6C 61 73 68   2E 2E 2E 2E 2E 2E 2E 3A  'to flash.......:'
 17E10:   20 25 64 0A 00 00 00 00   56 65 72 62 6F 73 65 20  ' %d.....Verbose '
 17E20:   6D 6F 64 65 2E 2E 2E 2E   2E 2E 2E 2E 2E 2E 2E 2E  'mode............'
 17E30:   2E 2E 2E 2E 2E 2E 2E 3A   20 25 73 0A 00 00 00 00  '.......: %s.....'
 17E40:   6F 6E 00 00 6F 66 66 00   46 4C 41 53 48 20 61 64  'on..off.FLASH ad'
 17E50:   64 72 65 73 73 20 67 61   70 20 6D 6F 64 65 2E 2E  'dress gap mode..'
 17E60:   2E 2E 2E 2E 2E 2E 2E 3A   20 25 73 0A 00 00 00 00  '.......: %s.....'
 17E70:   6F 6E 00 00 6F 66 66 00   46 4C 41 53 48 20 64 61  'on..off.FLASH da'
 17E80:   74 61 20 77 6F 72 64 20   73 69 7A 65 2E 2E 2E 2E  'ta word size....'
 17E90:   2E 2E 2E 2E 2E 2E 2E 3A   20 25 64 20 62 79 74 65  '.......: %d byte'
 17EA0:   0A 00 00 00 46 4C 41 53   48 20 61 64 64 72 65 73  '....FLASH addres'
 17EB0:   73 20 63 6F 75 6E 74 65   72 20 6F 66 66 73 65 74  's counter offset'
 17EC0:   2E 2E 2E 3A 20 25 64 0A   00 00 00 00 4D 61 67 69  '...: %d.....Magi'
 17ED0:   63 20 49 44 2E 2E 2E 2E   2E 2E 2E 2E 2E 2E 2E 2E  'c ID............'
 17EE0:   2E 2E 2E 2E 2E 2E 2E 2E   2E 2E 2E 3A 20 30 78 25  '...........: 0x%'
 17EF0:   30 38 58 0A 00 00 00 00   41 70 70 6C 69 63 61 74  '08X.....Applicat'
 17F00:   69 6F 6E 20 69 6D 61 67   65 20 73 69 7A 65 2E 2E  'ion image size..'
 17F10:   2E 2E 2E 2E 2E 2E 2E 3A   20 25 6C 64 20 77 6F 72  '.......: %ld wor'
 17F20:   64 73 20 28 25 6C 64 20   62 79 74 65 73 29 0A 00  'ds (%ld bytes)..'
 17F30:   41 70 70 6C 69 63 61 74   69 6F 6E 20 63 6F 70 79  'Application copy'
 17F40:   20 61 64 64 72 65 73 73   2E 2E 2E 2E 2E 2E 2E 3A  ' address.......:'
 17F50:   20 30 78 25 30 38 58 0A   00 00 00 00 41 70 70 6C  ' 0x%08X.....Appl'
 17F60:   69 63 61 74 69 6F 6E 20   6A 75 6D 70 20 61 64 64  'ication jump add'
 17F70:   72 65 73 73 2E 2E 2E 2E   2E 2E 2E 3A 20 30 78 25  'ress.......: 0x%'
 17F80:   30 38 58 0A 00 00 00 00   0A 00 00 00 20 20 20 20  '08X.........    '
 17F90:   20 20 20 20 20 20 20 20   30 25 25 20 20 20 20 20  '        0%%     '
 17FA0:   20 20 20 20 20 20 20 20   20 35 30 25 25 20 20 20  '         50%%   '
 17FB0:   20 20 20 20 20 20 20 20   31 30 30 25 25 0A 00 00  '        100%%...'
 17FC0:   20 20 20 20 20 20 20 20   20 20 20 20 7C 2D 2D 2D  '            |---'
 17FD0:   2D 2D 2D 2D 2D 2D 2D 2D   2D 2D 2D 2D 2D 2D 2D 2D  '----------------'
 17FE0:   2D 2D 2D 2D 2D 2D 2D 2D   2D 2D 2D 2D 2D 7C 0A 00  '-------------|..'
 17FF0:   44 65 6C 65 74 69 6E 67   20 20 20 20 7C 00 00 00  'Deleting    |...'
 18000:   2A 00 00 00 20 65 72 72   6F 72 20 61 74 20 30 78  '*... error at 0x'
 18010:   25 78 0A 00 7C 20 25 75   20 6D 73 0A 00 00 00 00  '%x..| %u ms.....'
 18020:   50 72 6F 67 72 61 6D 6D   69 6E 67 20 7C 00 00 00  'Programming |...'
 18030:   2A 00 00 00 20 65 72 72   6F 72 20 61 74 20 30 78  '*... error at 0x'
 18040:   25 78 0A 00 7C 20 25 75   20 6D 73 0A 00 00 00 00  '%x..| %u ms.....'
 18050:   56 65 72 69 66 79 69 6E   67 20 20 20 7C 00 00 00  'Verifying   |...'
 18060:   2A 00 00 00 20 65 72 72   6F 72 20 61 74 20 30 78  '*... error at 0x'
 18070:   25 78 0A 00 7C 20 25 75   20 6D 73 0A 00 00 00 00  '%x..| %u ms.....'
 18080:   20 20 20 20 20 20 20 20   20 20 20 20 7C 2D 2D 2D  '            |---'
 18090:   2D 2D 2D 2D 2D 2D 2D 2D   2D 2D 2D 2D 2D 2D 2D 2D  '----------------'
 180A0:   2D 2D 2D 2D 2D 2D 2D 2D   2D 2D 2D 2D 2D 7C 0A 00  '-------------|..'
 180B0:   44 6F 6E 65 2E 0A 00 00   0A 00 00 00 46 6C 61 73  'Done........Flas'
 180C0:   68 20 6D 65 6D 6F 72 79   20 64 61 74 61 20 72 65  'h memory data re'
 180D0:   70 6F 72 74 20 30 78 25   30 38 78 20 28 25 64 20  'port 0x%08x (%d '
 180E0:   62 79 74 65 73 29 3A 0A   00 00 00 00 2D 2D 2D 2D  'bytes):.....----'
 180F0:   2D 2D 2D 2D 2D 2B 2D 2D   2D 2D 2D 2D 2D 2D 2D 2D  '-----+----------'
 18100:   2D 2D 2D 2D 2D 2D 2D 2D   2D 2D 2D 2D 2D 2D 2D 2D  '----------------'
 18110:   2D 2D 2D 2D 2D 2D 2D 2D   2D 2D 2D 2D 2D 2D 2D 2D  '----------------'
 18120:   2D 2D 2D 2D 2D 2D 2D 2B   2D 2D 2D 2D 2D 2D 2D 2D  '-------+--------'
 18130:   2D 2D 2D 2D 2D 2D 2D 2D   2D 0A 00 00 61 64 64 72  '---------...addr'
 18140:   65 73 73 20 20 7C 20 25   30 32 58 20 25 30 32 58  'ess  | %02X %02X'
 18150:   20 25 30 32 58 20 25 30   32 58 20 25 30 32 58 20  ' %02X %02X %02X '
 18160:   25 30 32 58 20 25 30 32   58 20 25 30 32 58 20 25  '%02X %02X %02X %'
 18170:   30 32 58 20 25 30 32 58   20 25 30 32 58 20 25 30  '02X %02X %02X %0'
 18180:   32 58 20 25 30 32 58 20   25 30 32 58 20 25 30 32  '2X %02X %02X %02'
 18190:   58 20 25 30 32 58 20 7C   20 61 73 63 69 69 0A 00  'X %02X | ascii..'
 181A0:   61 64 64 72 65 73 73 20   20 7C 20 25 30 32 58 20  'address  | %02X '
 181B0:   25 30 32 58 20 25 30 32   58 20 25 30 32 58 20 25  '%02X %02X %02X %'
 181C0:   30 32 58 20 25 30 32 58   20 25 30 32 58 20 25 30  '02X %02X %02X %0'
 181D0:   32 58 20 25 30 32 58 20   25 30 32 58 20 25 30 32  '2X %02X %02X %02'
 181E0:   58 20 25 30 32 58 20 25   30 32 58 20 25 30 32 58  'X %02X %02X %02X'
 181F0:   20 25 30 32 58 20 25 30   32 58 20 7C 20 61 73 63  ' %02X %02X | asc'
 18200:   69 69 0A 00 61 64 64 72   65 73 73 20 20 7C 20 25  'ii..address  | %'
 18210:   30 32 58 20 25 30 32 58   20 25 30 32 58 20 25 30  '02X %02X %02X %0'
 18220:   32 58 20 25 30 32 58 20   25 30 32 58 20 25 30 32  '2X %02X %02X %02'
 18230:   58 20 25 30 32 58 20 25   30 32 58 20 25 30 32 58  'X %02X %02X %02X'
 18240:   20 25 30 32 58 20 25 30   32 58 20 25 30 32 58 20  ' %02X %02X %02X '
 18250:   25 30 32 58 20 25 30 32   58 20 25 30 32 58 20 7C  '%02X %02X %02X |'
 18260:   20 61 73 63 69 69 0A 00   61 64 64 72 65 73 73 20  ' ascii..address '
 18270:   20 7C 20 25 30 32 58 20   25 30 32 58 20 25 30 32  ' | %02X %02X %02'
 18280:   58 20 25 30 32 58 20 25   30 32 58 20 25 30 32 58  'X %02X %02X %02X'
 18290:   20 25 30 32 58 20 25 30   32 58 20 25 30 32 58 20  ' %02X %02X %02X '
 182A0:   25 30 32 58 20 25 30 32   58 20 25 30 32 58 20 25  '%02X %02X %02X %'
 182B0:   30 32 58 20 25 30 32 58   20 25 30 32 58 20 25 30  '02X %02X %02X %0'
 182C0:   32 58 20 7C 20 61 73 63   69 69 0A 00 0A 00 00 00  '2X | ascii......'
 182D0:   45 52 52 4F 52 3A 20 77   72 6F 6E 67 20 66 6C 61  'ERROR: wrong fla'
 182E0:   73 68 20 77 6F 72 64 20   73 69 7A 65 20 64 65 74  'sh word size det'
 182F0:   65 63 74 65 64 20 28 25   64 29 0A 00 2D 2D 2D 2D  'ected (%d)..----'
 18300:   2D 2D 2D 2D 2D 2B 2D 2D   2D 2D 2D 2D 2D 2D 2D 2D  '-----+----------'
 18310:   2D 2D 2D 2D 2D 2D 2D 2D   2D 2D 2D 2D 2D 2D 2D 2D  '----------------'
 18320:   2D 2D 2D 2D 2D 2D 2D 2D   2D 2D 2D 2D 2D 2D 2D 2D  '----------------'
 18330:   2D 2D 2D 2D 2D 2D 2D 2B   2D 2D 2D 2D 2D 2D 2D 2D  '-------+--------'
 18340:   2D 2D 2D 2D 2D 2D 2D 2D   2D 0A 00 00 25 30 38 58  '---------...%08X'
 18350:   20 7C 20 25 30 32 58 20   25 30 32 58 20 25 30 32  ' | %02X %02X %02'
 18360:   58 20 25 30 32 58 20 25   30 32 58 20 25 30 32 58  'X %02X %02X %02X'
 18370:   20 25 30 32 58 20 25 30   32 58 20 25 30 32 58 20  ' %02X %02X %02X '
 18380:   25 30 32 58 20 25 30 32   58 20 25 30 32 58 20 25  '%02X %02X %02X %'
 18390:   30 32 58 20 25 30 32 58   20 25 30 32 58 20 25 30  '02X %02X %02X %0'
 183A0:   32 58 20 7C 20 25 63 25   63 25 63 25 63 25 63 25  '2X | %c%c%c%c%c%'
 183B0:   63 25 63 25 63 25 63 25   63 25 63 25 63 25 63 25  'c%c%c%c%c%c%c%c%'
 183C0:   63 25 63 25 63 0A 00 00   25 73 0A 00 2D 2D 2D 2D  'c%c%c...%s..----'
 183D0:   2D 2D 2D 2D 2D 2B 2D 2D   2D 2D 2D 2D 2D 2D 2D 2D  '-----+----------'
 183E0:   2D 2D 2D 2D 2D 2D 2D 2D   2D 2D 2D 2D 2D 2D 2D 2D  '----------------'
 183F0:   2D 2D 2D 2D 2D 2D 2D 2D   2D 2D 2D 2D 2D 2D 2D 2D  '----------------'
 18400:   2D 2D 2D 2D 2D 2D 2D 2B   2D 2D 2D 2D 2D 2D 2D 2D  '-------+--------'
 18410:   2D 2D 2D 2D 2D 2D 2D 2D   2D 0A 00                 '---------..'
OutputDevice:
 1841B:                                      00                         '.'
TxByteCalled.L53:
 1841C:                                         00 00 00 00              '....'
intHandle:
 18420:   00 00 00 00                                        '....'
intData.L77:
 18424:               00 00 00 00   00 00 00 00 00 00 00 00      '............'
uartData.L50:
 18430:   00 00 00 00                                        '....'
intData.L51:
 18434:               04 00 00 00   30 84 01 00 A3 29 00 00      '....0....)..'
CvsVersion:
 18440:   24 52 65 76 69 73 69 6F   6E 3A 20 31 2E 32 32 20  '$Revision: 1.22 '
 18450:   24 00 00 00                                        '$...'
NotifyFunction:
 18454:               00 00 00 00                                '....'
RealBaudRate:
 18458:                             00 00 00 00                      '....'
InitDone:
 1845C:                                         00 00 00 00              '....'
GpioRtsHandle:
 18460:   00 00 00 00                                        '....'
GpioCtsHandle:
 18464:               00 00 00 00                                '....'
GpioTxHandle:
 18468:                             00 00 00 00                      '....'
GpioRxHandle:
 1846C:                                         00 00 00 00              '....'
IrqPrioRegister:
 18470:   00 00 00 00                                        '....'
IrqSensRegister:
 18474:               00 00 00 00                                '....'
IrqsInUse:
 18478:                             FF FF FF FF                      '....'
__enable_prof_interrupt:
 1847C:                                         00 00 00 00              '....'
__INITBSS__:
 18480:   01 00 00 00                                        '....'
__main_at:
 18484:               00 00 00 00                                '....'
_bufendtab:
 18488:                             00 00 00 00 00 00 00 00          '........'
 18490:   00 00 00 00 00 00 00 00   00 00 00 00 00 00 00 00  '................'
 184A0:   00 00 00 00 00 00 00 00   00 00 00 00 00 00 00 00  '................'
 184B0:   00 00 00 00 00 00 00 00   00 00 00 00 00 00 00 00  '................'
 184C0:   00 00 00 00 00 00 00 00   00 00 00 00 00 00 00 00  '................'
 184D0:   00 00 00 00 00 00 00 00   00 00 00 00 00 00 00 00  '................'
 184E0:   00 00 00 00 00 00 00 00   00 00 00 00 00 00 00 00  '................'
 184F0:   00 00 00 00 00 00 00 00   00 00 00 00 00 00 00 00  '................'
 18500:   00 00 00 00 00 00 00 00   00 00 00 00 00 00 00 00  '................'
 18510:   00 00 00 00 00 00 00 00   00 00 00 00 00 00 00 00  '................'
 18520:   00 00 00 00 00 00 00 00   00 00 00 00 00 00 00 00  '................'
 18530:   00 00 00 00 00 00 00 00   00 00 00 00 00 00 00 00  '................'
 18540:   00 00 00 00 00 00 00 00   00 00 00 00 00 00 00 00  '................'
__iob:
 18550:   00 00 00 00 00 00 00 00   00 00 00 00 40 00 00 00  '............@...'
 18560:   00 00 00 00 00 00 00 00   00 00 00 00 40 01 00 00  '............@...'
 18570:   00 00 00 00 00 00 00 00   00 00 00 00 04 02 00 00  '................'
 18580:   00 00 00 00 00 00 00 00   00 00 00 00 00 00 00 00  '................'
 18590:   00 00 00 00 00 00 00 00   00 00 00 00 00 00 00 00  '................'
 185A0:   00 00 00 00 00 00 00 00   00 00 00 00 00 00 00 00  '................'
 185B0:   00 00 00 00 00 00 00 00   00 00 00 00 00 00 00 00  '................'
 185C0:   00 00 00 00 00 00 00 00   00 00 00 00 00 00 00 00  '................'
 185D0:   00 00 00 00 00 00 00 00   00 00 00 00 00 00 00 00  '................'
 185E0:   00 00 00 00 00 00 00 00   00 00 00 00 00 00 00 00  '................'
 185F0:   00 00 00 00 00 00 00 00   00 00 00 00 00 00 00 00  '................'
 18600:   00 00 00 00 00 00 00 00   00 00 00 00 00 00 00 00  '................'
 18610:   00 00 00 00 00 00 00 00   00 00 00 00 00 00 00 00  '................'
 18620:   00 00 00 00 00 00 00 00   00 00 00 00 00 00 00 00  '................'
 18630:   00 00 00 00 00 00 00 00   00 00 00 00 00 00 00 00  '................'
 18640:   00 00 00 00 00 00 00 00   00 00 00 00 00 00 00 00  '................'
 18650:   00 00 00 00 00 00 00 00   00 00 00 00 00 00 00 00  '................'
 18660:   00 00 00 00 00 00 00 00   00 00 00 00 00 00 00 00  '................'
 18670:   00 00 00 00 00 00 00 00   00 00 00 00 00 00 00 00  '................'
 18680:   00 00 00 00 00 00 00 00   00 00 00 00 00 00 00 00  '................'
 18690:   00 00 00 00 00 00 00 00   00 00 00 00 00 00 00 00  '................'
 186A0:   00 00 00 00 00 00 00 00   00 00 00 00 00 00 00 00  '................'
 186B0:   00 00 00 00 00 00 00 00   00 00 00 00 00 00 00 00  '................'
 186C0:   00 00 00 00 00 00 00 00   00 00 00 00 00 00 00 00  '................'
 186D0:   00 00 00 00 00 00 00 00   00 00 00 00 00 00 00 00  '................'
 186E0:   00 00 00 00 00 00 00 00   00 00 00 00 00 00 00 00  '................'
 186F0:   00 00 00 00 00 00 00 00   00 00 00 00 00 00 00 00  '................'
 18700:   00 00 00 00 00 00 00 00   00 00 00 00 00 00 00 00  '................'
 18710:   00 00 00 00 00 00 00 00   00 00 00 00 00 00 00 00  '................'
 18720:   00 00 00 00 00 00 00 00   00 00 00 00 00 00 00 00  '................'
 18730:   00 00 00 00 00 00 00 00   00 00 00 00 00 00 00 00  '................'
 18740:   00 00 00 00 00 00 00 00   00 00 00 00 00 00 00 00  '................'
 18750:   00 00 00 00 00 00 00 00   00 00 00 00 00 00 00 00  '................'
 18760:   00 00 00 00 00 00 00 00   00 00 00 00 00 00 00 00  '................'
 18770:   00 00 00 00 00 00 00 00   00 00 00 00 00 00 00 00  '................'
 18780:   00 00 00 00 00 00 00 00   00 00 00 00 00 00 00 00  '................'
 18790:   00 00 00 00 00 00 00 00   00 00 00 00 00 00 00 00  '................'
 187A0:   00 00 00 00 00 00 00 00   00 00 00 00 00 00 00 00  '................'
 187B0:   00 00 00 00 00 00 00 00   00 00 00 00 00 00 00 00  '................'
 187C0:   00 00 00 00 00 00 00 00   00 00 00 00 00 00 00 00  '................'
 187D0:   00 00 00 00 00 00 00 00   00 00 00 00 00 00 00 00  '................'
 187E0:   00 00 00 00 00 00 00 00   00 00 00 00 00 00 00 00  '................'
 187F0:   00 00 00 00 00 00 00 00   00 00 00 00 00 00 00 00  '................'
 18800:   00 00 00 00 00 00 00 00   00 00 00 00 00 00 00 00  '................'
 18810:   00 00 00 00 00 00 00 00   00 00 00 00 00 00 00 00  '................'
 18820:   00 00 00 00 00 00 00 00   00 00 00 00 00 00 00 00  '................'
 18830:   00 00 00 00 00 00 00 00   00 00 00 00 00 00 00 00  '................'
 18840:   00 00 00 00 00 00 00 00   00 00 00 00 00 00 00 00  '................'
 18850:   00 00 00 00 00 00 00 00   00 00 00 00 00 00 00 00  '................'
 18860:   00 00 00 00 00 00 00 00   00 00 00 00 00 00 00 00  '................'
_fopen_max:
 18870:   32 00 00 00                                        '2...'
_bufsiz_dflt:
 18874:               00 04 00 00                                '....'
_iob_tmpnam:
 18878:                             00 00 00 00 00 00 00 00          '........'
 18880:   00 00 00 00 00 00 00 00   00 00 00 00 00 00 00 00  '................'
 18890:   00 00 00 00 00 00 00 00   00 00 00 00 00 00 00 00  '................'
 188A0:   00 00 00 00 00 00 00 00   00 00 00 00 00 00 00 00  '................'
 188B0:   00 00 00 00 00 00 00 00   00 00 00 00 00 00 00 00  '................'
 188C0:   00 00 00 00 00 00 00 00   00 00 00 00 00 00 00 00  '................'
 188D0:   00 00 00 00 00 00 00 00   00 00 00 00 00 00 00 00  '................'
 188E0:   00 00 00 00 00 00 00 00   00 00 00 00 00 00 00 00  '................'
 188F0:   00 00 00 00 00 00 00 00   00 00 00 00 00 00 00 00  '................'
 18900:   00 00 00 00 00 00 00 00   00 00 00 00 00 00 00 00  '................'
 18910:   00 00 00 00 00 00 00 00   00 00 00 00 00 00 00 00  '................'
 18920:   00 00 00 00 00 00 00 00   00 00 00 00 00 00 00 00  '................'
 18930:   00 00 00 00 00 00 00 00   00 00 00 00 00 00 00 00  '................'
_iob_fioflag:
 18940:   00 00 00 00 00 00 00 00   00 00 00 00 00 00 00 00  '................'
 18950:   00 00 00 00 00 00 00 00   00 00 00 00 00 00 00 00  '................'
 18960:   00 00 00 00 00 00 00 00   00 00 00 00 00 00 00 00  '................'
 18970:   00 00 00 00                                        '....'
_iob_unget:
 18974:               00 00 00 00   00 00 00 00 00 00 00 00      '............'
 18980:   00 00 00 00 00 00 00 00   00 00 00 00 00 00 00 00  '................'
 18990:   00 00 00 00 00 00 00 00   00 00 00 00 00 00 00 00  '................'
 189A0:   00 00 00 00 00 00 00 00   00 00 00 00 00 00 00 00  '................'
 189B0:   00 00 00 00 00 00 00 00   00 00 00 00 00 00 00 00  '................'
 189C0:   00 00 00 00 00 00 00 00   00 00 00 00 00 00 00 00  '................'
 189D0:   00 00 00 00 00 00 00 00   00 00 00 00 00 00 00 00  '................'
 189E0:   00 00 00 00 00 00 00 00   00 00 00 00 00 00 00 00  '................'
 189F0:   00 00 00 00 00 00 00 00   00 00 00 00 00 00 00 00  '................'
 18A00:   00 00 00 00 00 00 00 00   00 00 00 00 00 00 00 00  '................'
 18A10:   00 00 00 00 00 00 00 00   00 00 00 00 00 00 00 00  '................'
 18A20:   00 00 00 00 00 00 00 00   00 00 00 00 00 00 00 00  '................'
 18A30:   00 00 00 00 00 00 00 00   00 00 00 00 00 00 00 00  '................'
 18A40:   00 00 00 00 00 00 00 00   00 00 00 00 00 00 00 00  '................'
 18A50:   00 00 00 00 00 00 00 00   00 00 00 00 00 00 00 00  '................'
 18A60:   00 00 00 00 00 00 00 00   00 00 00 00 00 00 00 00  '................'
 18A70:   00 00 00 00 00 00 00 00   00 00 00 00 00 00 00 00  '................'
 18A80:   00 00 00 00 00 00 00 00   00 00 00 00 00 00 00 00  '................'
 18A90:   00 00 00 00 00 00 00 00   00 00 00 00 00 00 00 00  '................'
 18AA0:   00 00 00 00 00 00 00 00   00 00 00 00 00 00 00 00  '................'
 18AB0:   00 00 00 00 00 00 00 00   00 00 00 00 00 00 00 00  '................'
 18AC0:   00 00 00 00 00 00 00 00   00 00 00 00 00 00 00 00  '................'
 18AD0:   00 00 00 00 00 00 00 00   00 00 00 00 00 00 00 00  '................'
 18AE0:   00 00 00 00 00 00 00 00   00 00 00 00 00 00 00 00  '................'
 18AF0:   00 00 00 00 00 00 00 00   00 00 00 00 00 00 00 00  '................'
 18B00:   00 00 00 00 00 00 00 00   00 00 00 00 00 00 00 00  '................'
 18B10:   00 00 00 00 00 00 00 00   00 00 00 00 00 00 00 00  '................'
 18B20:   00 00 00 00 00 00 00 00   00 00 00 00 00 00 00 00  '................'
 18B30:   00 00 00 00 00 00 00 00   00 00 00 00 00 00 00 00  '................'
 18B40:   00 00 00 00 00 00 00 00   00 00 00 00 00 00 00 00  '................'
 18B50:   00 00 00 00 00 00 00 00   00 00 00 00 00 00 00 00  '................'
 18B60:   00 00 00 00 00 00 00 00   00 00 00 00 00 00 00 00  '................'
 18B70:   00 00 00 00 00 00 00 00   00 00 00 00 00 00 00 00  '................'
 18B80:   00 00 00 00 00 00 00 00   00 00 00 00 00 00 00 00  '................'
 18B90:   00 00 00 00 00 00 00 00   00 00 00 00 00 00 00 00  '................'
 18BA0:   00 00 00 00 00 00 00 00   00 00 00 00 00 00 00 00  '................'
 18BB0:   00 00 00 00 00 00 00 00   00 00 00 00 00 00 00 00  '................'
 18BC0:   00 00 00 00 00 00 00 00   00 00 00 00 00 00 00 00  '................'
 18BD0:   00 00 00 00 00 00 00 00   00 00 00 00 00 00 00 00  '................'
 18BE0:   00 00 00 00 00 00 00 00   00 00 00 00 00 00 00 00  '................'
 18BF0:   00 00 00 00 00 00 00 00   00 00 00 00 00 00 00 00  '................'
 18C00:   00 00 00 00 00 00 00 00   00 00 00 00 00 00 00 00  '................'
 18C10:   00 00 00 00 00 00 00 00   00 00 00 00 00 00 00 00  '................'
 18C20:   00 00 00 00 00 00 00 00   00 00 00 00 00 00 00 00  '................'
 18C30:   00 00 00 00 00 00 00 00   00 00 00 00 00 00 00 00  '................'
 18C40:   00 00 00 00 00 00 00 00   00 00 00 00 00 00 00 00  '................'
 18C50:   00 00 00 00 00 00 00 00   00 00 00 00 00 00 00 00  '................'
 18C60:   00 00 00 00 00 00 00 00   00 00 00 00 00 00 00 00  '................'
 18C70:   00 00 00 00 00 00 00 00   00 00 00 00 00 00 00 00  '................'
 18C80:   00 00 00 00 00 00 00 00   00 00 00 00 00 00 00 00  '................'
 18C90:   00 00 00 00                                        '....'
b.L64:
 18C94:               C1 8C 01 00   D2 8C 01 00 28 6E 75 6C      '........(nul'
 18CA0:   6C 29 00 3A 43 61 6E 6E   6F 74 20 70 72 69 6E 74  'l).:Cannot print'
 18CB0:   20 66 6C 6F 61 74 69 6E   67 20 70 6F 69 6E 74 3A  ' floating point:'
 18CC0:   00 20 20 20 20 20 20 20   20 20 20 20 20 20 20 20  '.               '
 18CD0:   20 00 30 30 30 30 30 30   30 30 30 30 30 30 30 30  ' .00000000000000'
 18CE0:   30 30 00 00                                        '00..'
_atexit_count:
 18CE4:               00 00 00 00                                '....'
_atexit_lock:
 18CE8:                             00 00 00 00 79 00 00 00          '....y...'
 18CF0:   F8 3A 00 00 00 00 00 00                            '.:......'
called.L4:
 18CF8:                             00 00 00 00                      '....'
_iob_lock:
 18CFC:                                         00 00 00 00              '....'
 18D00:   78 00 00 00 78 3C 00 00   00 00 00 00 78 00 00 00  'x...x<......x...'
 18D10:   7B 3C 00 00 00 00 00 00   78 00 00 00 B8 3C 00 00  '{<......x....<..'
 18D20:   00 00 00 00 78 00 00 00   CC 3C 00 00 00 00 00 00  '....x....<......'
 18D30:   00 00 00 00                                        '....'
_exitv:
 18D34:               00 00 00 00                                '....'
shf10:
 18D38:                             00 00 00 00 00 00 F0 3F          '.......?'
 18D40:   00 00 00 00 00 00 24 40   00 00 00 00 00 00 59 40  '......$@......Y@'
 18D50:   00 00 00 00 00 40 8F 40   00 00 00 00 00 88 C3 40  '.....@.@.......@'
 18D60:   00 00 00 00 00 6A F8 40   00 00 00 00 80 84 2E 41  '.....j.@.......A'
 18D70:   00 00 00 00 D0 12 63 41   00 00 00 00 84 D7 97 41  '......cA.......A'
 18D80:   00 00 00 00 65 CD CD 41                            '....e..A'
shf10:
 18D88:                             00 00 00 00 00 00 F0 3F          '.......?'
 18D90:   00 00 00 00 00 00 24 40   00 00 00 00 00 00 59 40  '......$@......Y@'
 18DA0:   00 00 00 00 00 40 8F 40   00 00 00 00 00 88 C3 40  '.....@.@.......@'
 18DB0:   00 00 00 00 00 6A F8 40   00 00 00 00 80 84 2E 41  '.....j.@.......A'
 18DC0:   00 00 00 00 D0 12 63 41   00 00 00 00 84 D7 97 41  '......cA.......A'
 18DD0:   00 00 00 00 65 CD CD 41                            '....e..A'
_alignment_offset:
 18DD8:                             00 00 00 00                      '....'
_mwhbest_fit:
 18DDC:                                         00 00 00 00              '....'
_mwhsegment_chain:
 18DE0:   00 00 00 00                                        '....'
_malloc_level:
 18DE4:               01 00 00 00                                '....'
_mwhitem_header_size:
 18DE8:                             00 00 00 00                      '....'
_mwhsegment_header_size:
 18DEC:                                         00 00 00 00              '....'
_mwh_corrupt_flag:
 18DF0:   00 00 00 00                                        '....'
_mwheap_lock:
 18DF4:               00 00 00 00                                '....'
checking:
 18DF8:                             00 00 00 00 80 00 00 00          '........'
 18E00:   58 4A 00 00 00 00 00 00                            'XJ......'
blen.L62:
 18E08:                             08 00 00 00 10 00 00 00          '........'
 18E10:   20 00 00 00 40 00 00 00   80 00 00 00 00 01 00 00  ' ...@...........'
 18E20:   00 02 00 00 00 04 00 00   00 08 00 00 00 10 00 00  '................'
 18E30:   00 20 00 00 00 7D 00 00   FF FF FF FF              '. ...}......'
_mwhfirst_time.L75:
 18E3C:                                         01 00 00 00              '....'
_fclose_exit_p:
 18E40:   00 00 00 00                                        '....'
_fphuge:
 18E44:               00 00 00 00   00 00 F0 7F 00 00 00 00      '............'
 18E50:   00 00 00 00                                        '....'
_fphugef:
 18E54:               00 00 80 7F                                '....'
_fpepsf:
 18E58:                             00 00 00 26 00 00 00 00          '...&....'
 18E60:   00 00 00 00 00 00 00 00                            '........'
_fpepsd:
 18E68:                             00 00 00 00 00 00 A0 3C          '.......<'
 18E70:   00 00 00 00 00 00 00 00                            '........'
_fpepsl:
 18E78:                             00 00 00 00 00 00 00 00          '........'
 18E80:   BF 3F 00 00 00 00 00 00                            '.?......'
_fpminf:
 18E88:                             00 00 00 01 00 00 00 00          '........'
 18E90:   00 00 00 00 00 00 00 00                            '........'
_fpmind:
 18E98:                             00 00 00 00 00 00 10 00          '........'
 18EA0:   00 00 00 00 00 00 00 00                            '........'
_fpminl:
 18EA8:                             00 00 00 00 00 00 00 00          '........'
 18EB0:   01 00 00 00 00 00 00 00                            '........'
_fpmaxf:
 18EB8:                             FF FF EF 7F 00 00 00 00          '........'
 18EC0:   00 00 00 00 00 00 00 00                            '........'
_fpmaxd:
 18EC8:                             FF FF FF FF FF FF EF 7F          '........'
 18ED0:   00 00 00 00 00 00 00 00                            '........'
_fpmaxl:
 18ED8:                             FF FF FF FF FF FF FF FF          '........'
 18EE0:   FE 7F 00 00 00 00 00 00                            '........'
_fpqnan:
 18EE8:                             00 00 00 00 00 00 F8 FF          '........'
 18EF0:   00 00 00 00 00 00 00 00                            '........'
_fpqnanf:
 18EF8:                             00 00 C0 FF                      '....'
fpnan:
 18EFC:                                         04 8F 01 00              '....'
fpinf:
 18F00:   08 8F 01 00 4E 61 4E 00   49 6E 66 00 30 00 30 00  '....NaN.Inf.0.0.'
scale:
 18F10:   00 00 00 00 00 00 F0 3F   00 00 00 00 00 00 24 40  '.......?......$@'
 18F20:   00 00 00 00 00 00 59 40   00 00 00 00 00 88 C3 40  '......Y@.......@'
 18F30:   00 00 00 00 84 D7 97 41   00 80 E0 37 79 C3 41 43  '.......A...7y.AC'
 18F40:   17 6E 05 B5 B5 B8 93 46   F5 F9 3F E9 03 4F 38 4D  '.n.....F..?..O8M'
 18F50:   32 1D 30 F9 48 77 82 5A   3C BF 73 7F DD 4F 15 75  '2.0.Hw.Z<.s..O.u'
scale:
 18F60:   00 00 00 00 00 00 F0 3F   00 00 00 00 00 00 24 40  '.......?......$@'
 18F70:   00 00 00 00 00 00 59 40   00 00 00 00 00 88 C3 40  '......Y@.......@'
 18F80:   00 00 00 00 84 D7 97 41   00 80 E0 37 79 C3 41 43  '.......A...7y.AC'
 18F90:   17 6E 05 B5 B5 B8 93 46   F5 F9 3F E9 03 4F 38 4D  '.n.....F..?..O8M'
 18FA0:   32 1D 30 F9 48 77 82 5A   3C BF 73 7F DD 4F 15 75  '2.0.Hw.Z<.s..O.u'
_rterr_vprintf:
 18FB0:   50 4D 00 00                                        'PM..'
_sig_code:
 18FB4:               00 00 00 00                                '....'
_sig_subcode:
 18FB8:                             00 00 00 00                      '....'
_sig_flag:
 18FBC:                                         00 00 00 00              '....'
_sig_exit:
 18FC0:   00 00 00 00                                        '....'
_sig_fail:
 18FC4:               00 00 00 00                                '....'
_sig_info:
 18FC8:                             00 00 00 00                      '....'
_sig_func:
 18FCC:                                         00 00 00 00              '....'
flag.L13:
 18FD0:   00 00 00 00                                        '....'
cdtor:
 18FD4:               00 00 00 00   00 00 00 00 00 00 00 00      '............'
 18FE0:   00 00 00 00                                        '....'
called.L16:
 18FE4:               00 00 00 00                                '....'
tmp_argv:
 18FE8:                             F0 8F 01 00 00 00 00 00          '........'
 18FF0:   41 52 43 5F 70 72 6F 67   72 61 6D 00              'ARC_program.'
__MEMSIZE__:
 18FFC:                                         00 00 00 00              '....'
__mwheap_init:
 19000:   00 00 00 00                                        '....'
__mwheap_end:
 19004:               00 00 00 00                                '....'
__mwheap_cur:
 19008:                             00 00 00 00                      '....'
first.L5:
 1900C:                                         01 00 00 00              '....'
settings:
 19010:   94 90 01 00 00 00 00 00   00 00 00 00 00 00 00 00  '................'
 19020:   00 00 00 00 00 00 00 00   00 00 00 00 00 00 00 00  '................'
 19030:   00 00 00 00 00 00 00 00   00 00 00 00 00 00 00 00  '................'
 19040:   00 00 00 00 00 00 00 00   00 00 00 00 00 00 00 00  '................'
 19050:   00 00 00 00 00 00 00 00   00 00 00 00 00 00 00 00  '................'
 19060:   00 00 00 00 00 00 00 00   00 00 00 00 00 00 00 00  '................'
 19070:   00 00 00 00 00 00 00 00   00 00 00 00 00 00 00 00  '................'
 19080:   00 00 00 00 00 00 00 00   00 00 00 00 00 00 00 00  '................'
environ:
 19090:   10 90 01 00 48 4F 53 54   4C 49 4E 4B 3D 31 00     '....HOSTLINK=1.'
Content of section .tls (#8) size=0x4 start=0x11112
 190A0:   00 00 00 00                                        '....'
Content of section .comment (#12) size=0x1be3 start=0x11116
     0:   4D 65 74 61 57 61 72 65   20 4C 69 6E 6B 65 72 20  'MetaWare Linker '
    10:   76 37 2E 34 2E 33 0A 68   63 37 2E 34 2E 33 20 2D  'v7.4.3.hc7.4.3 -'
    20:   61 34 20 2D 63 6F 72 65   38 20 2D 4F 32 20 2D 58  'a4 -core8 -O2 -X'
    30:   62 73 20 2D 58 6D 75 6C   74 33 32 20 2D 58 6E 6F  'bs -Xmult32 -Xno'
    40:   72 6D 20 66 6C 61 73 68   65 72 2E 63 00 31 32 31  'rm flasher.c.121'
    50:   32 32 30 30 35 2E 32 32   33 37 30 36 00 68 63 37  '22005.223706.hc7'
    60:   2E 34 2E 33 20 2D 61 34   20 2D 63 6F 72 65 38 20  '.4.3 -a4 -core8 '
    70:   2D 4F 31 20 2D 58 62 73   20 2D 58 6D 75 6C 74 33  '-O1 -Xbs -Xmult3'
    80:   32 20 2D 58 6E 6F 72 6D   20 73 72 63 2F 66 6D 5F  '2 -Xnorm src/fm_'
    90:   64 65 62 75 67 2E 63 00   31 32 31 32 32 30 30 35  'debug.c.12122005'
    A0:   2E 32 32 33 37 30 36 00   68 63 37 2E 34 2E 33 20  '.223706.hc7.4.3 '
    B0:   2D 61 34 20 2D 63 6F 72   65 38 20 2D 4F 31 20 2D  '-a4 -core8 -O1 -'
    C0:   58 62 73 20 2D 58 6D 75   6C 74 33 32 20 2D 58 6E  'Xbs -Xmult32 -Xn'
    D0:   6F 72 6D 20 73 72 63 2F   67 70 69 6F 2F 66 64 5F  'orm src/gpio/fd_'
    E0:   67 70 69 6F 2E 63 00 31   32 31 32 32 30 30 35 2E  'gpio.c.12122005.'
    F0:   32 32 33 37 30 36 00 68   63 37 2E 34 2E 33 20 2D  '223706.hc7.4.3 -'
   100:   61 34 20 2D 63 6F 72 65   38 20 2D 4F 31 20 2D 58  'a4 -core8 -O1 -X'
   110:   62 73 20 2D 58 6D 75 6C   74 33 32 20 2D 58 6E 6F  'bs -Xmult32 -Xno'
   120:   72 6D 20 73 72 63 2F 75   61 72 74 2F 66 64 5F 75  'rm src/uart/fd_u'
   130:   61 72 74 2E 63 00 31 32   31 32 32 30 30 35 2E 32  'art.c.12122005.2'
   140:   32 33 37 30 36 00 68 63   37 2E 34 2E 33 20 2D 61  '23706.hc7.4.3 -a'
   150:   34 20 2D 63 6F 72 65 38   20 2D 4F 31 20 2D 58 62  '4 -core8 -O1 -Xb'
   160:   73 20 2D 58 6D 75 6C 74   33 32 20 2D 58 6E 6F 72  's -Xmult32 -Xnor'
   170:   6D 20 73 72 63 2F 67 70   69 6F 2F 66 64 5F 67 70  'm src/gpio/fd_gp'
   180:   69 6F 5F 70 72 69 76 2E   63 00 31 32 31 32 32 30  'io_priv.c.121220'
   190:   30 35 2E 32 32 33 37 30   36 00 68 63 37 2E 34 2E  '05.223706.hc7.4.'
   1A0:   33 20 2D 61 34 20 2D 63   6F 72 65 38 20 2D 4F 31  '3 -a4 -core8 -O1'
   1B0:   20 2D 58 62 73 20 2D 58   6D 75 6C 74 33 32 20 2D  ' -Xbs -Xmult32 -'
   1C0:   58 6E 6F 72 6D 20 73 72   63 2F 69 6E 74 2F 66 64  'Xnorm src/int/fd'
   1D0:   5F 69 6E 74 2E 63 00 31   32 31 32 32 30 30 35 2E  '_int.c.12122005.'
   1E0:   32 32 33 37 30 36 00 68   63 37 2E 34 2E 33 20 2D  '223706.hc7.4.3 -'
   1F0:   61 34 20 2D 63 6F 72 65   38 20 2D 4F 31 20 2D 58  'a4 -core8 -O1 -X'
   200:   62 73 20 2D 58 6D 75 6C   74 33 32 20 2D 58 6E 6F  'bs -Xmult32 -Xno'
   210:   72 6D 20 73 72 63 2F 69   6E 74 2F 66 64 5F 69 6E  'rm src/int/fd_in'
   220:   74 5F 68 61 6E 64 6C 65   72 2E 63 00 31 32 31 32  't_handler.c.1212'
   230:   32 30 30 35 2E 32 32 33   37 30 36 00 68 63 37 2E  '2005.223706.hc7.'
   240:   34 2E 33 20 2D 61 34 20   2D 63 6F 72 65 38 20 2D  '4.3 -a4 -core8 -'
   250:   4F 31 20 2D 58 62 73 20   2D 58 6D 75 6C 74 33 32  'O1 -Xbs -Xmult32'
   260:   20 2D 58 6E 6F 72 6D 20   73 72 63 2F 69 6E 74 2F  ' -Xnorm src/int/'
   270:   66 64 5F 69 6E 74 5F 70   72 69 76 2E 63 00 31 32  'fd_int_priv.c.12'
   280:   31 32 32 30 30 35 2E 32   32 33 37 30 36 00 68 63  '122005.223706.hc'
   290:   37 2E 34 2E 33 20 2D 61   34 20 2D 63 6F 72 65 38  '7.4.3 -a4 -core8'
   2A0:   20 2D 4F 31 20 2D 58 62   73 20 2D 58 6D 75 6C 74  ' -O1 -Xbs -Xmult'
   2B0:   33 32 20 2D 58 6E 6F 72   6D 20 73 72 63 5F 45 2F  '32 -Xnorm src_E/'
   2C0:   66 68 5F 61 72 63 2E 63   00 31 32 31 32 32 30 30  'fh_arc.c.1212200'
   2D0:   35 2E 32 32 33 37 30 36   00 68 63 37 2E 34 2E 33  '5.223706.hc7.4.3'
   2E0:   20 2D 61 34 20 2D 63 6F   72 65 38 20 2D 4F 31 20  ' -a4 -core8 -O1 '
   2F0:   2D 58 62 73 20 2D 58 6D   75 6C 74 33 32 20 2D 58  '-Xbs -Xmult32 -X'
   300:   6E 6F 72 6D 20 73 72 63   5F 45 2F 66 68 5F 75 61  'norm src_E/fh_ua'
   310:   72 74 2E 63 00 31 32 31   32 32 30 30 35 2E 32 32  'rt.c.12122005.22'
   320:   33 37 30 36 00 68 63 37   2E 34 2E 33 20 2D 61 34  '3706.hc7.4.3 -a4'
   330:   20 2D 63 6F 72 65 38 20   2D 4F 31 20 2D 58 62 73  ' -core8 -O1 -Xbs'
   340:   20 2D 58 6D 75 6C 74 33   32 20 2D 58 6E 6F 72 6D  ' -Xmult32 -Xnorm'
   350:   20 73 72 63 5F 45 2F 66   68 5F 67 70 69 6F 2E 63  ' src_E/fh_gpio.c'
   360:   00 31 32 31 32 32 30 30   35 2E 32 32 33 37 30 36  '.12122005.223706'
   370:   00 68 63 37 2E 34 2E 33   20 2D 61 34 20 2D 63 6F  '.hc7.4.3 -a4 -co'
   380:   72 65 38 20 2D 4F 31 20   2D 58 62 73 20 2D 58 6D  're8 -O1 -Xbs -Xm'
   390:   75 6C 74 33 32 20 2D 58   6E 6F 72 6D 20 73 72 63  'ult32 -Xnorm src'
   3A0:   5F 45 2F 66 68 5F 75 70   69 2E 63 00 31 32 31 32  '_E/fh_upi.c.1212'
   3B0:   32 30 30 35 2E 32 32 33   37 30 36 00 68 63 37 2E  '2005.223706.hc7.'
   3C0:   34 2E 33 20 2D 61 34 20   2D 63 6F 72 65 38 20 2D  '4.3 -a4 -core8 -'
   3D0:   4F 31 20 2D 58 62 73 20   2D 58 6D 75 6C 74 33 32  'O1 -Xbs -Xmult32'
   3E0:   20 2D 58 6E 6F 72 6D 20   73 72 63 5F 45 2F 66 68  ' -Xnorm src_E/fh'
   3F0:   5F 76 65 2E 63 00 31 32   31 32 32 30 30 35 2E 32  '_ve.c.12122005.2'
   400:   32 33 37 30 36 00 68 63   37 2E 34 2E 33 30 2D 4E  '23706.hc7.4.30-N'
   410:   6F 76 2D 32 30 30 35 20   2D 61 34 20 2D 63 6F 72  'ov-2005 -a4 -cor'
   420:   65 38 20 2D 4F 73 20 2D   62 65 68 61 76 65 64 20  'e8 -Os -behaved '
   430:   2E 2E 2F 2E 2E 2F 2E 2E   2F 2E 2E 2F 63 2F 73 74  '../../../../c/st'
   440:   64 5F 67 2F 70 66 6E 6F   66 6C 74 2E 63 00 31 32  'd_g/pfnoflt.c.12'
   450:   30 31 32 30 30 35 2E 30   31 34 38 31 30 00 68 63  '012005.014810.hc'
   460:   37 2E 34 2E 33 30 2D 4E   6F 76 2D 32 30 30 35 20  '7.4.30-Nov-2005 '
   470:   2D 61 34 20 2D 63 6F 72   65 38 20 2D 4F 73 20 2D  '-a4 -core8 -Os -'
   480:   62 65 68 61 76 65 64 20   2E 2E 2F 2E 2E 2F 2E 2E  'behaved ../../..'
   490:   2F 2E 2E 2F 63 2F 73 74   61 72 74 75 70 5F 67 2F  '/../c/startup_g/'
   4A0:   61 72 63 5F 6D 61 69 6E   2E 63 00 31 32 30 31 32  'arc_main.c.12012'
   4B0:   30 30 35 2E 30 31 34 38   31 30 00 68 63 37 2E 34  '005.014810.hc7.4'
   4C0:   2E 33 30 2D 4E 6F 76 2D   32 30 30 35 20 2D 61 34  '.30-Nov-2005 -a4'
   4D0:   20 2D 63 6F 72 65 38 20   2D 4F 73 20 2D 62 65 68  ' -core8 -Os -beh'
   4E0:   61 76 65 64 20 2E 2E 2F   2E 2E 2F 2E 2E 2F 2E 2E  'aved ../../../..'
   4F0:   2F 63 2F 66 69 6F 5F 67   2F 73 70 72 69 6E 74 66  '/c/fio_g/sprintf'
   500:   2E 63 00 31 32 30 31 32   30 30 35 2E 30 31 34 38  '.c.12012005.0148'
   510:   31 30 00 68 63 37 2E 34   2E 33 30 2D 4E 6F 76 2D  '10.hc7.4.30-Nov-'
   520:   32 30 30 35 20 2D 61 34   20 2D 63 6F 72 65 38 20  '2005 -a4 -core8 '
   530:   2D 4F 73 20 2D 62 65 68   61 76 65 64 20 2E 2E 2F  '-Os -behaved ../'
   540:   2E 2E 2F 2E 2E 2F 2E 2E   2F 63 2F 66 69 6F 5F 67  '../../../c/fio_g'
   550:   2F 5F 69 6F 62 2E 63 00   31 32 30 31 32 30 30 35  '/_iob.c.12012005'
   560:   2E 30 31 34 38 31 30 00   68 63 37 2E 34 2E 33 30  '.014810.hc7.4.30'
   570:   2D 4E 6F 76 2D 32 30 30   35 20 2D 61 34 20 2D 63  '-Nov-2005 -a4 -c'
   580:   6F 72 65 38 20 2D 4F 73   20 2D 62 65 68 61 76 65  'ore8 -Os -behave'
   590:   64 20 2E 2E 2F 2E 2E 2F   2E 2E 2F 2E 2E 2F 63 2F  'd ../../../../c/'
   5A0:   66 69 6F 5F 67 2F 66 72   65 6F 70 65 6E 2E 63 00  'fio_g/freopen.c.'
   5B0:   31 32 30 31 32 30 30 35   2E 30 31 34 38 31 30 00  '12012005.014810.'
   5C0:   68 63 37 2E 34 2E 33 30   2D 4E 6F 76 2D 32 30 30  'hc7.4.30-Nov-200'
   5D0:   35 20 2D 61 34 20 2D 63   6F 72 65 38 20 2D 4F 73  '5 -a4 -core8 -Os'
   5E0:   20 2D 62 65 68 61 76 65   64 20 2E 2E 2F 2E 2E 2F  ' -behaved ../../'
   5F0:   2E 2E 2F 2E 2E 2F 63 2F   66 69 6F 5F 67 2F 76 66  '../../c/fio_g/vf'
   600:   70 72 69 6E 74 66 2E 63   00 31 32 30 31 32 30 30  'printf.c.1201200'
   610:   35 2E 30 31 34 38 31 30   00 68 63 37 2E 34 2E 33  '5.014810.hc7.4.3'
   620:   30 2D 4E 6F 76 2D 32 30   30 35 20 2D 61 34 20 2D  '0-Nov-2005 -a4 -'
   630:   63 6F 72 65 38 20 2D 4F   73 20 2D 62 65 68 61 76  'core8 -Os -behav'
   640:   65 64 20 2E 2E 2F 2E 2E   2F 2E 2E 2F 2E 2E 2F 63  'ed ../../../../c'
   650:   2F 66 69 6F 5F 67 2F 73   63 61 6E 66 2E 63 00 31  '/fio_g/scanf.c.1'
   660:   32 30 31 32 30 30 35 2E   30 31 34 38 31 30 00 68  '2012005.014810.h'
   670:   63 37 2E 34 2E 33 30 2D   4E 6F 76 2D 32 30 30 35  'c7.4.30-Nov-2005'
   680:   20 2D 61 34 20 2D 63 6F   72 65 38 20 2D 4F 73 20  ' -a4 -core8 -Os '
   690:   2D 62 65 68 61 76 65 64   20 2E 2E 2F 2E 2E 2F 2E  '-behaved ../../.'
   6A0:   2E 2F 2E 2E 2F 63 2F 73   74 64 5F 67 2F 6E 6F 66  './../c/std_g/nof'
   6B0:   6C 6F 61 74 70 2E 63 00   31 32 30 31 32 30 30 35  'loatp.c.12012005'
   6C0:   2E 30 31 34 38 31 30 00   68 63 37 2E 34 2E 33 30  '.014810.hc7.4.30'
   6D0:   2D 4E 6F 76 2D 32 30 30   35 20 2D 61 34 20 2D 63  '-Nov-2005 -a4 -c'
   6E0:   6F 72 65 38 20 2D 4F 73   20 2D 62 65 68 61 76 65  'ore8 -Os -behave'
   6F0:   64 20 2E 2E 2F 2E 2E 2F   2E 2E 2F 2E 2E 2F 63 2F  'd ../../../../c/'
   700:   73 74 64 5F 67 2F 61 74   65 78 69 74 2E 63 00 31  'std_g/atexit.c.1'
   710:   32 30 31 32 30 30 35 2E   30 31 34 38 31 30 00 68  '2012005.014810.h'
   720:   63 37 2E 34 2E 33 30 2D   4E 6F 76 2D 32 30 30 35  'c7.4.30-Nov-2005'
   730:   20 2D 61 34 20 2D 63 6F   72 65 38 20 2D 4F 73 20  ' -a4 -core8 -Os '
   740:   2D 62 65 68 61 76 65 64   20 2E 2E 2F 2E 2E 2F 2E  '-behaved ../../.'
   750:   2E 2F 2E 2E 2F 63 2F 73   74 72 5F 67 2F 73 74 72  './../c/str_g/str'
   760:   6C 65 6E 2E 63 00 31 32   30 31 32 30 30 35 2E 30  'len.c.12012005.0'
   770:   31 34 38 31 30 00 68 63   37 2E 34 2E 33 30 2D 4E  '14810.hc7.4.30-N'
   780:   6F 76 2D 32 30 30 35 20   2D 61 34 20 2D 63 6F 72  'ov-2005 -a4 -cor'
   790:   65 38 20 2D 4F 73 20 2E   2E 2F 2E 2E 2F 2E 2E 2F  'e8 -Os ../../../'
   7A0:   2E 2E 2F 63 2F 73 74 72   5F 67 2F 73 74 72 63 70  '../c/str_g/strcp'
   7B0:   79 2E 63 00 31 32 30 31   32 30 30 35 2E 30 31 34  'y.c.12012005.014'
   7C0:   38 31 30 00 68 63 37 2E   34 2E 33 30 2D 4E 6F 76  '810.hc7.4.30-Nov'
   7D0:   2D 32 30 30 35 20 2D 61   34 20 2D 63 6F 72 65 38  '-2005 -a4 -core8'
   7E0:   20 2D 4F 73 20 2D 62 65   68 61 76 65 64 20 2E 2E  ' -Os -behaved ..'
   7F0:   2F 2E 2E 2F 2E 2E 2F 2E   2E 2F 63 2F 73 74 64 5F  '/../../../c/std_'
   800:   67 2F 65 78 69 74 2E 63   00 31 32 30 31 32 30 30  'g/exit.c.1201200'
   810:   35 2E 30 31 34 38 31 30   00 68 63 37 2E 34 2E 33  '5.014810.hc7.4.3'
   820:   30 2D 4E 6F 76 2D 32 30   30 35 20 2D 61 34 20 2D  '0-Nov-2005 -a4 -'
   830:   63 6F 72 65 38 20 2D 4F   73 20 2E 2E 2F 2E 2E 2F  'core8 -Os ../../'
   840:   2E 2E 2F 2E 2E 2F 63 2F   73 74 64 5F 67 2F 69 6E  '../../c/std_g/in'
   850:   69 74 63 6F 70 79 2E 63   00 31 32 30 31 32 30 30  'itcopy.c.1201200'
   860:   35 2E 30 31 34 38 31 30   00 68 63 37 2E 34 2E 33  '5.014810.hc7.4.3'
   870:   30 2D 4E 6F 76 2D 32 30   30 35 20 2D 61 34 20 2D  '0-Nov-2005 -a4 -'
   880:   63 6F 72 65 38 20 2D 4F   73 20 2D 62 65 68 61 76  'core8 -Os -behav'
   890:   65 64 20 2E 2E 2F 2E 2E   2F 2E 2E 2F 2E 2E 2F 63  'ed ../../../../c'
   8A0:   2F 66 69 6F 5F 67 2F 5F   64 6F 66 6F 70 65 6E 2E  '/fio_g/_dofopen.'
   8B0:   63 00 31 32 30 31 32 30   30 35 2E 30 31 34 38 31  'c.12012005.01481'
   8C0:   30 00 68 63 37 2E 34 2E   33 30 2D 4E 6F 76 2D 32  '0.hc7.4.30-Nov-2'
   8D0:   30 30 35 20 2D 61 34 20   2D 63 6F 72 65 38 20 2D  '005 -a4 -core8 -'
   8E0:   4F 73 20 2D 62 65 68 61   76 65 64 20 2E 2E 2F 2E  'Os -behaved ../.'
   8F0:   2E 2F 2E 2E 2F 2E 2E 2F   63 2F 66 69 6F 5F 67 2F  './../../c/fio_g/'
   900:   66 69 6C 65 6C 6F 63 6B   2E 63 00 31 32 30 31 32  'filelock.c.12012'
   910:   30 30 35 2E 30 31 34 38   31 30 00 68 63 37 2E 34  '005.014810.hc7.4'
   920:   2E 33 30 2D 4E 6F 76 2D   32 30 30 35 20 2D 61 34  '.30-Nov-2005 -a4'
   930:   20 2D 63 6F 72 65 38 20   2D 4F 73 20 2D 62 65 68  ' -core8 -Os -beh'
   940:   61 76 65 64 20 2E 2E 2F   2E 2E 2F 2E 2E 2F 2E 2E  'aved ../../../..'
   950:   2F 63 2F 66 69 6F 5F 67   2F 66 77 72 69 74 65 2E  '/c/fio_g/fwrite.'
   960:   63 00 31 32 30 31 32 30   30 35 2E 30 31 34 38 31  'c.12012005.01481'
   970:   30 00 68 63 37 2E 34 2E   33 30 2D 4E 6F 76 2D 32  '0.hc7.4.30-Nov-2'
   980:   30 30 35 20 2D 61 34 20   2D 63 6F 72 65 38 20 2D  '005 -a4 -core8 -'
   990:   4F 73 20 2D 62 65 68 61   76 65 64 20 2E 2E 2F 2E  'Os -behaved ../.'
   9A0:   2E 2F 2E 2E 2F 2E 2E 2F   63 2F 73 74 64 5F 67 2F  './../../c/std_g/'
   9B0:   5F 64 6F 73 63 61 6E 2E   63 00 31 32 30 31 32 30  '_doscan.c.120120'
   9C0:   30 35 2E 30 31 34 38 31   30 00 68 63 37 2E 34 2E  '05.014810.hc7.4.'
   9D0:   33 30 2D 4E 6F 76 2D 32   30 30 35 20 2D 61 34 20  '30-Nov-2005 -a4 '
   9E0:   2D 63 6F 72 65 38 20 2D   4F 73 20 2D 62 65 68 61  '-core8 -Os -beha'
   9F0:   76 65 64 20 2E 2E 2F 2E   2E 2F 2E 2E 2F 2E 2E 2F  'ved ../../../../'
   A00:   63 2F 66 69 6F 5F 67 2F   75 6E 67 65 74 63 2E 63  'c/fio_g/ungetc.c'
   A10:   00 31 32 30 31 32 30 30   35 2E 30 31 34 38 31 30  '.12012005.014810'
   A20:   00 68 63 37 2E 34 2E 33   30 2D 4E 6F 76 2D 32 30  '.hc7.4.30-Nov-20'
   A30:   30 35 20 2D 61 34 20 2D   63 6F 72 65 38 20 2D 4F  '05 -a4 -core8 -O'
   A40:   73 20 2D 62 65 68 61 76   65 64 20 2E 2E 2F 2E 2E  's -behaved ../..'
   A50:   2F 2E 2E 2F 2E 2E 2F 63   2F 66 69 6F 5F 67 2F 66  '/../../c/fio_g/f'
   A60:   67 65 74 63 2E 63 00 31   32 30 31 32 30 30 35 2E  'getc.c.12012005.'
   A70:   30 31 34 38 31 30 00 68   63 37 2E 34 2E 33 30 2D  '014810.hc7.4.30-'
   A80:   4E 6F 76 2D 32 30 30 35   20 2D 61 34 20 2D 63 6F  'Nov-2005 -a4 -co'
   A90:   72 65 38 20 2D 4F 73 20   2D 62 65 68 61 76 65 64  're8 -Os -behaved'
   AA0:   20 2E 2E 2F 2E 2E 2F 2E   2E 2F 2E 2E 2F 63 2F 73  ' ../../../../c/s'
   AB0:   74 64 5F 67 2F 77 63 74   6F 6D 62 2E 63 00 31 32  'td_g/wctomb.c.12'
   AC0:   30 31 32 30 30 35 2E 30   31 34 38 31 30 00 68 63  '012005.014810.hc'
   AD0:   37 2E 34 2E 33 30 2D 4E   6F 76 2D 32 30 30 35 20  '7.4.30-Nov-2005 '
   AE0:   2D 61 34 20 2D 63 6F 72   65 38 20 2D 4F 73 20 2D  '-a4 -core8 -Os -'
   AF0:   62 65 68 61 76 65 64 20   2E 2E 2F 2E 2E 2F 2E 2E  'behaved ../../..'
   B00:   2F 2E 2E 2F 63 2F 73 74   64 5F 67 2F 77 63 73 74  '/../c/std_g/wcst'
   B10:   6F 6D 62 73 2E 63 00 31   32 30 31 32 30 30 35 2E  'ombs.c.12012005.'
   B20:   30 31 34 38 31 30 00 68   63 37 2E 34 2E 33 30 2D  '014810.hc7.4.30-'
   B30:   4E 6F 76 2D 32 30 30 35   20 2D 61 34 20 2D 63 6F  'Nov-2005 -a4 -co'
   B40:   72 65 38 20 2D 4F 73 20   2D 62 65 68 61 76 65 64  're8 -Os -behaved'
   B50:   20 2E 2E 2F 2E 2E 2F 2E   2E 2F 2E 2E 2F 63 2F 73  ' ../../../../c/s'
   B60:   74 64 5F 67 2F 5F 73 74   6F 69 2E 63 00 31 32 30  'td_g/_stoi.c.120'
   B70:   31 32 30 30 35 2E 30 31   34 38 31 30 00 68 63 37  '12005.014810.hc7'
   B80:   2E 34 2E 33 30 2D 4E 6F   76 2D 32 30 30 35 20 2D  '.4.30-Nov-2005 -'
   B90:   61 34 20 2D 63 6F 72 65   38 20 2D 4F 73 20 2D 62  'a4 -core8 -Os -b'
   BA0:   65 68 61 76 65 64 20 2E   2E 2F 2E 2E 2F 2E 2E 2F  'ehaved ../../../'
   BB0:   2E 2E 2F 63 2F 73 74 72   5F 67 2F 6D 65 6D 63 68  '../c/str_g/memch'
   BC0:   72 2E 63 00 31 32 30 31   32 30 30 35 2E 30 31 34  'r.c.12012005.014'
   BD0:   38 31 30 00 68 63 37 2E   34 2E 33 30 2D 4E 6F 76  '810.hc7.4.30-Nov'
   BE0:   2D 32 30 30 35 20 2D 61   34 20 2D 63 6F 72 65 38  '-2005 -a4 -core8'
   BF0:   20 2D 4F 73 20 2D 62 65   68 61 76 65 64 20 2E 2E  ' -Os -behaved ..'
   C00:   2F 2E 2E 2F 2E 2E 2F 2E   2E 2F 63 2F 73 74 64 5F  '/../../../c/std_'
   C10:   67 2F 63 74 79 70 65 2E   63 00 31 32 30 31 32 30  'g/ctype.c.120120'
   C20:   30 35 2E 30 31 34 38 31   30 00 68 63 37 2E 34 2E  '05.014810.hc7.4.'
   C30:   33 30 2D 4E 6F 76 2D 32   30 30 35 20 2D 61 34 20  '30-Nov-2005 -a4 '
   C40:   2D 63 6F 72 65 38 20 2D   4F 73 20 2D 62 65 68 61  '-core8 -Os -beha'
   C50:   76 65 64 20 2E 2E 2F 2E   2E 2F 2E 2E 2F 2E 2E 2F  'ved ../../../../'
   C60:   63 2F 73 74 72 5F 67 2F   5F 75 63 68 72 63 68 72  'c/str_g/_uchrchr'
   C70:   2E 63 00 31 32 30 31 32   30 30 35 2E 30 31 34 38  '.c.12012005.0148'
   C80:   31 30 00 68 63 37 2E 34   2E 33 30 2D 4E 6F 76 2D  '10.hc7.4.30-Nov-'
   C90:   32 30 30 35 20 2D 61 34   20 2D 63 6F 72 65 38 20  '2005 -a4 -core8 '
   CA0:   2D 4F 73 20 2D 62 65 68   61 76 65 64 20 2E 2E 2F  '-Os -behaved ../'
   CB0:   2E 2E 2F 2E 2E 2F 2E 2E   2F 63 2F 73 74 64 5F 67  '../../../c/std_g'
   CC0:   2F 5F 6C 6C 74 6F 73 2E   63 00 31 32 30 31 32 30  '/_lltos.c.120120'
   CD0:   30 35 2E 30 31 34 38 31   30 00 68 63 37 2E 34 2E  '05.014810.hc7.4.'
   CE0:   33 30 2D 4E 6F 76 2D 32   30 30 35 20 2D 61 34 20  '30-Nov-2005 -a4 '
   CF0:   2D 63 6F 72 65 38 20 2D   4F 73 20 2D 62 65 68 61  '-core8 -Os -beha'
   D00:   76 65 64 20 2E 2E 2F 2E   2E 2F 2E 2E 2F 2E 2E 2F  'ved ../../../../'
   D10:   63 2F 73 74 64 5F 67 2F   5F 69 74 6F 73 2E 63 00  'c/std_g/_itos.c.'
   D20:   31 32 30 31 32 30 30 35   2E 30 31 34 38 31 30 00  '12012005.014810.'
   D30:   68 63 37 2E 34 2E 33 30   2D 4E 6F 76 2D 32 30 30  'hc7.4.30-Nov-200'
   D40:   35 20 2D 61 34 20 2D 63   6F 72 65 38 20 2D 4F 73  '5 -a4 -core8 -Os'
   D50:   20 2D 62 65 68 61 76 65   64 20 2E 2E 2F 2E 2E 2F  ' -behaved ../../'
   D60:   2E 2E 2F 2E 2E 2F 63 2F   73 74 64 5F 67 2F 5F 63  '../../c/std_g/_c'
   D70:   6C 65 61 6E 75 70 2E 63   00 31 32 30 31 32 30 30  'leanup.c.1201200'
   D80:   35 2E 30 31 34 38 31 30   00 68 63 37 2E 34 2E 33  '5.014810.hc7.4.3'
   D90:   30 2D 4E 6F 76 2D 32 30   30 35 20 2D 61 34 20 2D  '0-Nov-2005 -a4 -'
   DA0:   63 6F 72 65 38 20 2D 4F   73 20 2D 62 65 68 61 76  'core8 -Os -behav'
   DB0:   65 64 20 2E 2E 2F 2E 2E   2F 2E 2E 2F 2E 2E 2F 63  'ed ../../../../c'
   DC0:   2F 66 69 6F 5F 67 2F 5F   73 74 64 69 6F 6C 6B 2E  '/fio_g/_stdiolk.'
   DD0:   63 00 31 32 30 31 32 30   30 35 2E 30 31 34 38 31  'c.12012005.01481'
   DE0:   30 00 68 63 37 2E 34 2E   33 30 2D 4E 6F 76 2D 32  '0.hc7.4.30-Nov-2'
   DF0:   30 30 35 20 2D 61 34 20   2D 63 6F 72 65 38 20 2D  '005 -a4 -core8 -'
   E00:   4F 73 20 2D 62 65 68 61   76 65 64 20 2E 2E 2F 2E  'Os -behaved ../.'
   E10:   2E 2F 2E 2E 2F 2E 2E 2F   63 2F 66 69 6F 5F 67 2F  './../../c/fio_g/'
   E20:   66 63 6C 6F 73 65 2E 63   00 31 32 30 31 32 30 30  'fclose.c.1201200'
   E30:   35 2E 30 31 34 38 31 30   00 68 63 37 2E 34 2E 33  '5.014810.hc7.4.3'
   E40:   30 2D 4E 6F 76 2D 32 30   30 35 20 2D 61 34 20 2D  '0-Nov-2005 -a4 -'
   E50:   63 6F 72 65 38 20 2D 4F   73 20 2D 62 65 68 61 76  'core8 -Os -behav'
   E60:   65 64 20 2E 2E 2F 2E 2E   2F 2E 2E 2F 2E 2E 2F 63  'ed ../../../../c'
   E70:   2F 66 69 6F 5F 67 2F 5F   66 64 5F 73 68 72 64 2E  '/fio_g/_fd_shrd.'
   E80:   63 00 31 32 30 31 32 30   30 35 2E 30 31 34 38 31  'c.12012005.01481'
   E90:   30 00 68 63 37 2E 34 2E   33 30 2D 4E 6F 76 2D 32  '0.hc7.4.30-Nov-2'
   EA0:   30 30 35 20 2D 61 34 20   2D 63 6F 72 65 38 20 2D  '005 -a4 -core8 -'
   EB0:   4F 73 20 2D 62 65 68 61   76 65 64 20 2E 2E 2F 2E  'Os -behaved ../.'
   EC0:   2E 2F 2E 2E 2F 2E 2E 2F   63 2F 66 69 6F 5F 67 2F  './../../c/fio_g/'
   ED0:   6C 6F 63 6B 73 2E 63 00   31 32 30 31 32 30 30 35  'locks.c.12012005'
   EE0:   2E 30 31 34 38 31 30 00   68 63 37 2E 34 2E 33 30  '.014810.hc7.4.30'
   EF0:   2D 4E 6F 76 2D 32 30 30   35 20 2D 61 34 20 2D 63  '-Nov-2005 -a4 -c'
   F00:   6F 72 65 38 20 2D 4F 73   20 2D 62 65 68 61 76 65  'ore8 -Os -behave'
   F10:   64 20 2E 2E 2F 2E 2E 2F   2E 2E 2F 2E 2E 2F 63 2F  'd ../../../../c/'
   F20:   66 69 6F 5F 67 2F 5F 66   69 6E 69 74 2E 63 00 31  'fio_g/_finit.c.1'
   F30:   32 30 31 32 30 30 35 2E   30 31 34 38 31 30 00 68  '2012005.014810.h'
   F40:   63 37 2E 34 2E 33 30 2D   4E 6F 76 2D 32 30 30 35  'c7.4.30-Nov-2005'
   F50:   20 2D 61 34 20 2D 63 6F   72 65 38 20 2D 4F 73 20  ' -a4 -core8 -Os '
   F60:   2D 62 65 68 61 76 65 64   20 2E 2E 2F 2E 2E 2F 2E  '-behaved ../../.'
   F70:   2E 2F 2E 2E 2F 63 2F 66   69 6F 5F 67 2F 66 66 6C  './../c/fio_g/ffl'
   F80:   75 73 68 2E 63 00 31 32   30 31 32 30 30 35 2E 30  'ush.c.12012005.0'
   F90:   31 34 38 31 30 00 68 63   37 2E 34 2E 33 30 2D 4E  '14810.hc7.4.30-N'
   FA0:   6F 76 2D 32 30 30 35 20   2D 61 34 20 2D 63 6F 72  'ov-2005 -a4 -cor'
   FB0:   65 38 20 2D 4F 73 20 2D   62 65 68 61 76 65 64 20  'e8 -Os -behaved '
   FC0:   2E 2E 2F 2E 2E 2F 2E 2E   2F 2E 2E 2F 63 2F 73 74  '../../../../c/st'
   FD0:   72 5F 67 2F 66 5F 6D 65   6D 73 65 74 2E 63 00 31  'r_g/f_memset.c.1'
   FE0:   32 30 31 32 30 30 35 2E   30 31 34 38 31 30 00 68  '2012005.014810.h'
   FF0:   63 37 2E 34 2E 33 30 2D   4E 6F 76 2D 32 30 30 35  'c7.4.30-Nov-2005'
  1000:   20 2D 61 34 20 2D 63 6F   72 65 38 20 2D 4F 73 20  ' -a4 -core8 -Os '
  1010:   2D 62 65 68 61 76 65 64   20 2E 2E 2F 2E 2E 2F 2E  '-behaved ../../.'
  1020:   2E 2F 2E 2E 2F 63 2F 73   74 64 5F 67 2F 5F 64 6F  './../c/std_g/_do'
  1030:   61 74 6F 66 64 2E 63 00   31 32 30 31 32 30 30 35  'atofd.c.12012005'
  1040:   2E 30 31 34 38 31 30 00   68 63 37 2E 34 2E 33 30  '.014810.hc7.4.30'
  1050:   2D 4E 6F 76 2D 32 30 30   35 20 2D 61 34 20 2D 63  '-Nov-2005 -a4 -c'
  1060:   6F 72 65 38 20 2D 4F 73   20 2D 62 65 68 61 76 65  'ore8 -Os -behave'
  1070:   64 20 2E 2E 2F 2E 2E 2F   2E 2E 2F 2E 2E 2F 63 2F  'd ../../../../c/'
  1080:   73 74 64 5F 67 2F 5F 64   6F 61 74 6F 66 2E 63 00  'std_g/_doatof.c.'
  1090:   31 32 30 31 32 30 30 35   2E 30 31 34 38 31 30 00  '12012005.014810.'
  10A0:   68 63 37 2E 34 2E 33 30   2D 4E 6F 76 2D 32 30 30  'hc7.4.30-Nov-200'
  10B0:   35 20 2D 61 34 20 2D 63   6F 72 65 38 20 2D 4F 73  '5 -a4 -core8 -Os'
  10C0:   20 2D 62 65 68 61 76 65   64 20 2E 2E 2F 2E 2E 2F  ' -behaved ../../'
  10D0:   2E 2E 2F 2E 2E 2F 63 2F   73 74 64 5F 67 2F 5F 73  '../../c/std_g/_s'
  10E0:   6D 61 6C 6C 6F 63 2E 63   00 31 32 30 31 32 30 30  'malloc.c.1201200'
  10F0:   35 2E 30 31 34 38 31 30   00 68 63 37 2E 34 2E 33  '5.014810.hc7.4.3'
  1100:   30 2D 4E 6F 76 2D 32 30   30 35 20 2D 61 34 20 2D  '0-Nov-2005 -a4 -'
  1110:   63 6F 72 65 38 20 2D 4F   73 20 2E 2E 2F 2E 2E 2F  'core8 -Os ../../'
  1120:   2E 2E 2F 2E 2E 2F 63 2F   73 74 64 5F 67 2F 6D 61  '../../c/std_g/ma'
  1130:   6C 6C 6F 63 32 2E 63 00   31 32 30 31 32 30 30 35  'lloc2.c.12012005'
  1140:   2E 30 31 34 38 31 30 00   68 63 37 2E 34 2E 33 30  '.014810.hc7.4.30'
  1150:   2D 4E 6F 76 2D 32 30 30   35 20 2D 61 34 20 2D 63  '-Nov-2005 -a4 -c'
  1160:   6F 72 65 38 20 2D 4F 73   20 2D 62 65 68 61 76 65  'ore8 -Os -behave'
  1170:   64 20 2E 2E 2F 2E 2E 2F   2E 2E 2F 2E 2E 2F 63 2F  'd ../../../../c/'
  1180:   66 69 6F 5F 67 2F 66 72   65 61 64 2E 63 00 31 32  'fio_g/fread.c.12'
  1190:   30 31 32 30 30 35 2E 30   31 34 38 31 30 00 68 63  '012005.014810.hc'
  11A0:   37 2E 34 2E 33 30 2D 4E   6F 76 2D 32 30 30 35 20  '7.4.30-Nov-2005 '
  11B0:   2D 61 34 20 2D 63 6F 72   65 38 20 2D 4F 73 20 2D  '-a4 -core8 -Os -'
  11C0:   62 65 68 61 76 65 64 20   2E 2E 2F 2E 2E 2F 2E 2E  'behaved ../../..'
  11D0:   2F 2E 2E 2F 63 2F 66 69   6F 5F 67 2F 5F 66 63 6C  '/../c/fio_g/_fcl'
  11E0:   6F 73 66 70 2E 63 00 31   32 30 31 32 30 30 35 2E  'osfp.c.12012005.'
  11F0:   30 31 34 38 31 30 00 68   63 37 2E 34 2E 33 30 2D  '014810.hc7.4.30-'
  1200:   4E 6F 76 2D 32 30 30 35   20 2D 61 34 20 2D 63 6F  'Nov-2005 -a4 -co'
  1210:   72 65 38 20 2D 4F 73 20   2D 62 65 68 61 76 65 64  're8 -Os -behaved'
  1220:   20 2E 2E 2F 2E 2E 2F 2E   2E 2F 2E 2E 2F 63 2F 66  ' ../../../../c/f'
  1230:   69 6F 5F 67 2F 5F 66 63   6C 6F 73 61 6C 2E 63 00  'io_g/_fclosal.c.'
  1240:   31 32 30 31 32 30 30 35   2E 30 31 34 38 31 30 00  '12012005.014810.'
  1250:   68 63 37 2E 34 2E 33 30   2D 4E 6F 76 2D 32 30 30  'hc7.4.30-Nov-200'
  1260:   35 20 2D 61 34 20 2D 63   6F 72 65 38 20 2D 4F 73  '5 -a4 -core8 -Os'
  1270:   20 2D 62 65 68 61 76 65   64 20 2E 2E 2F 2E 2E 2F  ' -behaved ../../'
  1280:   2E 2E 2F 2E 2E 2F 63 2F   66 69 6F 5F 67 2F 73 65  '../../c/fio_g/se'
  1290:   74 76 62 75 66 2E 63 00   31 32 30 31 32 30 30 35  'tvbuf.c.12012005'
  12A0:   2E 30 31 34 38 31 30 00   68 63 37 2E 34 2E 33 30  '.014810.hc7.4.30'
  12B0:   2D 4E 6F 76 2D 32 30 30   35 20 2D 61 34 20 2D 63  '-Nov-2005 -a4 -c'
  12C0:   6F 72 65 38 20 2D 4F 73   20 2D 62 65 68 61 76 65  'ore8 -Os -behave'
  12D0:   64 20 2E 2E 2F 2E 2E 2F   2E 2E 2F 2E 2E 2F 63 2F  'd ../../../../c/'
  12E0:   66 69 6F 5F 67 2F 5F 66   6C 75 73 68 61 6C 2E 63  'fio_g/_flushal.c'
  12F0:   00 31 32 30 31 32 30 30   35 2E 30 31 34 38 31 30  '.12012005.014810'
  1300:   00 68 63 37 2E 34 2E 33   30 2D 4E 6F 76 2D 32 30  '.hc7.4.30-Nov-20'
  1310:   30 35 20 2D 61 34 20 2D   63 6F 72 65 38 20 2D 4F  '05 -a4 -core8 -O'
  1320:   73 20 2E 2E 2F 2E 2E 2F   2E 2E 2F 2E 2E 2F 63 2F  's ../../../../c/'
  1330:   69 65 65 65 5F 67 2F 66   6C 6F 61 74 2E 63 00 31  'ieee_g/float.c.1'
  1340:   32 30 31 32 30 30 35 2E   30 31 34 38 31 30 00 68  '2012005.014810.h'
  1350:   63 37 2E 34 2E 33 30 2D   4E 6F 76 2D 32 30 30 35  'c7.4.30-Nov-2005'
  1360:   20 2D 61 34 20 2D 63 6F   72 65 38 20 2D 4F 73 20  ' -a4 -core8 -Os '
  1370:   2D 62 65 68 61 76 65 64   20 2E 2E 2F 2E 2E 2F 2E  '-behaved ../../.'
  1380:   2E 2F 2E 2E 2F 63 2F 73   74 64 5F 67 2F 5F 70 6F  './../c/std_g/_po'
  1390:   77 31 30 64 2E 63 00 31   32 30 31 32 30 30 35 2E  'w10d.c.12012005.'
  13A0:   30 31 34 38 31 30 00 68   63 37 2E 34 2E 33 30 2D  '014810.hc7.4.30-'
  13B0:   4E 6F 76 2D 32 30 30 35   20 2D 61 34 20 2D 63 6F  'Nov-2005 -a4 -co'
  13C0:   72 65 38 20 2D 4F 73 20   2D 62 65 68 61 76 65 64  're8 -Os -behaved'
  13D0:   20 2E 2E 2F 2E 2E 2F 2E   2E 2F 2E 2E 2F 63 2F 73  ' ../../../../c/s'
  13E0:   74 64 5F 67 2F 5F 70 6F   77 31 30 2E 63 00 31 32  'td_g/_pow10.c.12'
  13F0:   30 31 32 30 30 35 2E 30   31 34 38 31 30 00 68 63  '012005.014810.hc'
  1400:   37 2E 34 2E 33 30 2D 4E   6F 76 2D 32 30 30 35 20  '7.4.30-Nov-2005 '
  1410:   2D 61 34 20 2D 63 6F 72   65 38 20 2D 4F 73 20 2D  '-a4 -core8 -Os -'
  1420:   62 65 68 61 76 65 64 20   2E 2E 2F 2E 2E 2F 2E 2E  'behaved ../../..'
  1430:   2F 2E 2E 2F 63 2F 6D 69   73 63 5F 67 2F 5F 72 74  '/../c/misc_g/_rt'
  1440:   65 72 72 2E 63 00 31 32   30 31 32 30 30 35 2E 30  'err.c.12012005.0'
  1450:   31 34 38 31 30 00 68 63   37 2E 34 2E 33 30 2D 4E  '14810.hc7.4.30-N'
  1460:   6F 76 2D 32 30 30 35 20   2D 61 34 20 2D 63 6F 72  'ov-2005 -a4 -cor'
  1470:   65 38 20 2D 4F 73 20 2D   62 65 68 61 76 65 64 20  'e8 -Os -behaved '
  1480:   2E 2E 2F 2E 2E 2F 2E 2E   2F 2E 2E 2F 63 2F 73 74  '../../../../c/st'
  1490:   64 5F 67 2F 61 62 6F 72   74 2E 63 00 31 32 30 31  'd_g/abort.c.1201'
  14A0:   32 30 30 35 2E 30 31 34   38 31 30 00 68 63 37 2E  '2005.014810.hc7.'
  14B0:   34 2E 33 30 2D 4E 6F 76   2D 32 30 30 35 20 2D 61  '4.30-Nov-2005 -a'
  14C0:   34 20 2D 63 6F 72 65 38   20 2D 4F 73 20 2D 62 65  '4 -core8 -Os -be'
  14D0:   68 61 76 65 64 20 2E 2E   2F 2E 2E 2F 2E 2E 2F 2E  'haved ../../../.'
  14E0:   2E 2F 63 2F 66 69 6F 5F   67 2F 5F 66 69 6C 6C 2E  './c/fio_g/_fill.'
  14F0:   63 00 31 32 30 31 32 30   30 35 2E 30 31 34 38 31  'c.12012005.01481'
  1500:   30 00 68 63 37 2E 34 2E   33 30 2D 4E 6F 76 2D 32  '0.hc7.4.30-Nov-2'
  1510:   30 30 35 20 2D 61 34 20   2D 63 6F 72 65 38 20 2D  '005 -a4 -core8 -'
  1520:   4F 73 20 2D 62 65 68 61   76 65 64 20 2E 2E 2F 2E  'Os -behaved ../.'
  1530:   2E 2F 2E 2E 2F 2E 2E 2F   63 2F 73 74 64 5F 67 2F  './../../c/std_g/'
  1540:   5F 75 6C 74 6F 61 2E 63   00 31 32 30 31 32 30 30  '_ultoa.c.1201200'
  1550:   35 2E 30 31 34 38 31 30   00 68 63 37 2E 34 2E 33  '5.014810.hc7.4.3'
  1560:   30 2D 4E 6F 76 2D 32 30   30 35 20 2D 61 34 20 2D  '0-Nov-2005 -a4 -'
  1570:   63 6F 72 65 38 20 2D 4F   73 20 2D 62 65 68 61 76  'core8 -Os -behav'
  1580:   65 64 20 2E 2E 2F 2E 2E   2F 2E 2E 2F 2E 2E 2F 63  'ed ../../../../c'
  1590:   2F 73 74 64 5F 67 2F 73   69 67 6E 61 6C 2E 63 00  '/std_g/signal.c.'
  15A0:   31 32 30 31 32 30 30 35   2E 30 31 34 38 31 30 00  '12012005.014810.'
  15B0:   68 63 37 2E 34 2E 33 30   2D 4E 6F 76 2D 32 30 30  'hc7.4.30-Nov-200'
  15C0:   35 20 2D 61 34 20 2D 63   6F 72 65 38 20 2D 4F 73  '5 -a4 -core8 -Os'
  15D0:   20 2D 62 65 68 61 76 65   64 20 2E 2E 2F 2E 2E 2F  ' -behaved ../../'
  15E0:   2E 2E 2F 2E 2E 2F 63 2F   73 74 64 5F 67 2F 5F 73  '../../c/std_g/_s'
  15F0:   74 72 72 65 76 2E 63 00   31 32 30 31 32 30 30 35  'trrev.c.12012005'
  1600:   2E 30 31 34 38 31 30 00   68 63 37 2E 34 2E 33 30  '.014810.hc7.4.30'
  1610:   2D 4E 6F 76 2D 32 30 30   35 20 2D 61 34 20 2D 63  '-Nov-2005 -a4 -c'
  1620:   6F 72 65 38 20 2D 4F 73   20 2D 62 65 68 61 76 65  'ore8 -Os -behave'
  1630:   64 20 2E 2E 2F 2E 2E 2F   2E 2E 2F 2E 2E 2F 6D 77  'd ../../../../mw'
  1640:   2F 6D 69 73 63 5F 67 2F   6D 77 64 63 74 6F 72 2E  '/misc_g/mwdctor.'
  1650:   63 00 31 32 30 31 32 30   30 35 2E 30 31 34 38 31  'c.12012005.01481'
  1660:   30 00 68 63 37 2E 34 2E   33 30 2D 4E 6F 76 2D 32  '0.hc7.4.30-Nov-2'
  1670:   30 30 35 20 2D 61 34 20   2D 63 6F 72 65 38 20 2D  '005 -a4 -core8 -'
  1680:   4F 73 20 2D 62 65 68 61   76 65 64 20 2E 2E 2F 2E  'Os -behaved ../.'
  1690:   2E 2F 2E 2E 2F 2E 2E 2F   6D 77 2F 73 74 75 62 5F  './../../mw/stub_'
  16A0:   67 2F 61 72 67 76 2E 63   00 31 32 30 31 32 30 30  'g/argv.c.1201200'
  16B0:   35 2E 30 31 34 38 31 30   00 68 63 37 2E 34 2E 33  '5.014810.hc7.4.3'
  16C0:   30 2D 4E 6F 76 2D 32 30   30 35 20 2D 61 34 20 2D  '0-Nov-2005 -a4 -'
  16D0:   63 6F 72 65 38 20 2D 4F   73 20 2D 62 65 68 61 76  'core8 -Os -behav'
  16E0:   65 64 20 2E 2E 2F 2E 2E   2F 2E 2E 2F 2E 2E 2F 6D  'ed ../../../../m'
  16F0:   77 2F 73 74 72 5F 67 2F   5F 6D 65 6D 63 6C 72 2E  'w/str_g/_memclr.'
  1700:   63 00 31 32 30 31 32 30   30 35 2E 30 31 34 38 31  'c.12012005.01481'
  1710:   30 00 68 63 37 2E 34 2E   33 30 2D 4E 6F 76 2D 32  '0.hc7.4.30-Nov-2'
  1720:   30 30 35 20 2D 61 34 20   2D 63 6F 72 65 38 20 2D  '005 -a4 -core8 -'
  1730:   4F 73 20 2D 62 65 68 61   76 65 64 20 2E 2E 2F 2E  'Os -behaved ../.'
  1740:   2E 2F 2E 2E 2F 2E 2E 2F   6D 77 2F 6D 77 5F 67 2F  './../../mw/mw_g/'
  1750:   73 74 61 72 74 6B 2E 63   00 31 32 30 31 32 30 30  'startk.c.1201200'
  1760:   35 2E 30 31 34 38 31 30   00 68 63 37 2E 34 2E 33  '5.014810.hc7.4.3'
  1770:   30 2D 4E 6F 76 2D 32 30   30 35 20 2D 61 34 20 2D  '0-Nov-2005 -a4 -'
  1780:   63 6F 72 65 38 20 2D 4F   73 20 2D 62 65 68 61 76  'core8 -Os -behav'
  1790:   65 64 20 2E 2E 2F 2E 2E   2F 2E 2E 2F 2E 2E 2F 6D  'ed ../../../../m'
  17A0:   77 2F 6D 69 73 63 5F 67   2F 65 72 72 6E 6F 67 2E  'w/misc_g/errnog.'
  17B0:   63 00 31 32 30 31 32 30   30 35 2E 30 31 34 38 31  'c.12012005.01481'
  17C0:   30 00 68 63 37 2E 34 2E   33 30 2D 4E 6F 76 2D 32  '0.hc7.4.30-Nov-2'
  17D0:   30 30 35 20 2D 61 34 20   2D 63 6F 72 65 38 20 2D  '005 -a4 -core8 -'
  17E0:   4F 73 20 2D 62 65 68 61   76 65 64 20 2E 2E 2F 2E  'Os -behaved ../.'
  17F0:   2E 2F 2E 2E 2F 2E 2E 2F   6D 77 2F 6D 69 73 63 5F  './../../mw/misc_'
  1800:   67 2F 6D 75 74 65 78 67   2E 63 00 31 32 30 31 32  'g/mutexg.c.12012'
  1810:   30 30 35 2E 30 31 34 38   31 30 00 68 63 37 2E 34  '005.014810.hc7.4'
  1820:   2E 33 30 2D 4E 6F 76 2D   32 30 30 35 20 2D 61 34  '.30-Nov-2005 -a4'
  1830:   20 2D 63 6F 72 65 38 20   2D 4F 73 20 2D 62 65 68  ' -core8 -Os -beh'
  1840:   61 76 65 64 20 2E 2E 2F   2E 2E 2F 2E 2E 2F 2E 2E  'aved ../../../..'
  1850:   2F 6D 77 2F 73 74 75 62   5F 67 2F 5F 65 78 69 74  '/mw/stub_g/_exit'
  1860:   2E 63 00 31 32 30 31 32   30 30 35 2E 30 31 34 38  '.c.12012005.0148'
  1870:   31 30 00 68 63 37 2E 34   2E 33 30 2D 4E 6F 76 2D  '10.hc7.4.30-Nov-'
  1880:   32 30 30 35 20 2D 61 34   20 2D 63 6F 72 65 38 20  '2005 -a4 -core8 '
  1890:   2D 4F 73 20 2D 62 65 68   61 76 65 64 20 2E 2E 2F  '-Os -behaved ../'
  18A0:   2E 2E 2F 2E 2E 2F 2E 2E   2F 6D 77 2F 73 74 75 62  '../../../mw/stub'
  18B0:   5F 67 2F 63 6C 6F 73 65   2E 63 00 31 32 30 31 32  '_g/close.c.12012'
  18C0:   30 30 35 2E 30 31 34 38   31 30 00 68 63 37 2E 34  '005.014810.hc7.4'
  18D0:   2E 33 30 2D 4E 6F 76 2D   32 30 30 35 20 2D 61 34  '.30-Nov-2005 -a4'
  18E0:   20 2D 63 6F 72 65 38 20   2D 4F 73 20 2D 62 65 68  ' -core8 -Os -beh'
  18F0:   61 76 65 64 20 2E 2E 2F   2E 2E 2F 2E 2E 2F 2E 2E  'aved ../../../..'
  1900:   2F 6D 77 2F 68 6C 5F 67   2F 72 65 6D 6F 76 65 2E  '/mw/hl_g/remove.'
  1910:   63 00 31 32 30 31 32 30   30 35 2E 30 31 34 38 31  'c.12012005.01481'
  1920:   30 00 68 63 37 2E 34 2E   33 30 2D 4E 6F 76 2D 32  '0.hc7.4.30-Nov-2'
  1930:   30 30 35 20 2D 61 34 20   2D 63 6F 72 65 38 20 2D  '005 -a4 -core8 -'
  1940:   4F 73 20 2D 62 65 68 61   76 65 64 20 2E 2E 2F 2E  'Os -behaved ../.'
  1950:   2E 2F 2E 2E 2F 2E 2E 2F   6D 77 2F 73 74 75 62 5F  './../../mw/stub_'
  1960:   67 2F 6C 73 65 65 6B 2E   63 00 31 32 30 31 32 30  'g/lseek.c.120120'
  1970:   30 35 2E 30 31 34 38 31   30 00 68 63 37 2E 34 2E  '05.014810.hc7.4.'
  1980:   33 30 2D 4E 6F 76 2D 32   30 30 35 20 2D 61 34 20  '30-Nov-2005 -a4 '
  1990:   2D 63 6F 72 65 38 20 2D   4F 73 20 2D 62 65 68 61  '-core8 -Os -beha'
  19A0:   76 65 64 20 2E 2E 2F 2E   2E 2F 2E 2E 2F 2E 2E 2F  'ved ../../../../'
  19B0:   6D 77 2F 68 6C 5F 67 2F   73 62 72 6B 2E 63 00 31  'mw/hl_g/sbrk.c.1'
  19C0:   32 30 31 32 30 30 35 2E   30 31 34 38 31 30 00 68  '2012005.014810.h'
  19D0:   63 37 2E 34 2E 33 30 2D   4E 6F 76 2D 32 30 30 35  'c7.4.30-Nov-2005'
  19E0:   20 2D 61 34 20 2D 63 6F   72 65 38 20 2D 4F 73 20  ' -a4 -core8 -Os '
  19F0:   2D 62 65 68 61 76 65 64   20 2E 2E 2F 2E 2E 2F 2E  '-behaved ../../.'
  1A00:   2E 2F 2E 2E 2F 6D 77 2F   73 74 75 62 5F 67 2F 67  './../mw/stub_g/g'
  1A10:   65 74 65 6E 76 2E 63 00   31 32 30 31 32 30 30 35  'etenv.c.12012005'
  1A20:   2E 30 31 34 38 31 30 00   68 63 37 2E 34 2E 33 30  '.014810.hc7.4.30'
  1A30:   2D 4E 6F 76 2D 32 30 30   35 20 2D 61 34 20 2D 63  '-Nov-2005 -a4 -c'
  1A40:   6F 72 65 38 20 2D 4F 73   20 2D 62 65 68 61 76 65  'ore8 -Os -behave'
  1A50:   64 20 2E 2E 2F 2E 2E 2F   2E 2E 2F 2E 2E 2F 6D 77  'd ../../../../mw'
  1A60:   2F 6D 69 73 63 5F 67 2F   74 6C 73 63 74 6F 72 67  '/misc_g/tlsctorg'
  1A70:   2E 63 00 31 32 30 31 32   30 30 35 2E 30 31 34 38  '.c.12012005.0148'
  1A80:   31 30 00 68 63 37 2E 34   2E 33 30 2D 4E 6F 76 2D  '10.hc7.4.30-Nov-'
  1A90:   32 30 30 35 20 2D 61 34   20 2D 63 6F 72 65 38 20  '2005 -a4 -core8 '
  1AA0:   2D 4F 73 20 2D 62 65 68   61 76 65 64 20 2E 2E 2F  '-Os -behaved ../'
  1AB0:   2E 2E 2F 2E 2E 2F 2E 2E   2F 6D 77 2F 73 74 75 62  '../../../mw/stub'
  1AC0:   5F 67 2F 75 6E 6C 69 6E   6B 2E 63 00 31 32 30 31  '_g/unlink.c.1201'
  1AD0:   32 30 30 35 2E 30 31 34   38 31 30 00 68 63 37 2E  '2005.014810.hc7.'
  1AE0:   34 2E 33 30 2D 4E 6F 76   2D 32 30 30 35 20 2D 61  '4.30-Nov-2005 -a'
  1AF0:   34 20 2D 63 6F 72 65 38   20 2D 4F 73 20 2D 62 65  '4 -core8 -Os -be'
  1B00:   68 61 76 65 64 20 2E 2E   2F 2E 2E 2F 2E 2E 2F 2E  'haved ../../../.'
  1B10:   2E 2F 6D 77 2F 68 6C 5F   67 2F 65 6E 76 69 72 6F  './mw/hl_g/enviro'
  1B20:   6E 2E 63 00 31 32 30 31   32 30 30 35 2E 30 31 34  'n.c.12012005.014'
  1B30:   38 31 30 00 68 63 37 2E   34 2E 33 30 2D 4E 6F 76  '810.hc7.4.30-Nov'
  1B40:   2D 32 30 30 35 20 2D 61   34 20 2D 63 6F 72 65 38  '-2005 -a4 -core8'
  1B50:   20 2D 4F 73 20 2D 62 65   68 61 76 65 64 20 2E 2E  ' -Os -behaved ..'
  1B60:   2F 2E 2E 2F 2E 2E 2F 2E   2E 2F 63 2F 73 74 72 5F  '/../../../c/str_'
  1B70:   67 2F 73 74 72 6E 63 6D   70 2E 63 00 31 32 30 31  'g/strncmp.c.1201'
  1B80:   32 30 30 35 2E 30 31 34   38 31 30 00 68 63 37 2E  '2005.014810.hc7.'
  1B90:   34 2E 33 30 2D 4E 6F 76   2D 32 30 30 35 20 2D 61  '4.30-Nov-2005 -a'
  1BA0:   34 20 2D 63 6F 72 65 38   20 2D 4F 73 20 2D 62 65  '4 -core8 -Os -be'
  1BB0:   68 61 76 65 64 20 2E 2E   2F 2E 2E 2F 2E 2E 2F 2E  'haved ../../../.'
  1BC0:   2E 2F 63 2F 73 74 72 5F   67 2F 6D 65 6D 63 6D 70  './c/str_g/memcmp'
  1BD0:   2E 63 00 31 32 30 31 32   30 30 35 2E 30 31 34 38  '.c.12012005.0148'
  1BE0:   31 30 00                                           '10.'
Content of section .arcextmap (#13) size=0x99 start=0x12cf9
     0:   0C 02 00 00 00 12 6D 75   6C 68 69 00 10 07 00 00  '......mulhi.....'
    10:   00 12 00 00 00 02 6D 75   6C 68 69 00 07 01 39 6D  '......mulhi...9m'
    20:   6C 6F 00 08 01 3A 6D 6D   69 64 00 07 01 3B 6D 68  'lo...:mmid...;mh'
    30:   69 00 0B 06 39 00 00 00   01 6D 6C 6F 00 0C 06 3A  'i...9....mlo...:'
    40:   00 00 00 01 6D 6D 69 64   00 0B 06 3B 00 00 00 01  '....mmid...;....'
    50:   6D 68 69 00 09 00 10 00   00 61 73 6C 00 09 00 11  'mhi......asl....'
    60:   00 00 6C 73 72 00 09 00   12 00 00 61 73 72 00 09  '..lsr......asr..'
    70:   00 13 00 00 72 6F 72 00   0B 00 14 00 01 6D 75 6C  '....ror......mul'
    80:   36 34 00 0C 00 15 00 01   6D 75 6C 75 36 34 00 0A  '64......mulu64..'
    90:   00 03 0A 00 6E 6F 72 6D   00                       '....norm.'
